(lp0
S'ENGINE'
p1
aS'fs-BELT'
p2
aS'THAT'
p3
aS'WHEN'
p4
aS'OVER'
p5
aS'LATER'
p6
aS'BACK'
p7
aS'DEAD'
p8
aS'CL:3car following other car'
p9
aS'part:indef'
p10
aS'HAVE'
p11
aS'LINE'
p12
aS'ONE'
p13
aS'MUST'
p14
aS'ns-NEV'
p15
aS'EVERYTHING'
p16
aS'#BUT'
p17
aS'SAD'
p18
aS'CL:1circle shape'
p19
aS'SAY'
p20
aS'PLUS'
p21
aS'ns-NEB'
p22
aS'ns-BOSTON'
p23
aS'TOTAL'
p24
aS'THREE'
p25
aS'BEAUTIFUL'
p26
aS'SIX'
p27
aS'FIX'
p28
aS'HANG'
p29
aS'CL:4back in the car fell'
p30
aS'PAST'
p31
aS'WORK-OUT'
p32
aS'NIGHT'
p33
aS'GO'
p34
aS'WHERE'
p35
aS'CL:Bacross the land'
p36
aS'CL:5round fence'
p37
aS'BEFORE'
p38
aS'fs-BOSTON'
p39
aS'ON'
p40
aS'MONEY'
p41
aS'#CAR'
p42
aS'50'
p43
aS'EAT'
p44
aS'fs-NEWS'
p45
aS'ONLY'
p46
aS'FUTURE'
p47
aS'SOON+'
p48
aS'OF'
p49
aS'READY'
p50
aS'#OIL'
p51
aS'I-80'
p52
aS'SOON'
p53
aS'WAKE-ALL-NIGHT'
p54
aS'fs-SO'
p55
aS'GREAT'
p56
aS'AFTER'
p57
aS'fs-LATE'
p58
aS'fs-SF'
p59
aS'COUNTRY'
p60
aS'ALL-NIGHT'
p61
aS'STAY'
p62
aS'LEAVE'
p63
aS'GET-IN'
p64
aS'fs-FIX'
p65
aS'FINE'
p66
aS'CL:3cars pulling over'
p67
aS'ns-LA'
p68
aS'REALLY'
p69
aS'ENJOY++'
p70
aS'BEGIN'
p71
aS'I-90'
p72
aS'GET'
p73
aS'wow'
p74
aS'fs-SPARE'
p75
aS'NEAR'
p76
aS'BUT'
p77
aS'ANYONE'
p78
aS'IX-1p-pl-arc'
p79
aS'SOMETHING'
p80
aS'TRUNK'
p81
aS'NOT^YET'
p82
aS'GATE'
p83
aS'FOUR-DAY'
p84
aS'POSS-1p'
p85
aS'THREE-DAY'
p86
aS'FINISH'
p87
aS'END'
p88
aS'AROUND'
p89
aS'FOR'
p90
aS'ns-COLORADO'
p91
aS'THOUSAND'
p92
aS'VISIT'
p93
aS'#SO'
p94
aS'fs-A'
p95
aS'PROCESS++'
p96
aS'SUGGEST'
p97
aS'PLACE'
p98
aS'EXPECT'
p99
aS'CRACK'
p100
aS'IX-3p:i'
p101
aS'A-LITTLE'
p102
aS'TEMPT++'
p103
aS'MISS'
p104
aS'UNTIL'
p105
aS'AND'
p106
aS'YES'
p107
aS'fs-BUTCHER-SHOP'
p108
aS'TIRE'
p109
aS'THING'
p110
aS'fs-TRUNK'
p111
aS'fs-NEVADA'
p112
aS'IX-3p-arc'
p113
aS'SEMESTER'
p114
aS'REALIZE'
p115
aS'INFORM'
p116
aS'WAKE-UP'
p117
aS'CONTINUE'
p118
aS'THROUGH'
p119
aS'DRIVE++'
p120
aS'GO-AHEAD'
p121
aS'TIME'
p122
aS'NOT'
p123
aS'fs-CASINO'
p124
aS'HOPE'
p125
aS'WAIT+'
p126
aS'ns-SF'
p127
aS'CHOICE'
p128
aS'WHO'
p129
aS'fs-WYOMING'
p130
aS'COW'
p131
aS'TWELVE'
p132
aS'fs-PACE'
p133
aS'UNKNOWN'
p134
aS'POP-UP'
p135
aS'STATION'
p136
aS'SIX-DAY'
p137
aS'DECIDE'
p138
aS'SMALL'
p139
aS'NEW'
p140
aS'OPEN'
p141
aS'IX-3p:j'
p142
aS'ENJOY'
p143
aS'IX-1p'
p144
aS'HOUR'
p145
aS'AREA'
p146
aS'CL:BENT-B-land flat'
p147
aS'HOTEL'
p148
aS'fs-CSUN'
p149
aS'THINK'
p150
aS'ADVICE+'
p151
aS'SEE'
p152
aS'fs-HOURS'
p153
aS'ASK'
p154
aS'CLOSE'
p155
aS'GRAB'
p156
aS'ARRIVE'
p157
aS'fs-WYMOING'
p158
aS'WHY'
p159
aS'FRIEND'
p160
aS'OUT'
p161
aS'AGAIN'
p162
aS'CUT'
p163
aS'fs-ILL'
p164
aS'PLAIN'
p165
aS'DRIVE'
p166
aS'FEW'
p167
aS'STATE'
p168
aS'RIGHT'
p169
aS'CAN^NOT'
p170
aS'BETWEEN'
p171
aS'NEED'
p172
aS'fs-OHIO'
p173
aS'TRIP'
p174
aS'EXHAUST'
p175
aS'fs-GAS'
p176
aS'FIFTEEN'
p177
aS'GAMBLE++'
p178
aS'CASINO'
p179
aS'CL:3car pulling over'
p180
aS'ELEVEN'
p181
aS'WRONG'
p182
aS'COPY+'
p183
aS'GAMBLE'
p184
aS'LOSE'
p185
aS'AWFUL'
p186
aS'WANT'
p187
aS'fs-MILES'
p188
aS'fs-DONUT'
p189
aS'MOVE'
p190
aS'DO'
p191
aS'DONUT'
p192
aS'FEEL'
p193
aS'TWO'
p194
aS'BAD'
p195
aS'#ALL'
p196
aS'POSS-3p'
p197
aS'OVER-NIGHT'
p198
aS'IX-3p-pl-arc'
p199
aS'CHANGE'
p200
aS'fs-FUN'
p201
aS'MEAT'
p202
aS'IX-3p'
p203
aS'TOLERATE'
p204
aS'FIND'
p205
aS'TO'
p206
aS'fs-DAY'
p207
aS'TEN'
p208
aS'fs-TO'
p209
aS'relief'
p210
aS'PERFECT'
p211
aS'GOOD'
p212
aS'WAKE-OVER'
p213
aS'SHOW'
p214
aS'VERY'
p215
aS'MAYBE'
p216
aS'BORE'
p217
aS'fs-OF'
p218
aS'MORNING'
p219
aS'START'
p220
aS'ALL-THE-WAY'
p221
aS'OTHER'
p222
aS'AT'
p223
aS'SURE'
p224
aS'IN'
p225
aS'CL:3car moving'
p226
aS'wave'
p227
aS'TOMORROW'
p228
aS'CITY'
p229
aS'SEVEN'
p230
aS'ALREADY'
p231
aS'FROM'
p232
aS'applause'
p233
aS'fs-UTAH'
p234
aS'fs-IOWA'
p235
aS'MAKE'
p236
aS'ADMIT'
p237
aS'SAME'
p238
aS'IX-2p'
p239
aS'FINALLY'
p240
aS'BRING'
p241
aS'ns-NEW-YORK'
p242
aS'SLEEP'
p243
aS'ns-CALIFORNIA'
p244
aS'NOTHING'
p245
aS'ALL-DAY'
p246
a.