(lp0
S'DRY'
p1
aS'FUNNY'
p2
aS'HOME'
p3
aS'SURGERON'
p4
aS'FOUR-THIRTY'
p5
aS'cl:5dropping the object'
p6
aS'OLDER'
p7
aS'PAY'
p8
aS'EXPLAIN'
p9
aS'WET'
p10
aS'SHAMPOO'
p11
aS'STITCH'
p12
aS'GO'
p13
aS'TWO'
p14
aS'BONE'
p15
aS'part:indef'
p16
aS'HAVE'
p17
aS'TIE'
p18
aS'cl:1list'
p19
aS'WITH'
p20
aS'cl:5picking the object'
p21
aS'BEST'
p22
aS'MUST'
p23
aS'WRAP-AROUND'
p24
aS'#THEN'
p25
aS'EVERYTHING'
p26
aS'WANT'
p27
aS'THAT'
p28
aS'cl:3car pulling over'
p29
aS'POSS-2p'
p30
aS'cl:1walking back'
p31
aS'SAY'
p32
aS'POSS-3p'
p33
aS'PRETTY'
p34
aS'LUCKY'
p35
aS'THICK'
p36
aS'FIRST'
p37
aS'CHECK'
p38
aS'BLOOD'
p39
aS'cl:5picking the object up'
p40
aS'OFF'
p41
aS'cl:5many places'
p42
aS'cl:5dumping the object'
p43
aS'FUTURE-NOT'
p44
aS'ANYWAY'
p45
aS'BOSS'
p46
aS'cl:1walking up'
p47
aS'PRESSURE'
p48
aS'WORK-OUT'
p49
aS'fs-LOG'
p50
aS'BECOME'
p51
aS'cl:5holding'
p52
aS'cl:1cut'
p53
aS'CAUSE'
p54
aS'BLOOD++'
p55
aS'BEFORE'
p56
aS'ON'
p57
aS'#OR'
p58
aS'LOOK'
p59
aS'EMERGENCY'
p60
aS'AFTER'
p61
aS'SEND'
p62
aS'fs-NEWS'
p63
aS'FUTURE'
p64
aS'LANDSCAPE'
p65
aS'#OF'
p66
aS'READY'
p67
aS'YES'
p68
aS'YET'
p69
aS'MAN'
p70
aS'TO'
p71
aS'SURE'
p72
aS'DECIDE'
p73
aS'ANOTHER'
p74
aS'cl:2quotation'
p75
aS'POSS-3p:i'
p76
aS'POSS-3p:j'
p77
aS'PREFER'
p78
aS'ALL-NIGHT'
p79
aS'BED'
p80
aS'PLASTIC'
p81
aS'DOWN'
p82
aS'GOOD'
p83
aS'fs-NUMB'
p84
aS'OPINION'
p85
aS'NURSE'
p86
aS'FINE'
p87
aS'cl:5wrapping up++'
p88
aS'REALLY'
p89
aS'PULL'
p90
aS'WHAT'
p91
aS'JUST'
p92
aS'cl:5bunch of them'
p93
aS'GET'
p94
aS'ASSISTANT'
p95
aS'wow'
p96
aS'BUT'
p97
aS'ARRIVE'
p98
aS'REGULAR'
p99
aS'TRUE-BUSINESS'
p100
aS'LOSE'
p101
aS'fs-STAFF'
p102
aS'SHARP'
p103
aS'POSS-1p'
p104
aS'INFORMATION'
p105
aS'FINISH'
p106
aS'FOR'
p107
aS'fs-BAG'
p108
aS'fs-BILL'
p109
aS'#SO'
p110
aS'ELSE'
p111
aS'FIVE'
p112
aS'RESULT'
p113
aS'POP-UP'
p114
aS'IX-3p:i'
p115
aS'cl:spulling over'
p116
aS'cl:5size of the object'
p117
aS'POSS-2p:i'
p118
aS'cl:5moving the object++'
p119
aS'IX-1p-pl-2:x/y'
p120
aS'SCISSOR'
p121
aS'come on'
p122
aS'PULL-ON'
p123
aS'TEND'
p124
aS'STRICT'
p125
aS'MOTHER-FATHER'
p126
aS'THROUGH'
p127
aS'GO-AHEAD'
p128
aS'TIME'
p129
aS'NOT'
p130
aS'INSURANCE'
p131
aS'HOPE'
p132
aS'SHOE'
p133
aS'THEN'
p134
aS'#BAG'
p135
aS'CAN-NOT'
p136
aS'PAY-PHONE'
p137
aS'UNKNOWN'
p138
aS'cl:5etc'
p139
aS'cl:5holding the object'
p140
aS'EVERYWHERE'
p141
aS'KNOW'
p142
aS'fs-WOOD'
p143
aS'CORNER'
p144
aS'cl:5liquid all over'
p145
aS'fs-BAGS'
p146
aS'IX-1p'
p147
aS'GIFT'
p148
aS'AREA'
p149
aS'fs-EXPRESS'
p150
aS'HOSPITAL'
p151
aS'WORK'
p152
aS'SHOT++'
p153
aS'FAST'
p154
aS'BETTER'
p155
aS'TODAY'
p156
aS'IMAGINE'
p157
aS'CATCH'
p158
aS'PLUS'
p159
aS'fs-JOINT'
p160
aS'SIZE'
p161
aS'cl:5opening the object'
p162
aS'FRIEND'
p163
aS'cl:1person walking toward to us'
p164
aS'DIFFERENT'
p165
aS'CUT'
p166
aS'WATER'
p167
aS'SHIRT'
p168
aS'cl:3sit down'
p169
aS'SOME'
p170
aS'cl:sputting the object on'
p171
aS'COVER'
p172
aS'YOUNG'
p173
aS'cl:ywow'
p174
aS'FEW'
p175
aS'cl:5tapping'
p176
aS'NEED'
p177
aS'CARE'
p178
aS'fs-SHAMPOO'
p179
aS'LEAVE'
p180
aS'STILL'
p181
aS'JOIN'
p182
aS'NAME'
p183
aS'DOCTOR'
p184
aS'BILL'
p185
aS'YESTERDAY'
p186
aS'INFECTION'
p187
aS'WHY'
p188
aS'cl:1field'
p189
aS'SUNSET'
p190
aS'#SS'
p191
aS'fs-DRY'
p192
aS'RUBBER'
p193
aS'SURGEON'
p194
aS'cl:5object felling off'
p195
aS'TELL'
p196
aS'MORE'
p197
aS'DO'
p198
aS'NOTICE'
p199
aS'cl:4running'
p200
aS'#BACK'
p201
aS'FEEL'
p202
aS'cl:spulling on the object'
p203
aS'NUMBER'
p204
aS'WALK'
p205
aS'WASH'
p206
aS'BAD'
p207
aS'WAIT++'
p208
aS'#ALL'
p209
aS'CAN'
p210
aS'WRAP'
p211
aS'SEVEN-THIRTY'
p212
aS'cl:5all over on the shirt'
p213
aS'#X-RAY'
p214
aS'#AIR'
p215
aS'IMPACT'
p216
aS'SOMEONE'
p217
aS'HIT'
p218
aS'no'
p219
aS'IX-3p'
p220
aS'BIG'
p221
aS'nah'
p222
aS'ONE'
p223
aS'SHOWER'
p224
aS'WALLET'
p225
aS'BANDAGE'
p226
aS'fs-CUTTER'
p227
aS'WHEW'
p228
aS'HAPPY'
p229
aS'#EVEN'
p230
aS'fs-DATE'
p231
aS'USE'
p232
aS'GREW-UP'
p233
aS'SAFE'
p234
aS'STRING'
p235
aS'#BE'
p236
aS'SET-UP++'
p237
aS'MAYBE'
p238
aS'#IT'
p239
aS'METAL'
p240
aS'fs-TONY'
p241
aS'fs-LANDSCAPING'
p242
aS'MACHINE'
p243
aS'READY++'
p244
aS'FINALLY'
p245
aS'cl:1walking toward us'
p246
aS'IN'
p247
aS'FOREVER'
p248
aS'HOLD'
p249
aS'cl:1walking over'
p250
aS'THINK'
p251
aS'IF'
p252
aS'BUILDING'
p253
aS'NEW+'
p254
aS'ALREADY'
p255
aS'STITCH++'
p256
aS'cl:5picking up the object'
p257
aS'GO-IN'
p258
aS'SECOND'
p259
aS'SAME'
p260
aS'IX-2p'
p261
aS'CALL'
p262
aS'relief'
p263
aS'KIND'
p264
aS'TRUST'
p265
aS'COMPANY'
p266
aS'ALL-DAY'
p267
a.