(lp0
S'SEPARATE'
p1
aS'SIMPLE'
p2
aS'DEAF'
p3
aS'THREE'
p4
aS'fs-BACK'
p5
aS'part:indef'
p6
aS'90'
p7
aS'STEAL'
p8
aS'ACCIDENT'
p9
aS'CRASH'
p10
aS'SAY'
p11
aS'PLUS'
p12
aS'TOTAL'
p13
aS'fs-MR'
p14
aS'SENTENCE'
p15
aS'#DO'
p16
aS'CL:5biker riding on one wheel'
p17
aS'GO'
p18
aS'fs-FREAK'
p19
aS'BEAUTIFUL'
p20
aS'ON'
p21
aS'CRAZY'
p22
aS'SEND'
p23
aS'FUTURE'
p24
aS'#TO'
p25
aS'KNOW'
p26
aS'ABOUT'
p27
aS'VIDEOTAPE'
p28
aS'POSS-3p:i'
p29
aS'SYMPATHY'
p30
aS'KNEE'
p31
aS'80'
p32
aS'FINE'
p33
aS'REALLY'
p34
aS'TRUE-BITS'
p35
aS'STEAL+'
p36
aS'WITH'
p37
aS'wow'
p38
aS'fs-WHAT'
p39
aS'BUT'
p40
aS'#MPH'
p41
aS'fs-EMAIL'
p42
aS'POSS-1p'
p43
aS'FOR'
p44
aS'IX-1p'
p45
aS'fs-ROCK'
p46
aS'UP-TO-NOW'
p47
aS'IX-3p:i'
p48
aS'ANYTHING'
p49
aS'#A'
p50
aS'NOT'
p51
aS'MAN'
p52
aS'UNKNOWN'
p53
aS'PAGENANT'
p54
aS'MOTORCYCLE'
p55
aS'DECIDE'
p56
aS'cl:5biker riding on one wheel'
p57
aS'#SO'
p58
aS'HIMSELF'
p59
aS'NO'
p60
aS'fs-CSUN'
p61
aS'FRIEND'
p62
aS'DIFFERENT'
p63
aS'cl:1location'
p64
aS'fs-CARE'
p65
aS'REPLY'
p66
aS'fs-CAR'
p67
aS'EXAMPLE'
p68
aS'fs-IS'
p69
aS'WIN'
p70
aS'SPRAIN'
p71
aS'DO'
p72
aS'FEEL'
p73
aS'TWO'
p74
aS'fs-LUCK'
p75
aS'BAD'
p76
aS'fs-ANKLE'
p77
aS'fs-PAUL'
p78
aS'HIT'
p79
aS'TOGETHER'
p80
aS'ONE'
p81
aS'GOOD'
p82
aS'SHOW'
p83
aS'OTHER'
p84
aS'WHEEL'
p85
aS'FROM'
p86
aS'SAME'
p87
aS'FACE'
p88
aS'cl:3person fell off'
p89
a.