(lp0
S'#BUSH'
p1
aS'DRINK'
p2
aS'fs-RODNEY'
p3
aS'THAT'
p4
aS'NAH'
p5
aS'NIGHT'
p6
aS'DEAF'
p7
aS'BACK'
p8
aS'part:indef'
p9
aS'HAVE'
p10
aS'FALL'
p11
aS'ALRIGHT'
p12
aS'FROM-NOW-ON'
p13
aS'SORRY'
p14
aS'CL:1walking around'
p15
aS'TRUE-BUSINESS'
p16
aS'MUST'
p17
aS'#THEN'
p18
aS'fs-LAPD'
p19
aS'CL:5getting object'
p20
aS'MANY'
p21
aS'PEOPLE'
p22
aS'#BUT'
p23
aS'CL:2walking to person'
p24
aS'NEXT'
p25
aS'CL:1writing'
p26
aS'SAY'
p27
aS'IMPORTANT'
p28
aS'PLUS'
p29
aS'FRONT'
p30
aS'CL:1person walking'
p31
aS'fs-STICK'
p32
aS'CHASE'
p33
aS'CONSIDER'
p34
aS'ON'
p35
aS'CLEAR'
p36
aS'CL:5grabbing the arm'
p37
aS'wave'
p38
aS'PAST'
p39
aS'CL:5shape of the object'
p40
aS'#OR'
p41
aS'YEAR'
p42
aS'GO'
p43
aS'PARTY'
p44
aS'CL:1person walking down'
p45
aS'fs-OUT'
p46
aS'PUT'
p47
aS'BECAUSE'
p48
aS'LOOK'
p49
aS'fs:LAPD'
p50
aS'OF'
p51
aS'SIGN'
p52
aS'#CAR'
p53
aS'CONFUSE'
p54
aS'EXPERIENCE'
p55
aS'fs-OFFICERS'
p56
aS'ONLY'
p57
aS'FUTURE'
p58
aS'COLLEGE'
p59
aS'#OF'
p60
aS'READY'
p61
aS'#TO'
p62
aS'KNOW'
p63
aS'TO'
p64
aS'ABOUT'
p65
aS'BCL:Sperson running'
p66
aS'FIVE-MINUTE'
p67
aS'NO+'
p68
aS'POSS-3p:i'
p69
aS'SOME'
p70
aS'FOUR'
p71
aS'fs-NUMB'
p72
aS'REPORT'
p73
aS'CL:5putting the object away'
p74
aS'WASTE'
p75
aS'FINE'
p76
aS'GIRL'
p77
aS'ns-RODNEY'
p78
aS'REALLY'
p79
aS'PULL'
p80
aS'NONE'
p81
aS'BUY'
p82
aS'JUST'
p83
aS'GET'
p84
aS'WITH'
p85
aS'COMMUNICATE'
p86
aS'NEAR'
p87
aS'BUT'
p88
aS'IX-loc:i'
p89
aS'RELIEF'
p90
aS'APPROACH'
p91
aS'POSS-1p'
p92
aS'ns-LAPD'
p93
aS'FINISH'
p94
aS'END'
p95
aS'FORGET'
p96
aS'FOR'
p97
aS'IX-1p'
p98
aS'NOT^KNOW'
p99
aS'TRY'
p100
aS'ns-GOD'
p101
aS'FIVE'
p102
aS'UNDER'
p103
aS'ns-KING'
p104
aS'IX-3p:i'
p105
aS'WHOLE'
p106
aS'AND'
p107
aS'fs-PEE'
p108
aS'LEARN'
p109
aS'ANYTHING'
p110
aS'HOW'
p111
aS'POSITIVE'
p112
aS'FINALLY'
p113
aS'TELL'
p114
aS'etc'
p115
aS'PUMP'
p116
aS'BCL:Srunning'
p117
aS'GO-AHEAD'
p118
aS'TIME'
p119
aS'NOT'
p120
aS'NOW'
p121
aS'#AGE'
p122
aS'CL:5disconnecting the object'
p123
aS'PLAN'
p124
aS'COP'
p125
aS'CL:THUMBusing a lighter'
p126
aS'CL:1walking around to a place'
p127
aS'UNKNOWN'
p128
aS'SHOCK'
p129
aS'GUESS'
p130
aS'TWICE'
p131
aS'LOOK-arc'
p132
aS'SURE'
p133
aS'fs-CLUE'
p134
aS'DECIDE'
p135
aS'HOME'
p136
aS'SIDE'
p137
aS'MISUNDERSTAND'
p138
aS'CL:1walking to person'
p139
aS'ENJOY'
p140
aS'#SO'
p141
aS'who cares'
p142
aS'WORD'
p143
aS'WORSE'
p144
aS'NO'
p145
aS'HOSPITAL'
p146
aS'LIVE'
p147
aS'fs-CSUN'
p148
aS'SOMETHING'
p149
aS'SEE'
p150
aS'NOT^WANT'
p151
aS'HOPE'
p152
aS'PUSH'
p153
aS'CL:1person walking across'
p154
aS'IF'
p155
aS'RIGHT-THERE'
p156
aS'WHY'
p157
aS'FRIEND'
p158
aS'OUT'
p159
aS'AGAIN'
p160
aS'DIFFERENT'
p161
aS'CL:5two people talking'
p162
aS'UPSET'
p163
aS'ANYWAY'
p164
aS'ADMIT'
p165
aS'THEN'
p166
aS'WAY'
p167
aS'NEED'
p168
aS'STOMACH'
p169
aS'HAPPEN'
p170
aS'WALK'
p171
aS'GRAB'
p172
aS'BLUE'
p173
aS'CAN^NOT'
p174
aS'STILL'
p175
aS'DISCONNECT'
p176
aS'APPEAR'
p177
aS'LUCKY'
p178
aS'fs-BLADDER'
p179
aS'IGNORE'
p180
aS'OVER-NIGHT'
p181
aS'BRING'
p182
aS'ns-MIKE'
p183
aS'STUDENT'
p184
aS"CL:Spunching to person's face+"
p185
aS'ONCE'
p186
aS'PUBLIC'
p187
aS'DRUG'
p188
aS'DO'
p189
aS'FEEL'
p190
aS'fs-DRUGS'
p191
aS'#BY'
p192
aS'TWO'
p193
aS'fs-MARKET'
p194
aS'BAD'
p195
aS'BLACK'
p196
aS'CAN'
p197
aS'EXAMPLE'
p198
aS'INFORM'
p199
aS'SITUATION'
p200
aS'WONDER'
p201
aS'HIT'
p202
aS'RECORD'
p203
aS'ARREST'
p204
aS'IX-3p'
p205
aS'OF-COURSE'
p206
aS'NEVER'
p207
aS'WHEN'
p208
aS'TOGETHER'
p209
aS'ONE'
p210
aS'CIGARETTE'
p211
aS'STAND-UP'
p212
aS'PAPER'
p213
aS'fs-VERY'
p214
aS'CL:3person falling'
p215
aS'TEACH'
p216
aS'GOOD'
p217
aS'WHAT'
p218
aS'MAYBE'
p219
aS'#IT'
p220
aS'BATHROOM'
p221
aS'AGAINST'
p222
aS'MORNING'
p223
aS'THING'
p224
aS'CL:1person walking up'
p225
aS'AT'
p226
aS'SMOKE'
p227
aS'IN'
p228
aS'CL:Sunknown'
p229
aS'HOLD'
p230
aS'THINK'
p231
aS'GROUND'
p232
aS'fs-TO'
p233
aS'RIGHT'
p234
aS'FROM'
p235
aS'MAKE'
p236
aS'#UP'
p237
aS'SAME'
p238
aS'IX-2p'
p239
aS'fs-KING'
p240
aS'IX-1p-arc'
p241
aS'#PEN'
p242
aS"WHAT'S-UP"
p243
aS'TAKE'
p244
aS'NOTHING'
p245
aS'HEADACHE'
p246
a.