(lp0
S'BOY'
p1
aS'EVERYONE'
p2
aS'OLDER'
p3
aS'NAH'
p4
aS'DEAF'
p5
aS'BORN'
p6
aS'part:indef'
p7
aS'WANT'
p8
aS'CL:5banging the objects+'
p9
aS'GIRL'
p10
aS'WITH'
p11
aS'EVERYDAY'
p12
aS'TRUE-BUSINESS'
p13
aS'SISTER'
p14
aS'#THEN'
p15
aS'CL:1shape of the object'
p16
aS'MANY'
p17
aS'fs-DANA'
p18
aS'#BUT'
p19
aS'SNEAK'
p20
aS'NEXT'
p21
aS'SAY'
p22
aS'IMPORTANT'
p23
aS'fs-BIB'
p24
aS'SAW'
p25
aS'fs-PANS'
p26
aS'CL:Sgetting the objects'
p27
aS'PAY-ATTENTION'
p28
aS'CRY+'
p29
aS'ANYWAY'
p30
aS'PAST'
p31
aS'OBVIOUS'
p32
aS'fs-TRAY'
p33
aS'NIGHT'
p34
aS'CL:5bigger'
p35
aS'CL:1person walking down'
p36
aS'fs-OUT'
p37
aS'DOCTOR'
p38
aS'FIRST'
p39
aS'MOTHER-FATHER'
p40
aS'JUMP++'
p41
aS'HOUSE'
p42
aS'COMFORTABLE'
p43
aS'FUTURE'
p44
aS'#TO'
p45
aS'ABOUT'
p46
aS'SURE'
p47
aS'HAVE'
p48
aS'POSS-3p:i'
p49
aS'UPSET'
p50
aS'BROTHER'
p51
aS'ACCEPT'
p52
aS'CAN^NOT'
p53
aS'fs-POTS'
p54
aS'CL:4size of the object'
p55
aS'HEARING'
p56
aS'FIND'
p57
aS'REALLY'
p58
aS'CUTE'
p59
aS'#OUT'
p60
aS'PREGNANT'
p61
aS'BUT'
p62
aS'fs-CRIB'
p63
aS'SOMETHING'
p64
aS'LOOK-BACK'
p65
aS'SCREAM'
p66
aS'POSS-1p'
p67
aS'fs-WHEN'
p68
aS'LOVE'
p69
aS'STILL'
p70
aS'GROW-UP'
p71
aS'CL:Sbanging the objects+'
p72
aS'CL:5sound in ear'
p73
aS'UP-TO-NOW'
p74
aS'HALF'
p75
aS'IX-3p:i'
p76
aS'ELSE'
p77
aS'THREE-YEAR-OLD'
p78
aS'SCREAM+'
p79
aS'AND'
p80
aS'HOW'
p81
aS'#AT'
p82
aS'#IT'
p83
aS'NOT'
p84
aS'NOW'
p85
aS'HOPE'
p86
aS'EUROPE'
p87
aS'CL:4tapping to person'
p88
aS'DO'
p89
aS'THAT'
p90
aS'UNKNOWN'
p91
aS'EXCITED+'
p92
aS'KNOW'
p93
aS'DECIDE'
p94
aS'UMM'
p95
aS'HOME'
p96
aS'hoping++'
p97
aS'IX-1p'
p98
aS'NO'
p99
aS'WHOLE'
p100
aS'SEE'
p101
aS'DAY'
p102
aS'ASK'
p103
aS'CL:1person walking across'
p104
aS'ARRIVE'
p105
aS'WHY'
p106
aS'#EVEN'
p107
aS'SIT'
p108
aS'WAIT'
p109
aS'THING'
p110
aS'FOUR-YEAR-OLD'
p111
aS'NAME'
p112
aS'STRANGER'
p113
aS'TELL'
p114
aS'LOOK'
p115
aS'DEPRESS'
p116
aS'NOTICE'
p117
aS'FEEL'
p118
aS'CAN'
p119
aS'fs-DAY'
p120
aS'PICTURE'
p121
aS'WHEN'
p122
aS'TO'
p123
aS'MOTHER'
p124
aS'BECOME'
p125
aS'EAR'
p126
aS'EAT'
p127
aS'DEVIL'
p128
aS'SEE++'
p129
aS'MAYBE'
p130
aS'WARN'
p131
aS'WAKE-UP'
p132
aS'HEAR'
p133
aS'AT'
p134
aS'IN'
p135
aS'IF'
p136
aS'GET'
p137
aS'WATCH'
p138
aS'SAME'
p139
aS'BRING'
p140
aS'ENOUGH'
p141
aS'SLEEP'
p142
aS'CRY++'
p143
aS'CL:5getting the objects'
p144
a.