(dp0
I0
(dp1
S'Annotated'
p2
(lp3
(lp4
S'IX-1p'
p5
aS'480'
p6
aS'640'
p7
aa(lp8
S'punct'
p9
aS'1040'
p10
aa(lp11
S'IX-1p'
p12
aS'1360'
p13
aS'1440'
p14
aa(lp15
S'SURE'
p16
aS'1600'
p17
aS'1840'
p18
aa(lp19
S'IX-2p'
p20
aS'1880'
p21
aS'1920'
p22
aa(lp23
S'NOTICE'
p24
aS'2080'
p25
aS'2600'
p26
aa(lp27
S'IX-3p:i'
p28
aS'2760'
p29
aS'3320'
p30
aa(lp31
g9
aS'3520'
p32
aa(lp33
S'WHAT'
p34
aS'3600'
p35
aS'3840'
p36
aa(lp37
S'IX-3p:i'
p38
aS'4000'
p39
aS'4240'
p40
aasS'EndFrame'
p41
S'4240'
p42
sS'Video'
p43
NsS'Words'
p44
(lp45
g5
ag9
ag12
ag16
ag20
ag24
ag28
ag9
ag34
ag38
asS'English'
p46
S'I am sure you noticed and wondering what happened to my hand.'
p47
sS'StartFrame'
p48
S'0'
p49
ssI1
(dp50
g2
(lp51
(lp52
S'part:indef'
p53
aS'4320'
p54
aS'4600'
p55
aa(lp56
g9
aS'4680'
p57
aa(lp58
S'REALLY'
p59
aS'4760'
p60
aS'5040'
p61
aa(lp62
S'YESTERDAY'
p63
aS'5160'
p64
aS'5640'
p65
aa(lp66
S'IX-1p'
p67
aS'5760'
p68
aS'5800'
p69
aa(lp70
S'WORK'
p71
aS'5880'
p72
aS'6080'
p73
aa(lp74
S'WITH'
p75
aS'6200'
p76
aS'6400'
p77
aa(lp78
S'FRIEND'
p79
aS'6560'
p80
aS'7000'
p81
aa(lp82
S'IX-3p:i'
p83
aS'7120'
p84
aS'7280'
p85
aasg41
S'7280'
p86
sg43
Nsg44
(lp87
g53
ag9
ag59
ag63
ag67
ag71
ag75
ag79
ag83
asg46
S'Yesterday, I worked with my friend.'
p88
sg48
S'4240'
p89
ssI2
(dp90
g2
(lp91
(lp92
S'fs-TONY'
p93
aS'7440'
p94
aS'8160'
p95
aa(lp96
S'IX-1p-pl-2:x/y'
p97
aS'8320'
p98
aS'8480'
p99
aa(lp100
S'GREW-UP'
p101
aS'8640'
p102
aS'8960'
p103
aa(lp104
S'POSS-1p'
p105
aS'9080'
p106
aS'9240'
p107
aa(lp108
S'BEST'
p109
aS'9320'
p110
aS'9440'
p111
aa(lp112
S'FRIEND'
p113
aS'9560'
p114
aS'10000'
p115
aasg41
S'10080'
p116
sg43
Nsg44
(lp117
g93
ag97
ag101
ag105
ag109
ag113
asg46
S'Tony and I grew up best friends.'
p118
sg48
S'7280'
p119
ssI3
(dp120
g2
(lp121
(lp122
S'IX-1p-pl-2:x/y'
p123
aS'10160'
p124
aS'10560'
p125
aa(lp126
S'WORK'
p127
aS'10720'
p128
aS'10880'
p129
aa(lp130
S'LANDSCAPE'
p131
aS'11040'
p132
aS'11520'
p133
aa(lp134
S'fs-LANDSCAPING'
p135
aS'11720'
p136
aS'14080'
p137
aa(lp138
S'IX-1p'
p139
aS'14240'
p140
aS'14560'
p141
aa(lp142
S'part:indef'
p143
aS'14760'
p144
aS'14960'
p145
aasg41
S'14960'
p146
sg43
Nsg44
(lp147
g123
ag127
ag131
ag135
ag139
ag143
asg46
S'We both work for landscape.'
p148
sg48
S'10080'
p149
ssI4
(dp150
g2
(lp151
(lp152
S'IX-1p-pl-2:x/y'
p153
aS'15080'
p154
aS'15440'
p155
aa(lp156
S'CUT'
p157
aS'15760'
p158
aS'16240'
p159
aa(lp160
S'fs-WOOD'
p161
aS'16480'
p162
aS'17600'
p163
aa(lp164
S'fs-CUTTER'
p165
aS'18040'
p166
aS'18680'
p167
aa(lp168
S'SAME'
p169
aS'18760'
p170
aS'19000'
p171
aa(lp172
S'cl:5size of the object'
p173
aS'19120'
p174
aS'19680'
p175
aa(lp176
S'WITH'
p177
aS'19920'
p178
aS'20160'
p179
aa(lp180
S'METAL'
p181
aS'20280'
p182
aS'20600'
p183
aa(lp184
S'CORNER'
p185
aS'20920'
p186
aS'21880'
p187
aasg41
S'21880'
p188
sg43
Nsg44
(lp189
g153
ag157
ag161
ag165
ag169
ag173
ag177
ag181
ag185
asg46
S'We cut the woods through metal corner.'
p190
sg48
S'14960'
p191
ssI5
(dp192
g2
(lp193
(lp194
S'CORNER'
p195
aS'21880'
p196
aS'21920'
p197
aa(lp198
S'REALLY'
p199
aS'22000'
p200
aS'22160'
p201
aa(lp202
S'IX-3p:i'
p203
aS'22240'
p204
aS'22360'
p205
aa(lp206
S'SHARP'
p207
aS'22440'
p208
aS'23000'
p209
aa(lp210
S'cl:ywow'
p211
aS'23120'
p212
aS'23360'
p213
aa(lp214
S'METAL'
p215
aS'23520'
p216
aS'24240'
p217
aa(lp218
S'WITH'
p219
aS'24360'
p220
aS'24680'
p221
aa(lp222
S'BIG'
p223
aS'24760'
p224
aS'25200'
p225
aa(lp226
S'fs-LOG'
p227
aS'25280'
p228
aS'25800'
p229
aa(lp230
S'cl:5size of the object'
p231
aS'25960'
p232
aS'26400'
p233
aasg41
S'26400'
p234
sg43
Nsg44
(lp235
g195
ag199
ag203
ag207
ag211
ag215
ag219
ag223
ag227
ag231
asg46
S'The metal corner was really sharp! It was with big log in.'
p236
sg48
S'21880'
p237
ssI6
(dp238
g2
(lp239
(lp240
S'cl:5size of the object'
p241
aS'26400'
p242
aS'26960'
p243
aa(lp244
S'REALLY'
p245
aS'27080'
p246
aS'27160'
p247
aa(lp248
S'DIFFERENT'
p249
aS'27240'
p250
aS'27480'
p251
aa(lp252
S'SIZE'
p253
aS'27560'
p254
aS'28040'
p255
aa(lp256
S'REALLY'
p257
aS'28360'
p258
aS'28600'
p259
aa(lp260
S'cl:5bunch of them'
p261
aS'28680'
p262
aS'29520'
p263
aasg41
S'29520'
p264
sg43
Nsg44
(lp265
g241
ag245
ag249
ag253
ag257
ag261
asg46
S'There was many different sizes.'
p266
sg48
S'26400'
p267
ssI7
(dp268
g2
(lp269
(lp270
S'REALLY'
p271
aS'29640'
p272
aS'29800'
p273
aa(lp274
S'POSS-1p'
p275
aS'29880'
p276
aS'30040'
p277
aa(lp278
S'BOSS'
p279
aS'30160'
p280
aS'30360'
p281
aa(lp282
S'PRETTY'
p283
aS'30480'
p284
aS'30760'
p285
aa(lp286
S'STRICT'
p287
aS'30840'
p288
aS'31320'
p289
aa(lp290
S'SAME'
p291
aS'31440'
p292
aS'31560'
p293
aasg41
S'31560'
p294
sg43
Nsg44
(lp295
g271
ag275
ag279
ag283
ag287
ag291
asg46
S'My boss is pretty strict.'
p296
sg48
S'29520'
p297
ssI8
(dp298
g2
(lp299
(lp300
S'SAY'
p301
aS'31680'
p302
aS'31800'
p303
aa(lp304
S'come on'
p305
aS'32000'
p306
aS'32240'
p307
aa(lp308
S'MUST'
p309
aS'32320'
p310
aS'32480'
p311
aa(lp312
S'FINISH'
p313
aS'32560'
p314
aS'32760'
p315
aa(lp316
S'#ALL'
p317
aS'32840'
p318
aS'33560'
p319
aa(lp320
S'BEFORE'
p321
aS'33840'
p322
aS'34160'
p323
aa(lp324
S'SUNSET'
p325
aS'34400'
p326
aS'34920'
p327
aasg41
S'34920'
p328
sg43
Nsg44
(lp329
g301
ag305
ag309
ag313
ag317
ag321
ag325
asg46
S'He would tell us to hurry up and finish everything before sunset.'
p330
sg48
S'31560'
p331
ssI9
(dp332
g2
(lp333
(lp334
S'IX-1p'
p335
aS'35000'
p336
aS'35160'
p337
aa(lp338
S'FINE'
p339
aS'35200'
p340
aS'35400'
p341
aa(lp342
S'IX-1p'
p343
aS'35520'
p344
aS'35600'
p345
aa(lp346
S'cl:5moving the object++'
p347
aS'35760'
p348
aS'37920'
p349
aasg41
S'37920'
p350
sg43
Nsg44
(lp351
g335
ag339
ag343
ag347
asg46
S'I did the work as much as I can.'
p352
sg48
S'34920'
p353
ssI10
(dp354
g2
(lp355
(lp356
S'IMPACT'
p357
aS'38040'
p358
aS'38640'
p359
aa(lp360
S'ONE'
p361
aS'38760'
p362
aS'39000'
p363
aa(lp364
S'BIG'
p365
aS'39240'
p366
aS'39640'
p367
aa(lp368
S'fs-LOG'
p369
aS'39680'
p370
aS'39880'
p371
aa(lp372
S'cl:5size of the object'
p373
aS'40040'
p374
aS'40600'
p375
aa(lp376
S'IX-1p'
p377
aS'40720'
p378
aS'40840'
p379
aa(lp380
S'cl:5picking up the object'
p381
aS'41120'
p382
aS'42680'
p383
aa(lp384
S'cl:5dropping the object'
p385
aS'42720'
p386
aS'43640'
p387
aasg41
S'43640'
p388
sg43
Nsg44
(lp389
g357
ag361
ag365
ag369
ag373
ag377
ag381
ag385
asg46
S'There was one big log that I picked up but then I dropped it.'
p390
sg48
S'37920'
p391
ssI11
(dp392
g2
(lp393
(lp394
S'IX-1p'
p395
aS'43760'
p396
aS'43880'
p397
aa(lp398
S'CATCH'
p399
aS'44000'
p400
aS'44880'
p401
aa(lp402
S'GET'
p403
aS'45000'
p404
aS'45080'
p405
aa(lp406
S'#IT'
p407
aS'45120'
p408
aS'45720'
p409
aa(lp410
S'#BACK'
p411
aS'45800'
p412
aS'46120'
p413
aasg41
S'46120'
p414
sg43
Nsg44
(lp415
g395
ag399
ag403
ag407
ag411
asg46
S'I caught and got it back.'
p416
sg48
S'43640'
p417
ssI12
(dp418
g2
(lp419
(lp420
S'BUT'
p421
aS'46240'
p422
aS'46440'
p423
aa(lp424
S'STILL'
p425
aS'46520'
p426
aS'46720'
p427
aa(lp428
S'cl:5holding the object'
p429
aS'46880'
p430
aS'47080'
p431
aa(lp432
S'HIT'
p433
aS'47200'
p434
aS'47920'
p435
aa(lp436
S'METAL'
p437
aS'48160'
p438
aS'48560'
p439
aa(lp440
S'CORNER'
p441
aS'48760'
p442
aS'49600'
p443
aasg41
S'49600'
p444
sg43
Nsg44
(lp445
g421
ag425
ag429
ag433
ag437
ag441
asg46
S'When I got the log and my hand was hitting the metal corner'
p446
sg48
S'46120'
p447
ssI13
(dp448
g2
(lp449
(lp450
S'CORNER'
p451
aS'49640'
p452
aS'49680'
p453
aa(lp454
S'HIT'
p455
aS'50040'
p456
aS'50240'
p457
aa(lp458
g9
aS'50560'
p459
aa(lp460
S'part:indef'
p461
aS'50960'
p462
aS'51240'
p463
aa(lp464
S'REALLY'
p465
aS'51400'
p466
aS'51840'
p467
aa(lp468
S'part:indef'
p469
aS'52000'
p470
aS'52280'
p471
aa(lp472
S'IX-3p:i'
p473
aS'52480'
p474
aS'52720'
p475
aa(lp476
S'wow'
p477
aS'53000'
p478
aS'53400'
p479
aasg41
S'53400'
p480
sg43
Nsg44
(lp481
g451
ag455
ag9
ag461
ag465
ag469
ag473
ag477
asg46
S'My hand got hit and, wow!'
p482
sg48
S'49640'
p483
ssI14
(dp484
g2
(lp485
(lp486
S'LOOK'
p487
aS'53640'
p488
aS'53680'
p489
aa(lp490
S'SAME'
p491
aS'53800'
p492
aS'54000'
p493
aa(lp494
S'IX-3p:i'
p495
aS'54080'
p496
aS'54160'
p497
aa(lp498
S'TRUE-BUSINESS'
p499
aS'54280'
p500
aS'54680'
p501
aa(lp502
S'OFF'
p503
aS'54880'
p504
aS'55400'
p505
aa(lp506
S'IX-1p'
p507
aS'55520'
p508
aS'55680'
p509
aa(lp510
S'part:indef'
p511
aS'55840'
p512
aS'56480'
p513
aasg41
S'56480'
p514
sg43
Nsg44
(lp515
g487
ag491
ag495
ag499
ag503
ag507
ag511
asg46
S'It looks like it would cut my hand off!'
p516
sg48
S'53440'
p517
ssI15
(dp518
g2
(lp519
(lp520
S'IX-3p:i'
p521
aS'56720'
p522
aS'57080'
p523
aa(lp524
S'NOT'
p525
aS'57240'
p526
aS'57280'
p527
aa(lp528
S'FIRST'
p529
aS'57440'
p530
aS'57560'
p531
aa(lp532
S'TIME'
p533
aS'57720'
p534
aS'57840'
p535
aa(lp536
S'SOMEONE'
p537
aS'57960'
p538
aS'58160'
p539
aa(lp540
S'ELSE'
p541
aS'58240'
p542
aS'58600'
p543
aa(lp544
S'TRUE-BUSINESS'
p545
aS'58720'
p546
aS'59160'
p547
aa(lp548
S'CUT'
p549
aS'59240'
p550
aS'59520'
p551
aa(lp552
g9
aS'60200'
p553
aa(lp554
S'POSS-3p:i'
p555
aS'60360'
p556
aS'60480'
p557
aa(lp558
S'cl:1cut'
p559
aS'60960'
p560
aS'61320'
p561
aa(lp562
S'FOR'
p563
aS'61640'
p564
aS'61680'
p565
aa(lp566
S'SAME'
p567
aS'61760'
p568
aS'61920'
p569
aa(lp570
S'POSS-3p:j'
p571
aS'62000'
p572
aS'62160'
p573
aa(lp574
S'MACHINE'
p575
aS'62240'
p576
aS'62880'
p577
aasg41
S'62880'
p578
sg43
Nsg44
(lp579
g521
ag525
ag529
ag533
ag537
ag541
ag545
ag549
ag9
ag555
ag559
ag563
ag567
ag571
ag575
asg46
S'It was not first time accident, there was someone else actually cut his finger off.'
p580
sg48
S'56520'
p581
ssI16
(dp582
g2
(lp583
(lp584
S'STILL'
p585
aS'62920'
p586
aS'63080'
p587
aa(lp588
S'part:indef'
p589
aS'63160'
p590
aS'64200'
p591
aa(lp592
S'ANYWAY'
p593
aS'64440'
p594
aS'64720'
p595
aa(lp596
S'SAME'
p597
aS'64840'
p598
aS'64920'
p599
aa(lp600
S'IX-1p'
p601
aS'65000'
p602
aS'65160'
p603
aa(lp604
S'part:indef'
p605
aS'65280'
p606
aS'65680'
p607
aa(lp608
S'IX-1p'
p609
aS'65760'
p610
aS'65920'
p611
aa(lp612
S'cl:5tapping'
p613
aS'66000'
p614
aS'66280'
p615
aa(lp616
S'fs-TONY'
p617
aS'66400'
p618
aS'66880'
p619
aa(lp620
S'BAD'
p621
aS'67000'
p622
aS'67160'
p623
aa(lp624
S'fs-NEWS'
p625
aS'67280'
p626
aS'67880'
p627
aasg41
S'67880'
p628
sg43
Nsg44
(lp629
g585
ag589
ag593
ag597
ag601
ag605
ag609
ag613
ag617
ag621
ag625
asg46
S'Anyway, I tapped Tony and told him about bad news.'
p630
sg48
S'62920'
p631
ssI17
(dp632
g2
(lp633
(lp634
S'BLOOD++'
p635
aS'68880'
p636
aS'71120'
p637
aa(lp638
S'REALLY'
p639
aS'71360'
p640
aS'71640'
p641
aa(lp642
S'part:indef'
p643
aS'71720'
p644
aS'72200'
p645
aasg41
S'72200'
p646
sg43
Nsg44
(lp647
g635
ag639
ag643
asg46
S'I showed my hand and it was bleeding.'
p648
sg48
S'67920'
p649
ssI18
(dp650
g2
(lp651
(lp652
S'fs-TONY'
p653
aS'72360'
p654
aS'72680'
p655
aa(lp656
S'SAY'
p657
aS'72840'
p658
aS'73000'
p659
aa(lp660
S'part:indef'
p661
aS'73080'
p662
aS'73160'
p663
aa(lp664
S'MUST'
p665
aS'73240'
p666
aS'73400'
p667
aa(lp668
S'GO'
p669
aS'73480'
p670
aS'73600'
p671
aa(lp672
S'HOSPITAL'
p673
aS'73680'
p674
aS'74480'
p675
aa(lp676
S'IX-1p'
p677
aS'74560'
p678
aS'74680'
p679
aa(lp680
S'part:indef'
p681
aS'74760'
p682
aS'75120'
p683
aa(lp684
S'IX-2p'
p685
aS'75280'
p686
aS'75560'
p687
aa(lp688
S'SURE'
p689
aS'75720'
p690
aS'76200'
p691
aasg41
S'76200'
p692
sg43
Nsg44
(lp693
g653
ag657
ag661
ag665
ag669
ag673
ag677
ag681
ag685
ag689
asg46
S'Tony said that I should go to the hospital and I asked, "are you sure?"'
p694
sg48
S'72240'
p695
ssI19
(dp696
g2
(lp697
(lp698
S'IX-3p:i'
p699
aS'76240'
p700
aS'76280'
p701
aa(lp702
S'IX-1p'
p703
aS'76360'
p704
aS'76520'
p705
aa(lp706
S'part:indef'
p707
aS'76600'
p708
aS'77000'
p709
aa(lp710
S'IX-1p'
p711
aS'77080'
p712
aS'77200'
p713
aa(lp714
S'THINK'
p715
aS'77320'
p716
aS'77520'
p717
aa(lp718
S'CAN'
p719
aS'77640'
p720
aS'77800'
p721
aa(lp722
S'BANDAGE'
p723
aS'77960'
p724
aS'78400'
p725
aa(lp726
S'cl:5holding'
p727
aS'78640'
p728
aS'79080'
p729
aa(lp730
S'HOLD'
p731
aS'79320'
p732
aS'79720'
p733
aa(lp734
S'cl:2quotation'
p735
aS'79800'
p736
aS'79960'
p737
aa(lp738
S'PRESSURE'
p739
aS'80200'
p740
aS'80480'
p741
aa(lp742
S'ON'
p743
aS'80520'
p744
aS'80560'
p745
aa(lp746
S'#IT'
p747
aS'80640'
p748
aS'80880'
p749
aa(lp750
S'cl:5holding'
p751
aS'81080'
p752
aS'81280'
p753
aa(lp754
S'FUTURE-NOT'
p755
aS'81480'
p756
aS'82240'
p757
aa(lp758
S'BLOOD'
p759
aS'82560'
p760
aS'82760'
p761
aa(lp762
S'MORE'
p763
aS'82960'
p764
aS'83360'
p765
aasg41
S'83360'
p766
sg43
Nsg44
(lp767
g699
ag703
ag707
ag711
ag715
ag719
ag723
ag727
ag731
ag735
ag739
ag743
ag747
ag751
ag755
ag759
ag763
asg46
S'I thought maybe I could just put bandage on and hold so it wont be bleeding anymore.'
p768
sg48
S'76240'
p769
ssI20
(dp770
g2
(lp771
(lp772
S'REALLY'
p773
aS'83560'
p774
aS'83840'
p775
aa(lp776
S'TRUE-BUSINESS'
p777
aS'83920'
p778
aS'84480'
p779
aa(lp780
S'IX-1p'
p781
aS'84560'
p782
aS'84680'
p783
aa(lp784
S'HOLD'
p785
aS'84960'
p786
aS'85200'
p787
aa(lp788
S'STILL'
p789
aS'85280'
p790
aS'85360'
p791
aa(lp792
S'BLOOD'
p793
aS'85480'
p794
aS'85720'
p795
aa(lp796
S'THROUGH'
p797
aS'85880'
p798
aS'86160'
p799
aa(lp800
S'POSS-1p'
p801
aS'86240'
p802
aS'86320'
p803
aa(lp804
S'SHIRT'
p805
aS'86400'
p806
aS'86920'
p807
aa(lp808
S'IMAGINE'
p809
aS'87040'
p810
aS'87720'
p811
aa(lp812
S'REALLY'
p813
aS'87840'
p814
aS'88040'
p815
aa(lp816
S'part:indef'
p817
aS'88120'
p818
aS'88520'
p819
aasg41
S'88520'
p820
sg43
Nsg44
(lp821
g773
ag777
ag781
ag785
ag789
ag793
ag797
ag801
ag805
ag809
ag813
ag817
asg46
S'I was holding my hand but its still bleeding through my shirt.  Can you imagine that?'
p822
sg48
S'83400'
p823
ssI21
(dp824
g2
(lp825
(lp826
S'part:indef'
p827
aS'88560'
p828
aS'88600'
p829
aa(lp830
S'IX-1p'
p831
aS'88840'
p832
aS'89000'
p833
aa(lp834
S'UNKNOWN'
p835
aS'89080'
p836
aS'89320'
p837
aa(lp838
S'DECIDE'
p839
aS'89440'
p840
aS'89640'
p841
aa(lp842
S'GO'
p843
aS'89760'
p844
aS'89960'
p845
aa(lp846
S'HOSPITAL'
p847
aS'90040'
p848
aS'90760'
p849
aa(lp850
g9
aS'91080'
p851
aa(lp852
S'FINE'
p853
aS'91200'
p854
aS'91360'
p855
aasg41
S'91360'
p856
sg43
Nsg44
(lp857
g827
ag831
ag835
ag839
ag843
ag847
ag9
ag853
asg46
S'So I decided go to the hospital.'
p858
sg48
S'88560'
p859
ssI22
(dp860
g2
(lp861
(lp862
S'IX-1p'
p863
aS'91480'
p864
aS'91640'
p865
aa(lp866
S'TELL'
p867
aS'91680'
p868
aS'91800'
p869
aa(lp870
S'BOSS'
p871
aS'91920'
p872
aS'92320'
p873
aa(lp874
S'part:indef'
p875
aS'92440'
p876
aS'92880'
p877
aa(lp878
S'IX-1p'
p879
aS'92960'
p880
aS'93040'
p881
aa(lp882
S'MUST'
p883
aS'93080'
p884
aS'93120'
p885
aa(lp886
S'GO'
p887
aS'93240'
p888
aS'93600'
p889
aa(lp890
S'IX-3p:i'
p891
aS'93760'
p892
aS'94080'
p893
aa(lp894
S'NEED'
p895
aS'94240'
p896
aS'94360'
p897
aa(lp898
S'STITCH'
p899
aS'94440'
p900
aS'95440'
p901
aa(lp902
g9
aS'95760'
p903
aasg41
S'95880'
p904
sg43
Nsg44
(lp905
g863
ag867
ag871
ag875
ag879
ag883
ag887
ag891
ag895
ag899
ag9
asg46
S'I told my boss that I have to go to hospital because I need stitches.'
p906
sg48
S'91400'
p907
ssI23
(dp908
g2
(lp909
(lp910
S'IX-1p'
p911
aS'96000'
p912
aS'96160'
p913
aa(lp914
S'FINE'
p915
aS'96240'
p916
aS'96720'
p917
aa(lp918
S'GO'
p919
aS'96840'
p920
aS'97120'
p921
aa(lp922
S'HOSPITAL'
p923
aS'97200'
p924
aS'97920'
p925
aa(lp926
g9
aS'98080'
p927
aa(lp928
S'IX-1p'
p929
aS'98200'
p930
aS'98440'
p931
aa(lp932
S'UNKNOWN'
p933
aS'98560'
p934
aS'98600'
p935
aasg41
S'98600'
p936
sg43
Nsg44
(lp937
g911
ag915
ag919
ag923
ag9
ag929
ag933
asg46
S'I went to the hospital.'
p938
sg48
S'95920'
p939
ssI24
(dp940
g2
(lp941
(lp942
S'FINE'
p943
aS'98640'
p944
aS'98680'
p945
aa(lp946
S'UNKNOWN'
p947
aS'98720'
p948
aS'99120'
p949
aa(lp950
S'THINK'
p951
aS'99320'
p952
aS'99520'
p953
aa(lp954
S'POP-UP'
p955
aS'99600'
p956
aS'100240'
p957
aa(lp958
S'IX-1p'
p959
aS'100400'
p960
aS'100640'
p961
aa(lp962
S'cl:5picking the object'
p963
aS'101120'
p964
aS'101480'
p965
aa(lp966
S'POSS-1p'
p967
aS'101680'
p968
aS'101720'
p969
aa(lp970
S'WALLET'
p971
aS'101800'
p972
aS'102360'
p973
aa(lp974
S'cl:5opening the object'
p975
aS'102640'
p976
aS'102880'
p977
aasg41
S'102880'
p978
sg43
Nsg44
(lp979
g943
ag947
ag951
ag955
ag959
ag963
ag967
ag971
ag975
asg46
S'Just thought of something, so I pulled my wallet out and checked.'
p980
sg48
S'98640'
p981
ssI25
(dp982
g2
(lp983
(lp984
S'cl:5opening the object'
p985
aS'102920'
p986
aS'103600'
p987
aa(lp988
S'NOT'
p989
aS'103760'
p990
aS'103840'
p991
aa(lp992
S'HAVE'
p993
aS'103880'
p994
aS'104040'
p995
aa(lp996
S'POSS-1p'
p997
aS'104160'
p998
aS'104360'
p999
aa(lp1000
S'INSURANCE'
p1001
aS'104440'
p1002
aS'104960'
p1003
aa(lp1004
S'INFORMATION'
p1005
aS'105120'
p1006
aS'105520'
p1007
aa(lp1008
S'WITH'
p1009
aS'105680'
p1010
aS'105880'
p1011
aa(lp1012
S'IX-1p'
p1013
aS'106040'
p1014
aS'106320'
p1015
aa(lp1016
g9
aS'106840'
p1017
aa(lp1018
S'IX-1p'
p1019
aS'106960'
p1020
aS'107080'
p1021
aa(lp1022
S'part:indef'
p1023
aS'107320'
p1024
aS'108440'
p1025
aasg41
S'108440'
p1026
sg43
Nsg44
(lp1027
g985
ag989
ag993
ag997
ag1001
ag1005
ag1009
ag1013
ag9
ag1019
ag1023
asg46
S'I realized I didnt have my insurance information with me.'
p1028
sg48
S'102920'
p1029
ssI26
(dp1030
g2
(lp1031
(lp1032
S'part:indef'
p1033
aS'108480'
p1034
aS'108520'
p1035
aa(lp1036
S'#SO'
p1037
aS'108600'
p1038
aS'108840'
p1039
aa(lp1040
S'IX-1p'
p1041
aS'108920'
p1042
aS'108960'
p1043
aa(lp1044
S'cl:3car pulling over'
p1045
aS'109120'
p1046
aS'109560'
p1047
aa(lp1048
S'PAY-PHONE'
p1049
aS'109680'
p1050
aS'110760'
p1051
aa(lp1052
S'fs-TONY'
p1053
aS'110920'
p1054
aS'111360'
p1055
aa(lp1056
g9
aS'111880'
p1057
aa(lp1058
S'POSS-3p'
p1059
aS'112000'
p1060
aS'112120'
p1061
aa(lp1062
S'BOSS'
p1063
aS'112320'
p1064
aS'112760'
p1065
aasg41
S'112760'
p1066
sg43
Nsg44
(lp1067
g1033
ag1037
ag1041
ag1045
ag1049
ag1053
ag9
ag1059
ag1063
asg46
S'So I pulled over the car and Tony called his boss on pay phone.'
p1068
sg48
S'108480'
p1069
ssI27
(dp1070
g2
(lp1071
(lp1072
S'SAY'
p1073
aS'112880'
p1074
aS'113120'
p1075
aa(lp1076
S'part:indef'
p1077
aS'113280'
p1078
aS'113560'
p1079
aa(lp1080
S'FUTURE'
p1081
aS'113760'
p1082
aS'113920'
p1083
aa(lp1084
S'POSS-3p'
p1085
aS'114080'
p1086
aS'114280'
p1087
aa(lp1088
S'COMPANY'
p1089
aS'114360'
p1090
aS'114520'
p1091
aa(lp1092
S'COVER'
p1093
aS'114680'
p1094
aS'115160'
p1095
aa(lp1096
S'POSS-1p'
p1097
aS'115840'
p1098
aS'116160'
p1099
aa(lp1100
S'IX-3p:i'
p1101
aS'116600'
p1102
aS'116800'
p1103
aa(lp1104
S'STITCH'
p1105
aS'116960'
p1106
aS'117600'
p1107
aa(lp1108
S'UNKNOWN'
p1109
aS'117720'
p1110
aS'117840'
p1111
aa(lp1112
S'EVERYTHING'
p1113
aS'118000'
p1114
aS'118800'
p1115
aasg41
S'118800'
p1116
sg43
Nsg44
(lp1117
g1073
ag1077
ag1081
ag1085
ag1089
ag1093
ag1097
ag1101
ag1105
ag1109
ag1113
asg46
S'He asked if company will cover the insurance for stitches on my finger and everything.'
p1118
sg48
S'112800'
p1119
ssI28
(dp1120
g2
(lp1121
(lp1122
S'IX-3p:i'
p1123
aS'119080'
p1124
aS'119240'
p1125
aa(lp1126
S'SAY'
p1127
aS'119360'
p1128
aS'119400'
p1129
aa(lp1130
S'YES'
p1131
aS'119520'
p1132
aS'119840'
p1133
aa(lp1134
S'GO-AHEAD'
p1135
aS'120000'
p1136
aS'120280'
p1137
aa(lp1138
S'USE'
p1139
aS'120400'
p1140
aS'120640'
p1141
aa(lp1142
S'POSS-1p'
p1143
aS'120760'
p1144
aS'120840'
p1145
aa(lp1146
S'NAME'
p1147
aS'120960'
p1148
aS'121520'
p1149
aa(lp1150
S'IX-1p'
p1151
aS'121760'
p1152
aS'121960'
p1153
aa(lp1154
S'part:indef'
p1155
aS'122080'
p1156
aS'122280'
p1157
aa(lp1158
S'WHEW'
p1159
aS'122360'
p1160
aS'122880'
p1161
aa(lp1162
S'FINE'
p1163
aS'122920'
p1164
aS'123280'
p1165
aasg41
S'123280'
p1166
sg43
Nsg44
(lp1167
g1123
ag1127
ag1131
ag1135
ag1139
ag1143
ag1147
ag1151
ag1155
ag1159
ag1163
asg46
S'he said "yes, go ahead use my name. " I was relief.'
p1168
sg48
S'118840'
p1169
ssI29
(dp1170
g2
(lp1171
(lp1172
S'IF'
p1173
aS'123360'
p1174
aS'123560'
p1175
aa(lp1176
S'TRUE-BUSINESS'
p1177
aS'123720'
p1178
aS'124160'
p1179
aa(lp1180
S'IX-3p:i'
p1181
aS'124240'
p1182
aS'124560'
p1183
aa(lp1184
S'NOT'
p1185
aS'124680'
p1186
aS'124800'
p1187
aa(lp1188
S'PAY'
p1189
aS'124880'
p1190
aS'125320'
p1191
aa(lp1192
S'THEN'
p1193
aS'125400'
p1194
aS'125640'
p1195
aa(lp1196
S'IX-1p'
p1197
aS'125720'
p1198
aS'125840'
p1199
aa(lp1200
S'part:indef'
p1201
aS'126000'
p1202
aS'126360'
p1203
aasg41
S'126360'
p1204
sg43
Nsg44
(lp1205
g1173
ag1177
ag1181
ag1185
ag1189
ag1193
ag1197
ag1201
asg46
S"If he won't pay for it, then...."
p1206
sg48
S'123320'
p1207
ssI30
(dp1208
g2
(lp1209
(lp1210
S'MAYBE'
p1211
aS'126640'
p1212
aS'127040'
p1213
aa(lp1214
S'MUST'
p1215
aS'127160'
p1216
aS'127360'
p1217
aa(lp1218
S'SEND'
p1219
aS'127520'
p1220
aS'127800'
p1221
aa(lp1222
S'BILL'
p1223
aS'128000'
p1224
aS'128280'
p1225
aa(lp1226
S'fs-BILL'
p1227
aS'128360'
p1228
aS'128720'
p1229
aa(lp1230
S'TO'
p1231
aS'128760'
p1232
aS'128920'
p1233
aa(lp1234
S'POSS-1p'
p1235
aS'129040'
p1236
aS'129120'
p1237
aa(lp1238
S'MOTHER-FATHER'
p1239
aS'129200'
p1240
aS'129480'
p1241
aa(lp1242
S'POSS-3p:i'
p1243
aS'129640'
p1244
aS'129720'
p1245
aa(lp1246
S'REALLY'
p1247
aS'129880'
p1248
aS'130040'
p1249
aa(lp1250
S'HAPPY'
p1251
aS'130120'
p1252
aS'130640'
p1253
aa(lp1254
S'part:indef'
p1255
aS'130840'
p1256
aS'131240'
p1257
aasg41
S'131240'
p1258
sg43
Nsg44
(lp1259
g1211
ag1215
ag1219
ag1223
ag1227
ag1231
ag1235
ag1239
ag1243
ag1247
ag1251
ag1255
asg46
S"They maybe have to send the bill to my parents. My parents wouldn't be very happy."
p1260
sg48
S'126400'
p1261
ssI31
(dp1262
g2
(lp1263
(lp1264
S'#SO'
p1265
aS'131360'
p1266
aS'131560'
p1267
aa(lp1268
S'UNKNOWN'
p1269
aS'131680'
p1270
aS'131880'
p1271
aa(lp1272
S'IX-1p'
p1273
aS'132040'
p1274
aS'132200'
p1275
aa(lp1276
S'GO'
p1277
aS'132280'
p1278
aS'132680'
p1279
aa(lp1280
S'HOSPITAL'
p1281
aS'132760'
p1282
aS'133280'
p1283
aa(lp1284
S'IX-1p'
p1285
aS'133400'
p1286
aS'133480'
p1287
aa(lp1288
S'part:indef'
p1289
aS'133640'
p1290
aS'133960'
p1291
aa(lp1292
S'REALLY'
p1293
aS'134080'
p1294
aS'134480'
p1295
aa(lp1296
S'KNOW'
p1297
aS'134840'
p1298
aS'135040'
p1299
aa(lp1300
S'HOSPITAL'
p1301
aS'135160'
p1302
aS'135520'
p1303
aa(lp1304
S'TEND'
p1305
aS'135640'
p1306
aS'135840'
p1307
aa(lp1308
S'FOREVER'
p1309
aS'135920'
p1310
aS'136720'
p1311
aasg41
S'136720'
p1312
sg43
Nsg44
(lp1313
g1265
ag1269
ag1273
ag1277
ag1281
ag1285
ag1289
ag1293
ag1297
ag1301
ag1305
ag1309
asg46
S'I went to the hospital but you know how hospitals are, tend to take forever.'
p1314
sg48
S'131280'
p1315
ssI32
(dp1316
g2
(lp1317
(lp1318
S'cl:3sit down'
p1319
aS'136920'
p1320
aS'137120'
p1321
aa(lp1322
S'WORK-OUT'
p1323
aS'137240'
p1324
aS'137640'
p1325
aa(lp1326
S'INSURANCE'
p1327
aS'137760'
p1328
aS'138520'
p1329
aa(lp1330
S'part:indef'
p1331
aS'138560'
p1332
aS'139120'
p1333
aa(lp1334
S'POSS-2p:i'
p1335
aS'139280'
p1336
aS'139400'
p1337
aa(lp1338
S'INFORMATION'
p1339
aS'139480'
p1340
aS'139920'
p1341
aa(lp1342
S'IN'
p1343
aS'140040'
p1344
aS'140280'
p1345
aa(lp1346
S'fs-DATE'
p1347
aS'140400'
p1348
aS'141440'
p1349
aa(lp1350
S'#SS'
p1351
aS'141560'
p1352
aS'141880'
p1353
aa(lp1354
S'NUMBER'
p1355
aS'142040'
p1356
aS'142640'
p1357
aa(lp1358
S'REALLY'
p1359
aS'142760'
p1360
aS'142920'
p1361
aa(lp1362
S'cl:1list'
p1363
aS'143000'
p1364
aS'143400'
p1365
aa(lp1366
S'UNKNOWN'
p1367
aS'143640'
p1368
aS'143960'
p1369
aasg41
S'143960'
p1370
sg43
Nsg44
(lp1371
g1319
ag1323
ag1327
ag1331
ag1335
ag1339
ag1343
ag1347
ag1351
ag1355
ag1359
ag1363
ag1367
asg46
S'I had to sit down and have to make sure they would get information about insurance, date, my social security number, etc.'
p1372
sg48
S'136760'
p1373
ssI33
(dp1374
g2
(lp1375
(lp1376
S'IX-1p'
p1377
aS'144040'
p1378
aS'144080'
p1379
aa(lp1380
S'cl:3sit down'
p1381
aS'144240'
p1382
aS'144480'
p1383
aa(lp1384
S'WAIT++'
p1385
aS'144600'
p1386
aS'145640'
p1387
aa(lp1388
S'FINALLY'
p1389
aS'145800'
p1390
aS'146480'
p1391
aa(lp1392
S'IX-1p'
p1393
aS'146600'
p1394
aS'146680'
p1395
aa(lp1396
S'GO-IN'
p1397
aS'146760'
p1398
aS'147160'
p1399
aa(lp1400
g9
aS'148040'
p1401
aasg41
S'148040'
p1402
sg43
Nsg44
(lp1403
g1377
ag1381
ag1385
ag1389
ag1393
ag1397
ag9
asg46
S'I sat down and waiting for long time.  Then, I finally got in.'
p1404
sg48
S'144000'
p1405
ssI34
(dp1406
g2
(lp1407
(lp1408
S'REALLY'
p1409
aS'148120'
p1410
aS'148280'
p1411
aa(lp1412
S'IX-3p'
p1413
aS'148320'
p1414
aS'148680'
p1415
aa(lp1416
S'FAST'
p1417
aS'149120'
p1418
aS'149360'
p1419
aa(lp1420
S'fs-EXPRESS'
p1421
aS'149480'
p1422
aS'150520'
p1423
aa(lp1424
g9
aS'151400'
p1425
aa(lp1426
S'CARE'
p1427
aS'151520'
p1428
aS'151920'
p1429
aa(lp1430
S'EMERGENCY'
p1431
aS'152000'
p1432
aS'152240'
p1433
aa(lp1434
S'HOSPITAL'
p1435
aS'152400'
p1436
aS'152880'
p1437
aa(lp1438
S'AREA'
p1439
aS'152960'
p1440
aS'153320'
p1441
aasg41
S'153633'
p1442
sg43
Nsg44
(lp1443
g1409
ag1413
ag1417
ag1421
ag9
ag1427
ag1431
ag1435
ag1439
asg46
S'I was in express care area in the hospital where it is for emergency only.'
p1444
sg48
S'148080'
p1445
ssI35
(dp1446
g2
(lp1447
(lp1448
S'HAVE'
p1449
aS'153760'
p1450
aS'153960'
p1451
aa(lp1452
S'DIFFERENT'
p1453
aS'154040'
p1454
aS'154280'
p1455
aa(lp1456
S'BUILDING'
p1457
aS'154320'
p1458
aS'154600'
p1459
aa(lp1460
S'cl:5many places'
p1461
aS'154680'
p1462
aS'155240'
p1463
aa(lp1464
S'IX-1p'
p1465
aS'155440'
p1466
aS'155600'
p1467
aa(lp1468
S'GO-IN'
p1469
aS'155640'
p1470
aS'156240'
p1471
aa(lp1472
S'IX-1p'
p1473
aS'156360'
p1474
aS'156520'
p1475
aa(lp1476
S'IX-1p'
p1477
aS'156920'
p1478
aS'157000'
p1479
aa(lp1480
S'WAIT++'
p1481
aS'157240'
p1482
aS'157920'
p1483
aasg41
S'157920'
p1484
sg43
Nsg44
(lp1485
g1449
ag1453
ag1457
ag1461
ag1465
ag1469
ag1473
ag1477
ag1481
asg46
S'I went in one of few buildings and waiting.'
p1486
sg48
S'153640'
p1487
ssI36
(dp1488
g2
(lp1489
(lp1490
S'REALLY'
p1491
aS'158040'
p1492
aS'158120'
p1493
aa(lp1494
S'BLOOD'
p1495
aS'158240'
p1496
aS'158760'
p1497
aa(lp1498
S'STILL'
p1499
aS'158800'
p1500
aS'158920'
p1501
aa(lp1502
S'BLOOD++'
p1503
aS'159000'
p1504
aS'160240'
p1505
aa(lp1506
S'IX-1p'
p1507
aS'160400'
p1508
aS'160560'
p1509
aa(lp1510
S'WAIT++'
p1511
aS'160680'
p1512
aS'162040'
p1513
aasg41
S'162040'
p1514
sg43
Nsg44
(lp1515
g1491
ag1495
ag1499
ag1503
ag1507
ag1511
asg46
S'Really,  it was still bleeding and I was waiting for long time.'
p1516
sg48
S'157960'
p1517
ssI37
(dp1518
g2
(lp1519
(lp1520
S'REALLY'
p1521
aS'162200'
p1522
aS'162280'
p1523
aa(lp1524
S'ONE'
p1525
aS'162400'
p1526
aS'162520'
p1527
aa(lp1528
S'DOCTOR'
p1529
aS'162640'
p1530
aS'163160'
p1531
aa(lp1532
S'cl:1walking toward us'
p1533
aS'163280'
p1534
aS'164080'
p1535
aa(lp1536
S'REALLY'
p1537
aS'164160'
p1538
aS'164280'
p1539
aa(lp1540
S'POSS-3p:i'
p1541
aS'164400'
p1542
aS'164480'
p1543
aa(lp1544
S'NEW+'
p1545
aS'164680'
p1546
aS'165360'
p1547
aa(lp1548
S'JUST'
p1549
aS'165520'
p1550
aS'166040'
p1551
aa(lp1552
S'JOIN'
p1553
aS'166440'
p1554
aS'166920'
p1555
aa(lp1556
S'POSS-3p:i'
p1557
aS'167040'
p1558
aS'167160'
p1559
aa(lp1560
S'fs-STAFF'
p1561
aS'167240'
p1562
aS'167960'
p1563
aasg41
S'168160'
p1564
sg43
Nsg44
(lp1565
g1521
ag1525
ag1529
ag1533
ag1537
ag1541
ag1545
ag1549
ag1553
ag1557
ag1561
asg46
S'A doctor came in, he is new and just joined the staff.'
p1566
sg48
S'162080'
p1567
ssI38
(dp1568
g2
(lp1569
(lp1570
S'IX-1p'
p1571
aS'168280'
p1572
aS'168480'
p1573
aa(lp1574
S'LOOK'
p1575
aS'168560'
p1576
aS'168760'
p1577
aa(lp1578
g9
aS'169640'
p1579
aa(lp1580
S'IX-1p'
p1581
aS'169760'
p1582
aS'169880'
p1583
aa(lp1584
S'TRUST'
p1585
aS'169960'
p1586
aS'170200'
p1587
aa(lp1588
S'YOUNG'
p1589
aS'170280'
p1590
aS'170640'
p1591
aa(lp1592
S'DOCTOR'
p1593
aS'170720'
p1594
aS'170880'
p1595
aa(lp1596
S'IX-1p'
p1597
aS'170960'
p1598
aS'171080'
p1599
aa(lp1600
S'PREFER'
p1601
aS'171160'
p1602
aS'171240'
p1603
aa(lp1604
S'OLDER'
p1605
aS'171320'
p1606
aS'171840'
p1607
aa(lp1608
S'BUT'
p1609
aS'171920'
p1610
aS'172160'
p1611
aa(lp1612
S'IX-1p'
p1613
aS'172240'
p1614
aS'172320'
p1615
aa(lp1616
S'UNKNOWN'
p1617
aS'172400'
p1618
aS'172640'
p1619
aa(lp1620
S'FINE'
p1621
aS'172840'
p1622
aS'173120'
p1623
aasg41
S'173120'
p1624
sg43
Nsg44
(lp1625
g1571
ag1575
ag9
ag1581
ag1585
ag1589
ag1593
ag1597
ag1601
ag1605
ag1609
ag1613
ag1617
ag1621
asg46
S"I would rather to have an older doctor, because I don't know if I could trust young doctors.  But that is fine."
p1626
sg48
S'168200'
p1627
ssI39
(dp1628
g2
(lp1629
(lp1630
S'LOOK'
p1631
aS'173360'
p1632
aS'173760'
p1633
aa(lp1634
S'nah'
p1635
aS'175320'
p1636
aS'175640'
p1637
aa(lp1638
S'IX-1p'
p1639
aS'175720'
p1640
aS'175840'
p1641
aa(lp1642
S'CALL'
p1643
aS'176000'
p1644
aS'176480'
p1645
aa(lp1646
S'FOR'
p1647
aS'176600'
p1648
aS'176800'
p1649
aa(lp1650
S'SECOND'
p1651
aS'176880'
p1652
aS'177040'
p1653
aa(lp1654
S'OPINION'
p1655
aS'177160'
p1656
aS'177760'
p1657
aasg41
S'177840'
p1658
sg43
Nsg44
(lp1659
g1631
ag1635
ag1639
ag1643
ag1647
ag1651
ag1655
asg46
S'He looked at my finger and said he would like to call for second opinion.'
p1660
sg48
S'173160'
p1661
ssI40
(dp1662
g2
(lp1663
(lp1664
S'IX-1p'
p1665
aS'178000'
p1666
aS'178320'
p1667
aa(lp1668
S'LOOK'
p1669
aS'178440'
p1670
aS'178520'
p1671
aa(lp1672
S'part:indef'
p1673
aS'178720'
p1674
aS'179040'
p1675
aa(lp1676
g9
aS'179480'
p1677
aa(lp1678
S'FINE'
p1679
aS'179640'
p1680
aS'179680'
p1681
aa(lp1682
S'IX-1p'
p1683
aS'179760'
p1684
aS'179960'
p1685
aa(lp1686
S'WAIT++'
p1687
aS'180080'
p1688
aS'181520'
p1689
aasg41
S'181520'
p1690
sg43
Nsg44
(lp1691
g1665
ag1669
ag1673
ag9
ag1679
ag1683
ag1687
asg46
S'I had to wait for a while again.'
p1692
sg48
S'177880'
p1693
ssI41
(dp1694
g2
(lp1695
(lp1696
S'REALLY'
p1697
aS'181680'
p1698
aS'181800'
p1699
aa(lp1700
S'part:indef'
p1701
aS'181960'
p1702
aS'182360'
p1703
aa(lp1704
g9
aS'182880'
p1705
aa(lp1706
S'IX-1p'
p1707
aS'183000'
p1708
aS'183240'
p1709
aa(lp1710
g9
aS'184600'
p1711
aa(lp1712
S'IX-1p'
p1713
aS'184800'
p1714
aS'185080'
p1715
aa(lp1716
S'ALREADY'
p1717
aS'185240'
p1718
aS'185640'
p1719
aa(lp1720
S'SAME'
p1721
aS'185720'
p1722
aS'186080'
p1723
aa(lp1724
S'FOUR-THIRTY'
p1725
aS'186200'
p1726
aS'187240'
p1727
aa(lp1728
S'FIVE'
p1729
aS'187320'
p1730
aS'187520'
p1731
aasg41
S'187520'
p1732
sg43
Nsg44
(lp1733
g1697
ag1701
ag9
ag1707
ag9
ag1713
ag1717
ag1721
ag1725
ag1729
asg46
S"I arrived at two o'clock and it is already 4:30 to 5 o'clock."
p1734
sg48
S'181560'
p1735
ssI42
(dp1736
g2
(lp1737
(lp1738
S'FIVE'
p1739
aS'187560'
p1740
aS'187600'
p1741
aa(lp1742
S'IX-1p'
p1743
aS'187720'
p1744
aS'187760'
p1745
aa(lp1746
S'STILL'
p1747
aS'187800'
p1748
aS'187920'
p1749
aa(lp1750
S'YET'
p1751
aS'188000'
p1752
aS'188240'
p1753
aa(lp1754
S'GET'
p1755
aS'188320'
p1756
aS'188440'
p1757
aa(lp1758
S'STITCH'
p1759
aS'188520'
p1760
aS'189240'
p1761
aa(lp1762
S'SAME'
p1763
aS'189360'
p1764
aS'189440'
p1765
aa(lp1766
S'IX-1p'
p1767
aS'189560'
p1768
aS'189760'
p1769
aa(lp1770
S'part:indef'
p1771
aS'189880'
p1772
aS'190360'
p1773
aasg41
S'190360'
p1774
sg43
Nsg44
(lp1775
g1739
ag1743
ag1747
ag1751
ag1755
ag1759
ag1763
ag1767
ag1771
asg46
S'I still have not get my finger stitches yet.'
p1776
sg48
S'187560'
p1777
ssI43
(dp1778
g2
(lp1779
(lp1780
S'IX-1p'
p1781
aS'190520'
p1782
aS'190600'
p1783
aa(lp1784
S'HOPE'
p1785
aS'190680'
p1786
aS'190840'
p1787
aa(lp1788
S'IX-3p:i'
p1789
aS'190960'
p1790
aS'191200'
p1791
aa(lp1792
S'NOT'
p1793
aS'191280'
p1794
aS'191320'
p1795
aa(lp1796
S'BECOME'
p1797
aS'191480'
p1798
aS'191800'
p1799
aa(lp1800
S'fs-DRY'
p1801
aS'191920'
p1802
aS'192640'
p1803
aa(lp1804
S'DRY'
p1805
aS'192720'
p1806
aS'193040'
p1807
aa(lp1808
S'TRUE-BUSINESS'
p1809
aS'193160'
p1810
aS'193520'
p1811
aa(lp1812
S'UNKNOWN'
p1813
aS'193840'
p1814
aS'194440'
p1815
aa(lp1816
S'UNKNOWN'
p1817
aS'194520'
p1818
aS'194760'
p1819
aa(lp1820
S'FINE'
p1821
aS'194800'
p1822
aS'195120'
p1823
aa(lp1824
S'IX-1p'
p1825
aS'195240'
p1826
aS'195360'
p1827
aa(lp1828
S'WAIT++'
p1829
aS'195440'
p1830
aS'196040'
p1831
aasg41
S'196040'
p1832
sg43
Nsg44
(lp1833
g1781
ag1785
ag1789
ag1793
ag1797
ag1801
ag1805
ag1809
ag1813
ag1817
ag1821
ag1825
ag1829
asg46
S'I hope my finger didnt get dry however, I was still waiting.'
p1834
sg48
S'190400'
p1835
ssI44
(dp1836
g2
(lp1837
(lp1838
S'FINALLY'
p1839
aS'196200'
p1840
aS'196720'
p1841
aa(lp1842
S'IX-3p:i'
p1843
aS'196800'
p1844
aS'197000'
p1845
aa(lp1846
S'ONE'
p1847
aS'197200'
p1848
aS'197440'
p1849
aa(lp1850
S'OLDER'
p1851
aS'197600'
p1852
aS'198120'
p1853
aa(lp1854
S'MAN'
p1855
aS'198280'
p1856
aS'198680'
p1857
aa(lp1858
S'IX-3p'
p1859
aS'198840'
p1860
aS'198920'
p1861
aa(lp1862
S'cl:1field'
p1863
aS'199000'
p1864
aS'199520'
p1865
aa(lp1866
S'PLASTIC'
p1867
aS'199680'
p1868
aS'200000'
p1869
aa(lp1870
S'SURGERON'
p1871
aS'200120'
p1872
aS'200880'
p1873
aa(lp1874
S'cl:1person walking toward to us'
p1875
aS'201200'
p1876
aS'201640'
p1877
aasg41
S'201640'
p1878
sg43
Nsg44
(lp1879
g1839
ag1843
ag1847
ag1851
ag1855
ag1859
ag1863
ag1867
ag1871
ag1875
asg46
S'Finally, an older man who is plastic surgeron came in.'
p1880
sg48
S'196080'
p1881
ssI45
(dp1882
g2
(lp1883
(lp1884
S'IX-1p'
p1885
aS'201840'
p1886
aS'201920'
p1887
aa(lp1888
S'LOOK'
p1889
aS'202000'
p1890
aS'202400'
p1891
aa(lp1892
S'FEEL'
p1893
aS'202480'
p1894
aS'202680'
p1895
aa(lp1896
S'FUNNY'
p1897
aS'202800'
p1898
aS'202920'
p1899
aa(lp1900
S'WHY'
p1901
aS'203000'
p1902
aS'203080'
p1903
aa(lp1904
S'PLASTIC'
p1905
aS'203400'
p1906
aS'203840'
p1907
aa(lp1908
S'SURGEON'
p1909
aS'203960'
p1910
aS'204840'
p1911
aa(lp1912
S'DO'
p1913
aS'204920'
p1914
aS'205120'
p1915
aa(lp1916
S'STITCH'
p1917
aS'205200'
p1918
aS'205520'
p1919
aa(lp1920
S'ON'
p1921
aS'205640'
p1922
aS'205800'
p1923
aa(lp1924
S'IX-1p'
p1925
aS'205880'
p1926
aS'206080'
p1927
aasg41
S'206080'
p1928
sg43
Nsg44
(lp1929
g1885
ag1889
ag1893
ag1897
ag1901
ag1905
ag1909
ag1913
ag1917
ag1921
ag1925
asg46
S'I felt funny, why would plastic surgeon do stitches on me?'
p1930
sg48
S'201680'
p1931
ssI46
(dp1932
g2
(lp1933
(lp1934
S'IX-1p'
p1935
aS'206200'
p1936
aS'206320'
p1937
aa(lp1938
S'THINK'
p1939
aS'206480'
p1940
aS'206640'
p1941
aa(lp1942
S'REGULAR'
p1943
aS'206800'
p1944
aS'207160'
p1945
aa(lp1946
S'DOCTOR'
p1947
aS'207280'
p1948
aS'207520'
p1949
aa(lp1950
S'#OR'
p1951
aS'207640'
p1952
aS'207840'
p1953
aa(lp1954
S'MAYBE'
p1955
aS'207920'
p1956
aS'208280'
p1957
aa(lp1958
S'#EVEN'
p1959
aS'208400'
p1960
aS'208680'
p1961
aa(lp1962
S'NURSE'
p1963
aS'208800'
p1964
aS'209080'
p1965
aa(lp1966
S'CAN'
p1967
aS'209240'
p1968
aS'209280'
p1969
aa(lp1970
S'DO'
p1971
aS'209360'
p1972
aS'209480'
p1973
aa(lp1974
S'#IT'
p1975
aS'209560'
p1976
aS'210080'
p1977
aa(lp1978
S'part:indef'
p1979
aS'210280'
p1980
aS'210960'
p1981
aa(lp1982
S'SAME'
p1983
aS'211000'
p1984
aS'211080'
p1985
aa(lp1986
S'IX-1p'
p1987
aS'211160'
p1988
aS'211440'
p1989
aa(lp1990
S'#OR'
p1991
aS'211720'
p1992
aS'211840'
p1993
aa(lp1994
S'DOCTOR'
p1995
aS'212040'
p1996
aS'212200'
p1997
aa(lp1998
S'ASSISTANT'
p1999
aS'212480'
p2000
aS'212760'
p2001
aa(lp2002
S'part:indef'
p2003
aS'212920'
p2004
aS'213040'
p2005
aa(lp2006
S'#EVEN'
p2007
aS'213200'
p2008
aS'213560'
p2009
aa(lp2010
S'MAYBE'
p2011
aS'213680'
p2012
aS'213800'
p2013
aasg41
S'213840'
p2014
sg43
Nsg44
(lp2015
g1935
ag1939
ag1943
ag1947
ag1951
ag1955
ag1959
ag1963
ag1967
ag1971
ag1975
ag1979
ag1983
ag1987
ag1991
ag1995
ag1999
ag2003
ag2007
ag2011
asg46
S"I thought some regular doctor, nurse or even doctor's assistant would do it."
p2016
sg48
S'206120'
p2017
ssI47
(dp2018
g2
(lp2019
(lp2020
S'BUT'
p2021
aS'213960'
p2022
aS'214320'
p2023
aa(lp2024
S'part:indef'
p2025
aS'214520'
p2026
aS'215040'
p2027
aa(lp2028
S'SAME'
p2029
aS'215120'
p2030
aS'215320'
p2031
aa(lp2032
S'IX-1p'
p2033
aS'215400'
p2034
aS'215600'
p2035
aa(lp2036
S'part:indef'
p2037
aS'215720'
p2038
aS'216440'
p2039
aa(lp2040
S'IX-3p:i'
p2041
aS'216480'
p2042
aS'216600'
p2043
aa(lp2044
S'SAY'
p2045
aS'216680'
p2046
aS'216840'
p2047
aa(lp2048
S'BETTER'
p2049
aS'216960'
p2050
aS'217080'
p2051
aa(lp2052
S'DOWN'
p2053
aS'217200'
p2054
aS'217480'
p2055
aa(lp2056
S'#X-RAY'
p2057
aS'217600'
p2058
aS'218360'
p2059
aasg41
S'218400'
p2060
sg43
Nsg44
(lp2061
g2021
ag2025
ag2029
ag2033
ag2037
ag2041
ag2045
ag2049
ag2053
ag2057
asg46
S'He told me to go downstair for x-ray.'
p2062
sg48
S'213880'
p2063
ssI48
(dp2064
g2
(lp2065
(lp2066
S'WANT'
p2067
aS'218560'
p2068
aS'218680'
p2069
aa(lp2070
S'CHECK'
p2071
aS'218760'
p2072
aS'219120'
p2073
aa(lp2074
S'IF'
p2075
aS'219200'
p2076
aS'219440'
p2077
aa(lp2078
S'HAVE'
p2079
aS'219520'
p2080
aS'219720'
p2081
aa(lp2082
S'SOME'
p2083
aS'219840'
p2084
aS'220040'
p2085
aa(lp2086
S'#AIR'
p2087
aS'220160'
p2088
aS'220600'
p2089
aa(lp2090
S'IN'
p2091
aS'220840'
p2092
aS'221240'
p2093
aa(lp2094
S'IX-3p:i'
p2095
aS'221320'
p2096
aS'221840'
p2097
aa(lp2098
S'WHY'
p2099
aS'222040'
p2100
aS'222200'
p2101
aa(lp2102
S'FUTURE'
p2103
aS'222320'
p2104
aS'222360'
p2105
aa(lp2106
S'CAUSE'
p2107
aS'222480'
p2108
aS'222720'
p2109
aa(lp2110
S'INFECTION'
p2111
aS'222840'
p2112
aS'223640'
p2113
aasg41
S'223640'
p2114
sg43
Nsg44
(lp2115
g2067
ag2071
ag2075
ag2079
ag2083
ag2087
ag2091
ag2095
ag2099
ag2103
ag2107
ag2111
asg46
S'He wanted to check if I have some air in my finger which may cause infection.'
p2116
sg48
S'218440'
p2117
ssI49
(dp2118
g2
(lp2119
(lp2120
S'THAT'
p2121
aS'223800'
p2122
aS'223920'
p2123
aa(lp2124
S'KIND'
p2125
aS'224080'
p2126
aS'224200'
p2127
aa(lp2128
S'#OF'
p2129
aS'224280'
p2130
aS'224480'
p2131
aa(lp2132
S'CUT'
p2133
aS'224760'
p2134
aS'225200'
p2135
aa(lp2136
S'REALLY'
p2137
aS'225400'
p2138
aS'225760'
p2139
aa(lp2140
g9
aS'225920'
p2141
aa(lp2142
S'CUT'
p2143
aS'226040'
p2144
aS'226560'
p2145
aa(lp2146
S'POSS-1p'
p2147
aS'226600'
p2148
aS'226680'
p2149
aa(lp2150
S'fs-JOINT'
p2151
aS'226880'
p2152
aS'227720'
p2153
aa(lp2154
S'BONE'
p2155
aS'228120'
p2156
aS'228400'
p2157
aa(lp2158
S'IX-3p:i'
p2159
aS'228720'
p2160
aS'229040'
p2161
aa(lp2162
S'AFTER'
p2163
aS'229240'
p2164
aS'229480'
p2165
aa(lp2166
S'#X-RAY'
p2167
aS'229560'
p2168
aS'230400'
p2169
aa(lp2170
S'RESULT'
p2171
aS'230560'
p2172
aS'231280'
p2173
aasg41
S'231280'
p2174
sg43
Nsg44
(lp2175
g2121
ag2125
ag2129
ag2133
ag2137
ag9
ag2143
ag2147
ag2151
ag2155
ag2159
ag2163
ag2167
ag2171
asg46
S'After my x-ray result, it showed that my finger was deep cut and cut my joint bone.'
p2176
sg48
S'223680'
p2177
ssI50
(dp2178
g2
(lp2179
(lp2180
S'SAY'
p2181
aS'231440'
p2182
aS'231520'
p2183
aa(lp2184
S'EXPLAIN'
p2185
aS'231640'
p2186
aS'231960'
p2187
aa(lp2188
S'wow'
p2189
aS'232120'
p2190
aS'232280'
p2191
aa(lp2192
S'IX-3p:i'
p2193
aS'232320'
p2194
aS'232440'
p2195
aa(lp2196
S'LUCKY'
p2197
aS'232560'
p2198
aS'233040'
p2199
aa(lp2200
S'NOT'
p2201
aS'233080'
p2202
aS'233240'
p2203
aa(lp2204
S'CUT'
p2205
aS'233360'
p2206
aS'233600'
p2207
aa(lp2208
S'MORE'
p2209
aS'233720'
p2210
aS'233960'
p2211
aa(lp2212
S'CUT'
p2213
aS'234120'
p2214
aS'234360'
p2215
aa(lp2216
S'#SO'
p2217
aS'234440'
p2218
aS'234560'
p2219
aa(lp2220
S'IX-1p'
p2221
aS'234680'
p2222
aS'234880'
p2223
aa(lp2224
S'LOSE'
p2225
aS'235040'
p2226
aS'235360'
p2227
aa(lp2228
S'cl:5object felling off'
p2229
aS'235600'
p2230
aS'236480'
p2231
aa(lp2232
S'IX-1p'
p2233
aS'236760'
p2234
aS'237040'
p2235
aa(lp2236
S'LOOK'
p2237
aS'237160'
p2238
aS'237320'
p2239
aa(lp2240
S'relief'
p2241
aS'237400'
p2242
aS'237800'
p2243
aasg41
S'237800'
p2244
sg43
Nsg44
(lp2245
g2181
ag2185
ag2189
ag2193
ag2197
ag2201
ag2205
ag2209
ag2213
ag2217
ag2221
ag2225
ag2229
ag2233
ag2237
ag2241
asg46
S'He said that I am very lucky not to get cut that deep or else I would lose my finger. I thought whew.'
p2246
sg48
S'231320'
p2247
ssI51
(dp2248
g2
(lp2249
(lp2250
S'FINE'
p2251
aS'237920'
p2252
aS'238360'
p2253
aa(lp2254
S'IX-1p'
p2255
aS'238480'
p2256
aS'238640'
p2257
aa(lp2258
S'cl:1walking up'
p2259
aS'238880'
p2260
aS'239520'
p2261
aa(lp2262
S'GIFT'
p2263
aS'239680'
p2264
aS'240080'
p2265
aa(lp2266
S'PLASTIC'
p2267
aS'240240'
p2268
aS'240400'
p2269
aa(lp2270
S'SURGEON'
p2271
aS'240520'
p2272
aS'241200'
p2273
aa(lp2274
S'POSS-1p'
p2275
aS'241280'
p2276
aS'241400'
p2277
aa(lp2278
S'#X-RAY'
p2279
aS'241560'
p2280
aS'241920'
p2281
aa(lp2282
S'RESULT'
p2283
aS'242160'
p2284
aS'242600'
p2285
aasg41
S'242760'
p2286
sg43
Nsg44
(lp2287
g2251
ag2255
ag2259
ag2263
ag2267
ag2271
ag2275
ag2279
ag2283
asg46
S'I went up back to give plastic surgeon my X-Ray result.'
p2288
sg48
S'237840'
p2289
ssI52
(dp2290
g2
(lp2291
(lp2292
S'UNKNOWN'
p2293
aS'242840'
p2294
aS'243040'
p2295
aa(lp2296
S'IX-3p:i'
p2297
aS'243160'
p2298
aS'243240'
p2299
aa(lp2300
S'SAY'
p2301
aS'243360'
p2302
aS'243440'
p2303
aa(lp2304
S'FINALLY'
p2305
aS'243640'
p2306
aS'243840'
p2307
aa(lp2308
S'UNKNOWN'
p2309
aS'243920'
p2310
aS'244000'
p2311
aa(lp2312
S'FINE'
p2313
aS'244080'
p2314
aS'244400'
p2315
aa(lp2316
S'READY++'
p2317
aS'244480'
p2318
aS'245080'
p2319
aa(lp2320
S'SET-UP++'
p2321
aS'245440'
p2322
aS'246440'
p2323
aa(lp2324
S'UNKNOWN'
p2325
aS'246640'
p2326
aS'247240'
p2327
aasg41
S'247400'
p2328
sg43
Nsg44
(lp2329
g2293
ag2297
ag2301
ag2305
ag2309
ag2313
ag2317
ag2321
ag2325
asg46
S'He said finally. Then, He got things ready.'
p2330
sg48
S'242800'
p2331
ssI53
(dp2332
g2
(lp2333
(lp2334
S'GET'
p2335
aS'247560'
p2336
aS'247680'
p2337
aa(lp2338
S'SCISSOR'
p2339
aS'247760'
p2340
aS'248360'
p2341
aa(lp2342
S'STRING'
p2343
aS'248960'
p2344
aS'249680'
p2345
aa(lp2346
S'METAL'
p2347
aS'249800'
p2348
aS'249960'
p2349
aa(lp2350
S'REALLY'
p2351
aS'250120'
p2352
aS'250200'
p2353
aa(lp2354
S'IX-1p'
p2355
aS'250320'
p2356
aS'250400'
p2357
aa(lp2358
S'LOOK'
p2359
aS'250480'
p2360
aS'250600'
p2361
aa(lp2362
S'METAL'
p2363
aS'250960'
p2364
aS'251920'
p2365
aa(lp2366
S'THICK'
p2367
aS'252200'
p2368
aS'252480'
p2369
aa(lp2370
S'STRING'
p2371
aS'252560'
p2372
aS'253040'
p2373
aa(lp2374
S'IX-1p'
p2375
aS'253120'
p2376
aS'253200'
p2377
aa(lp2378
S'LOOK'
p2379
aS'253280'
p2380
aS'253360'
p2381
aa(lp2382
S'wow'
p2383
aS'253440'
p2384
aS'254160'
p2385
aasg41
S'254160'
p2386
sg43
Nsg44
(lp2387
g2335
ag2339
ag2343
ag2347
ag2351
ag2355
ag2359
ag2363
ag2367
ag2371
ag2375
ag2379
ag2383
asg46
S'He got scissor, strings and metal.  When I was looking at the metal, its really thick string, wow!'
p2388
sg48
S'247440'
p2389
ssI54
(dp2390
g2
(lp2391
(lp2392
S'#SO'
p2393
aS'254240'
p2394
aS'254400'
p2395
aa(lp2396
S'IX-3p:i'
p2397
aS'254520'
p2398
aS'255280'
p2399
aa(lp2400
S'REALLY'
p2401
aS'255440'
p2402
aS'255720'
p2403
aa(lp2404
S'SHOT++'
p2405
aS'256120'
p2406
aS'257160'
p2407
aa(lp2408
S'FEW'
p2409
aS'257240'
p2410
aS'257480'
p2411
aa(lp2412
S'TIME'
p2413
aS'257640'
p2414
aS'257760'
p2415
aa(lp2416
S'SHOT++'
p2417
aS'257840'
p2418
aS'258640'
p2419
aa(lp2420
S'IX-1p'
p2421
aS'258720'
p2422
aS'258760'
p2423
aasg41
S'258760'
p2424
sg43
Nsg44
(lp2425
g2393
ag2397
ag2401
ag2405
ag2409
ag2413
ag2417
ag2421
asg46
S'So he shot all over my hand few times.'
p2426
sg48
S'254200'
p2427
ssI55
(dp2428
g2
(lp2429
(lp2430
S'IX-1p'
p2431
aS'258840'
p2432
aS'259000'
p2433
aa(lp2434
S'part:indef'
p2435
aS'259160'
p2436
aS'259240'
p2437
aa(lp2438
S'BECOME'
p2439
aS'259360'
p2440
aS'259480'
p2441
aa(lp2442
S'fs-NUMB'
p2443
aS'259640'
p2444
aS'260200'
p2445
aa(lp2446
S'IX-1p'
p2447
aS'260560'
p2448
aS'260680'
p2449
aa(lp2450
S'IX-3p:i'
p2451
aS'261600'
p2452
aS'262000'
p2453
aa(lp2454
S'STITCH++'
p2455
aS'262120'
p2456
aS'263200'
p2457
aasg41
S'263200'
p2458
sg43
Nsg44
(lp2459
g2431
ag2435
ag2439
ag2443
ag2447
ag2451
ag2455
asg46
S'My hand became numb while stitching.'
p2460
sg48
S'258800'
p2461
ssI56
(dp2462
g2
(lp2463
(lp2464
S'IX-1p'
p2465
aS'263360'
p2466
aS'263560'
p2467
aa(lp2468
S'CAN'
p2469
aS'263760'
p2470
aS'263840'
p2471
aa(lp2472
S'FEEL'
p2473
aS'264000'
p2474
aS'264800'
p2475
aa(lp2476
S'PULL'
p2477
aS'264920'
p2478
aS'266000'
p2479
aa(lp2480
S'STITCH'
p2481
aS'266160'
p2482
aS'266280'
p2483
aa(lp2484
S'SAME'
p2485
aS'266360'
p2486
aS'266680'
p2487
aa(lp2488
S'STITCH'
p2489
aS'266800'
p2490
aS'266960'
p2491
aa(lp2492
S'cl:2quotation'
p2493
aS'267160'
p2494
aS'267280'
p2495
aa(lp2496
S'TIE'
p2497
aS'267480'
p2498
aS'267920'
p2499
aa(lp2500
S'POSS-2p'
p2501
aS'268040'
p2502
aS'268080'
p2503
aa(lp2504
S'SHOE'
p2505
aS'268200'
p2506
aS'268560'
p2507
aasg41
S'268680'
p2508
sg43
Nsg44
(lp2509
g2465
ag2469
ag2473
ag2477
ag2481
ag2485
ag2489
ag2493
ag2497
ag2501
ag2505
asg46
S'I can feel stitches as pulling, same feeling as when you tie your shoes.'
p2510
sg48
S'263240'
p2511
ssI57
(dp2512
g2
(lp2513
(lp2514
S'FINISH'
p2515
aS'272240'
p2516
aS'272760'
p2517
aa(lp2518
S'part:indef'
p2519
aS'272880'
p2520
aS'273040'
p2521
aa(lp2522
S'cl:5wrapping up++'
p2523
aS'273320'
p2524
aS'274160'
p2525
aa(lp2526
S'#THEN'
p2527
aS'274280'
p2528
aS'274520'
p2529
aa(lp2530
S'IX-1p'
p2531
aS'274600'
p2532
aS'274800'
p2533
aa(lp2534
S'part:indef'
p2535
aS'275000'
p2536
aS'275240'
p2537
aasg41
S'275320'
p2538
sg43
Nsg44
(lp2539
g2515
ag2519
ag2523
ag2527
ag2531
ag2535
asg46
S'When it is finished, he wrapped around my finger.'
p2540
sg48
S'271880'
p2541
ssI58
(dp2542
g2
(lp2543
(lp2544
S'IX-3p'
p2545
aS'275440'
p2546
aS'275480'
p2547
aa(lp2548
S'SAY'
p2549
aS'275560'
p2550
aS'275720'
p2551
aa(lp2552
S'GIFT'
p2553
aS'275880'
p2554
aS'276160'
p2555
aa(lp2556
S'EXPLAIN'
p2557
aS'276280'
p2558
aS'276600'
p2559
aa(lp2560
S'SAY'
p2561
aS'276800'
p2562
aS'276920'
p2563
aa(lp2564
S'no'
p2565
aS'277160'
p2566
aS'277480'
p2567
aa(lp2568
S'IX-2p'
p2569
aS'277560'
p2570
aS'277800'
p2571
aa(lp2572
S'CAN-NOT'
p2573
aS'277920'
p2574
aS'278160'
p2575
aa(lp2576
S'GET'
p2577
aS'278240'
p2578
aS'278360'
p2579
aa(lp2580
S'WET'
p2581
aS'278480'
p2582
aS'279000'
p2583
aasg41
S'279000'
p2584
sg43
Nsg44
(lp2585
g2545
ag2549
ag2553
ag2557
ag2561
ag2565
ag2569
ag2573
ag2577
ag2581
asg46
S'He gave me the instruction and said "you can not get wet."'
p2586
sg48
S'275360'
p2587
ssI59
(dp2588
g2
(lp2589
(lp2590
S'cl:1list'
p2591
aS'279200'
p2592
aS'279480'
p2593
aa(lp2594
S'IX-2p'
p2595
aS'279600'
p2596
aS'279880'
p2597
aa(lp2598
S'UNKNOWN'
p2599
aS'280200'
p2600
aS'280240'
p2601
aa(lp2602
S'IX-2p'
p2603
aS'280320'
p2604
aS'280560'
p2605
aa(lp2606
S'SHOWER'
p2607
aS'280680'
p2608
aS'281120'
p2609
aa(lp2610
S'MUST'
p2611
aS'281280'
p2612
aS'281400'
p2613
aa(lp2614
S'USE'
p2615
aS'281480'
p2616
aS'281640'
p2617
aa(lp2618
S'PLASTIC'
p2619
aS'281840'
p2620
aS'282400'
p2621
aa(lp2622
S'fs-BAG'
p2623
aS'282480'
p2624
aS'282880'
p2625
aa(lp2626
S'cl:sputting the object on'
p2627
aS'283000'
p2628
aS'284040'
p2629
aasg41
S'284600'
p2630
sg43
Nsg44
(lp2631
g2591
ag2595
ag2599
ag2603
ag2607
ag2611
ag2615
ag2619
ag2623
ag2627
asg46
S'Second, when you take shower, you will need to put your hand in plastic bag.'
p2632
sg48
S'279040'
p2633
ssI60
(dp2634
g2
(lp2635
(lp2636
S'#SO'
p2637
aS'284760'
p2638
aS'285000'
p2639
aa(lp2640
S'part:indef'
p2641
aS'285240'
p2642
aS'286080'
p2643
aa(lp2644
S'MUST'
p2645
aS'286240'
p2646
aS'286440'
p2647
aa(lp2648
S'EXPLAIN'
p2649
aS'286640'
p2650
aS'287080'
p2651
aa(lp2652
S'cl:5etc'
p2653
aS'287160'
p2654
aS'287480'
p2655
aa(lp2656
S'EVERYTHING'
p2657
aS'287680'
p2658
aS'287960'
p2659
aa(lp2660
S'IX-1p'
p2661
aS'288120'
p2662
aS'288240'
p2663
aa(lp2664
S'FINE'
p2665
aS'288320'
p2666
aS'288520'
p2667
aa(lp2668
S'UNKNOWN'
p2669
aS'288560'
p2670
aS'288680'
p2671
aasg41
S'288680'
p2672
sg43
Nsg44
(lp2673
g2637
ag2641
ag2645
ag2649
ag2653
ag2657
ag2661
ag2665
ag2669
asg46
S'He exlained everything and I said fine.'
p2674
sg48
S'284640'
p2675
ssI61
(dp2676
g2
(lp2677
(lp2678
S'IX-1p'
p2679
aS'288800'
p2680
aS'288960'
p2681
aa(lp2682
S'FINALLY'
p2683
aS'289120'
p2684
aS'289240'
p2685
aa(lp2686
S'ARRIVE'
p2687
aS'289360'
p2688
aS'289560'
p2689
aa(lp2690
S'HOME'
p2691
aS'289680'
p2692
aS'290000'
p2693
aa(lp2694
S'SEVEN-THIRTY'
p2695
aS'290160'
p2696
aS'290800'
p2697
aa(lp2698
S'IX-1p'
p2699
aS'291040'
p2700
aS'291200'
p2701
aa(lp2702
S'UNKNOWN'
p2703
aS'291320'
p2704
aS'291600'
p2705
aasg41
S'291600'
p2706
sg43
Nsg44
(lp2707
g2679
ag2683
ag2687
ag2691
ag2695
ag2699
ag2703
asg46
S'I finally arrived home at 7:30.'
p2708
sg48
S'288720'
p2709
ssI62
(dp2710
g2
(lp2711
(lp2712
S'REALLY'
p2713
aS'291760'
p2714
aS'291840'
p2715
aa(lp2716
S'IX-1p'
p2717
aS'291920'
p2718
aS'292000'
p2719
aa(lp2720
S'MUST'
p2721
aS'292040'
p2722
aS'292080'
p2723
aa(lp2724
S'SHOWER'
p2725
aS'292120'
p2726
aS'292280'
p2727
aa(lp2728
S'IX-1p'
p2729
aS'292400'
p2730
aS'292480'
p2731
aa(lp2732
S'WORK'
p2733
aS'292560'
p2734
aS'292760'
p2735
aa(lp2736
S'ALL-DAY'
p2737
aS'292880'
p2738
aS'293160'
p2739
aa(lp2740
S'PLUS'
p2741
aS'293320'
p2742
aS'293440'
p2743
aa(lp2744
S'BLOOD'
p2745
aS'293560'
p2746
aS'294040'
p2747
aa(lp2748
S'cl:5all over on the shirt'
p2749
aS'294120'
p2750
aS'294480'
p2751
aa(lp2752
S'EVERYWHERE'
p2753
aS'294600'
p2754
aS'295000'
p2755
aa(lp2756
S'ON'
p2757
aS'295080'
p2758
aS'295240'
p2759
aa(lp2760
S'IX-1p'
p2761
aS'295400'
p2762
aS'295640'
p2763
aasg41
S'295640'
p2764
sg43
Nsg44
(lp2765
g2713
ag2717
ag2721
ag2725
ag2729
ag2733
ag2737
ag2741
ag2745
ag2749
ag2753
ag2757
ag2761
asg46
S'Really, I have to take shower because I was working all day, and plus blood all over on me.'
p2766
sg48
S'291640'
p2767
ssI63
(dp2768
g2
(lp2769
(lp2770
S'#SO'
p2771
aS'295760'
p2772
aS'295880'
p2773
aa(lp2774
S'UNKNOWN'
p2775
aS'296080'
p2776
aS'296480'
p2777
aa(lp2778
S'IX-1p'
p2779
aS'296600'
p2780
aS'296800'
p2781
aa(lp2782
S'IN'
p2783
aS'296920'
p2784
aS'297160'
p2785
aa(lp2786
S'SHOWER'
p2787
aS'297520'
p2788
aS'298040'
p2789
aa(lp2790
S'UNKNOWN'
p2791
aS'298200'
p2792
aS'298280'
p2793
aa(lp2794
S'IX-1p'
p2795
aS'298480'
p2796
aS'298840'
p2797
aa(lp2798
S'UNKNOWN'
p2799
aS'299040'
p2800
aS'299160'
p2801
aa(lp2802
S'IX-1p'
p2803
aS'299240'
p2804
aS'299320'
p2805
aa(lp2806
S'cl:spulling on the object'
p2807
aS'299480'
p2808
aS'300000'
p2809
aa(lp2810
S'TWO'
p2811
aS'300400'
p2812
aS'300720'
p2813
aa(lp2814
S'fs-BAGS'
p2815
aS'300840'
p2816
aS'301240'
p2817
aa(lp2818
S'PULL-ON'
p2819
aS'301400'
p2820
aS'301960'
p2821
aa(lp2822
S'#BE'
p2823
aS'302080'
p2824
aS'302240'
p2825
aa(lp2826
S'SAFE'
p2827
aS'302360'
p2828
aS'302840'
p2829
aasg41
S'302840'
p2830
sg43
Nsg44
(lp2831
g2771
ag2775
ag2779
ag2783
ag2787
ag2791
ag2795
ag2799
ag2803
ag2807
ag2811
ag2815
ag2819
ag2823
ag2827
asg46
S'So I went in the shower and put two bags on my hand to be safe.'
p2832
sg48
S'295680'
p2833
ssI64
(dp2834
g2
(lp2835
(lp2836
S'IX-1p'
p2837
aS'302920'
p2838
aS'303120'
p2839
aa(lp2840
S'WRAP'
p2841
aS'303200'
p2842
aS'303480'
p2843
aa(lp2844
S'WITH'
p2845
aS'303600'
p2846
aS'303800'
p2847
aa(lp2848
S'RUBBER'
p2849
aS'304000'
p2850
aS'304480'
p2851
aa(lp2852
S'WRAP-AROUND'
p2853
aS'304720'
p2854
aS'305560'
p2855
aa(lp2856
S'IX-1p'
p2857
aS'305840'
p2858
aS'305920'
p2859
aa(lp2860
S'WALK'
p2861
aS'306080'
p2862
aS'306240'
p2863
aa(lp2864
S'IN'
p2865
aS'306360'
p2866
aS'306480'
p2867
aa(lp2868
S'SHOWER'
p2869
aS'306600'
p2870
aS'307280'
p2871
aasg41
S'307320'
p2872
sg43
Nsg44
(lp2873
g2837
ag2841
ag2845
ag2849
ag2853
ag2857
ag2861
ag2865
ag2869
asg46
S'I wrapped around my hand with rubber band and walked into the shower.'
p2874
sg48
S'302880'
p2875
ssI65
(dp2876
g2
(lp2877
(lp2878
S'IX-1p'
p2879
aS'307480'
p2880
aS'307760'
p2881
aa(lp2882
S'UNKNOWN'
p2883
aS'307880'
p2884
aS'308400'
p2885
aa(lp2886
S'WATER'
p2887
aS'308560'
p2888
aS'308920'
p2889
aa(lp2890
S'cl:4running'
p2891
aS'309120'
p2892
aS'309280'
p2893
aa(lp2894
S'WASH'
p2895
aS'309360'
p2896
aS'310400'
p2897
aa(lp2898
S'UNKNOWN'
p2899
aS'310480'
p2900
aS'310960'
p2901
aa(lp2902
S'LEAVE'
p2903
aS'311120'
p2904
aS'311360'
p2905
aa(lp2906
S'IX-3p'
p2907
aS'311520'
p2908
aS'311600'
p2909
aa(lp2910
S'CAN-NOT'
p2911
aS'311680'
p2912
aS'311800'
p2913
aa(lp2914
S'USE'
p2915
aS'311920'
p2916
aS'312080'
p2917
aa(lp2918
S'IX-3p:i'
p2919
aS'312240'
p2920
aS'312520'
p2921
aa(lp2922
S'IX-1p'
p2923
aS'312640'
p2924
aS'312800'
p2925
aa(lp2926
S'part:indef'
p2927
aS'312960'
p2928
aS'313840'
p2929
aasg41
S'313840'
p2930
sg43
Nsg44
(lp2931
g2879
ag2883
ag2887
ag2891
ag2895
ag2899
ag2903
ag2907
ag2911
ag2915
ag2919
ag2923
ag2927
asg46
S'While water running, I had to leave my arm out since I could not use it.'
p2932
sg48
S'307360'
p2933
ssI66
(dp2934
g2
(lp2935
(lp2936
S'IX-1p'
p2937
aS'313960'
p2938
aS'314040'
p2939
aa(lp2940
S'SHAMPOO'
p2941
aS'314240'
p2942
aS'314640'
p2943
aa(lp2944
S'fs-SHAMPOO'
p2945
aS'314840'
p2946
aS'315640'
p2947
aa(lp2948
S'SHAMPOO'
p2949
aS'315720'
p2950
aS'316080'
p2951
aa(lp2952
S'IX-1p'
p2953
aS'316280'
p2954
aS'316360'
p2955
aa(lp2956
S'cl:5picking the object up'
p2957
aS'316560'
p2958
aS'317320'
p2959
aa(lp2960
S'cl:5dumping the object'
p2961
aS'317480'
p2962
aS'318200'
p2963
aasg41
S'320120'
p2964
sg43
Nsg44
(lp2965
g2937
ag2941
ag2945
ag2949
ag2953
ag2957
ag2961
asg46
S'I picked the shampoo and dump it on my hand.'
p2966
sg48
S'313880'
p2967
ssI67
(dp2968
g2
(lp2969
(lp2970
S'IX-1p'
p2971
aS'320360'
p2972
aS'320480'
p2973
aa(lp2974
S'NOT'
p2975
aS'320560'
p2976
aS'320600'
p2977
aa(lp2978
S'THINK'
p2979
aS'320680'
p2980
aS'321440'
p2981
aa(lp2982
S'IX-3p:i'
p2983
aS'321680'
p2984
aS'321960'
p2985
aa(lp2986
g9
aS'322640'
p2987
aa(lp2988
S'cl:5liquid all over'
p2989
aS'322880'
p2990
aS'323640'
p2991
aa(lp2992
S'IX-1p'
p2993
aS'323800'
p2994
aS'324000'
p2995
aa(lp2996
S'part:indef'
p2997
aS'324120'
p2998
aS'324520'
p2999
aasg41
S'324920'
p3000
sg43
Nsg44
(lp3001
g2971
ag2975
ag2979
ag2983
ag9
ag2989
ag2993
ag2997
asg46
S'I was not thinking.  The liquid was all over on my hand.'
p3002
sg48
S'320160'
p3003
ssI68
(dp3004
g2
(lp3005
(lp3006
S'cl:1walking over'
p3007
aS'325080'
p3008
aS'325440'
p3009
aa(lp3010
S'GET'
p3011
aS'325520'
p3012
aS'325720'
p3013
aa(lp3014
S'ANOTHER'
p3015
aS'325840'
p3016
aS'326120'
p3017
aa(lp3018
S'#BAG'
p3019
aS'326240'
p3020
aS'326640'
p3021
aa(lp3022
S'cl:spulling over'
p3023
aS'326760'
p3024
aS'327600'
p3025
aa(lp3026
S'THEN'
p3027
aS'327680'
p3028
aS'327720'
p3029
aasg41
S'327720'
p3030
sg43
Nsg44
(lp3031
g3007
ag3011
ag3015
ag3019
ag3023
ag3027
asg46
S'I walked over and got another bag to put on my hand.'
p3032
sg48
S'324960'
p3033
ssI69
(dp3034
g2
(lp3035
(lp3036
S'cl:1walking back'
p3037
aS'327840'
p3038
aS'328200'
p3039
aa(lp3040
S'SHOWER'
p3041
aS'328400'
p3042
aS'329120'
p3043
aa(lp3044
S'WASH'
p3045
aS'329360'
p3046
aS'329800'
p3047
aa(lp3048
S'FEEL'
p3049
aS'329880'
p3050
aS'330040'
p3051
aa(lp3052
S'GOOD'
p3053
aS'330120'
p3054
aS'330720'
p3055
aasg41
S'330720'
p3056
sg43
Nsg44
(lp3057
g3037
ag3041
ag3045
ag3049
ag3053
asg46
S'I walked back in the shower and washed.  I felt good.'
p3058
sg48
S'327760'
p3059
ssI70
(dp3060
g2
(lp3061
(lp3062
S'#THEN'
p3063
aS'330840'
p3064
aS'331080'
p3065
aa(lp3066
S'SAME'
p3067
aS'331480'
p3068
aS'331600'
p3069
aa(lp3070
S'IX-1p'
p3071
aS'332040'
p3072
aS'332120'
p3073
aa(lp3074
S'BED'
p3075
aS'332320'
p3076
aS'332960'
p3077
aa(lp3078
S'ALL-NIGHT'
p3079
aS'333160'
p3080
aS'333320'
p3081
aa(lp3082
S'READY'
p3083
aS'333440'
p3084
aS'333560'
p3085
aa(lp3086
S'FOR'
p3087
aS'333680'
p3088
aS'333800'
p3089
aa(lp3090
S'WORK'
p3091
aS'333880'
p3092
aS'334080'
p3093
aa(lp3094
S'TODAY'
p3095
aS'334200'
p3096
aS'334400'
p3097
aa(lp3098
S'ALL-DAY'
p3099
aS'334560'
p3100
aS'334920'
p3101
aasg41
S'336920'
p3102
sg43
Nsg44
(lp3103
g3063
ag3067
ag3071
ag3075
ag3079
ag3083
ag3087
ag3091
ag3095
ag3099
asg46
S'Then, I went to bed all night to get ready for work all day today.'
p3104
sg48
S'330760'
p3105
ss.