(dp0
I0
(dp1
S'Annotated'
p2
(lp3
(lp4
S'FINE'
p5
aS'280'
p6
aS'1000'
p7
aa(lp8
S'ONE'
p9
aS'1400'
p10
aS'1600'
p11
aa(lp12
S'MAN'
p13
aS'1800'
p14
aS'1920'
p15
aa(lp16
S'ONE'
p17
aS'2040'
p18
aS'2240'
p19
aa(lp20
S'FRIEND'
p21
aS'2400'
p22
aS'2560'
p23
aa(lp24
S'GOOD'
p25
aS'2680'
p26
aS'2840'
p27
aa(lp28
S'FRIEND'
p29
aS'2920'
p30
aS'3360'
p31
aa(lp32
S'POSS-1p'
p33
aS'3440'
p34
aS'3840'
p35
aa(lp36
S'IX-3p:i'
p37
aS'3920'
p38
aS'4000'
p39
aa(lp40
S'fs-PAUL'
p41
aS'4280'
p42
aS'5680'
p43
aasS'EndFrame'
p44
S'5680'
p45
sS'Video'
p46
NsS'Words'
p47
(lp48
g5
ag9
ag13
ag17
ag21
ag25
ag29
ag33
ag37
ag41
asS'English'
p49
S'The guy name is Paul, he is a good friend of mine.'
p50
sS'StartFrame'
p51
S'0'
p52
ssI1
(dp53
g2
(lp54
(lp55
S'IX-3p:i'
p56
aS'5800'
p57
aS'6160'
p58
aa(lp59
S'REALLY'
p60
aS'6280'
p61
aS'6360'
p62
aa(lp63
S'MOTORCYCLE'
p64
aS'6520'
p65
aS'7280'
p66
aa(lp67
S'fs-FREAK'
p68
aS'7480'
p69
aS'8320'
p70
aa(lp71
S'REALLY'
p72
aS'8440'
p73
aS'8560'
p74
aa(lp75
S'BEAUTIFUL'
p76
aS'8640'
p77
aS'9080'
p78
aa(lp79
S'MOTORCYCLE'
p80
aS'9200'
p81
aS'9720'
p82
aasg44
S'9720'
p83
sg46
Nsg47
(lp84
g56
ag60
ag64
ag68
ag72
ag76
ag80
asg49
S'He is a motorcycle freak.  He has a beautiful motorcycle.'
p85
sg51
S'5680'
p86
ssI2
(dp87
g2
(lp88
(lp89
S'MOTORCYCLE'
p90
aS'9720'
p91
aS'9760'
p92
aa(lp93
S'REALLY'
p94
aS'9920'
p95
aS'10120'
p96
aa(lp97
S'FUTURE'
p98
aS'10160'
p99
aS'10280'
p100
aa(lp101
S'#DO'
p102
aS'10360'
p103
aS'10560'
p104
aa(lp105
S'ANYTHING'
p106
aS'10640'
p107
aS'11120'
p108
aa(lp109
S'FOR'
p110
aS'11200'
p111
aS'11360'
p112
aa(lp113
S'MOTORCYCLE'
p114
aS'11480'
p115
aS'12160'
p116
aa(lp117
S'REALLY'
p118
aS'12280'
p119
aS'12440'
p120
aa(lp121
S'SYMPATHY'
p122
aS'12520'
p123
aS'12800'
p124
aa(lp125
S'BAD'
p126
aS'13080'
p127
aS'13280'
p128
aa(lp129
S'fs-LUCK'
p130
aS'13400'
p131
aS'13880'
p132
aa(lp133
S'WITH'
p134
aS'14000'
p135
aS'14160'
p136
aa(lp137
S'MOTORCYCLE'
p138
aS'14240'
p139
aS'14720'
p140
aasg44
S'14720'
p141
sg46
Nsg47
(lp142
g90
ag94
ag98
ag102
ag106
ag110
ag114
ag118
ag122
ag126
ag130
ag134
ag138
asg49
S'He would do anything for motorcycle.  I felt bad for him, he has bad luck with motorcycle.'
p143
sg51
S'9720'
p144
ssI3
(dp145
g2
(lp146
(lp147
S'MOTORCYCLE'
p148
aS'14720'
p149
aS'14800'
p150
aa(lp151
S'IX-3p:i'
p152
aS'14880'
p153
aS'15120'
p154
aa(lp155
S'THREE'
p156
aS'15280'
p157
aS'15680'
p158
aa(lp159
S'MOTORCYCLE'
p160
aS'15800'
p161
aS'16040'
p162
aa(lp163
S'STEAL'
p164
aS'16200'
p165
aS'17160'
p166
aa(lp167
S'CRASH'
p168
aS'17480'
p169
aS'17840'
p170
aa(lp171
S'TWO'
p172
aS'18000'
p173
aS'18160'
p174
aa(lp175
S'OTHER'
p176
aS'18280'
p177
aS'18480'
p178
aa(lp179
S'MOTORCYCLE'
p180
aS'18560'
p181
aS'19000'
p182
aa(lp183
S'REALLY'
p184
aS'19120'
p185
aS'19240'
p186
aa(lp187
S'TOTAL'
p188
aS'19360'
p189
aS'19600'
p190
aa(lp191
S'MOTORCYCLE'
p192
aS'19960'
p193
aS'20160'
p194
aa(lp195
S'DIFFERENT'
p196
aS'20280'
p197
aS'20480'
p198
aa(lp199
S'MOTORCYCLE'
p200
aS'20560'
p201
aS'20840'
p202
aasg44
S'20840'
p203
sg46
Nsg47
(lp204
g148
ag152
ag156
ag160
ag164
ag168
ag172
ag176
ag180
ag184
ag188
ag192
ag196
ag200
asg49
S'His three motorcycles were stolen, crashed two another motorcycles.  It was five different motorcycles total.'
p205
sg51
S'14720'
p206
ssI4
(dp207
g2
(lp208
(lp209
S'cl:1location'
p210
aS'25160'
p211
aS'25600'
p212
aa(lp213
S'FROM'
p214
aS'25720'
p215
aS'26000'
p216
aa(lp217
S'MOTORCYCLE'
p218
aS'26120'
p219
aS'26480'
p220
aa(lp221
S'ACCIDENT'
p222
aS'26600'
p223
aS'27040'
p224
aa(lp225
S'punct'
p226
aS'27200'
p227
aa(lp228
S'part:indef'
p229
aS'27320'
p230
aS'27520'
p231
aasg44
S'27520'
p232
sg46
Nsg47
(lp233
g210
ag214
ag218
ag222
ag226
ag229
asg49
S'His ribs broke from the motorcycle accident.'
p234
sg51
S'25160'
p235
ssI5
(dp236
g2
(lp237
(lp238
S'part:indef'
p239
aS'27520'
p240
aS'27720'
p241
aa(lp242
S'REALLY'
p243
aS'28440'
p244
aS'28640'
p245
aa(lp246
S'IX-3p:i'
p247
aS'28720'
p248
aS'28920'
p249
aa(lp250
S'#DO'
p251
aS'29120'
p252
aS'29200'
p253
aa(lp254
S'ANYTHING'
p255
aS'29360'
p256
aS'30120'
p257
aa(lp258
S'FOR'
p259
aS'30200'
p260
aS'30360'
p261
aa(lp262
S'MOTORCYCLE'
p263
aS'30520'
p264
aS'30920'
p265
aa(lp266
S'SAME'
p267
aS'31000'
p268
aS'31080'
p269
aa(lp270
S'FOR'
p271
aS'31280'
p272
aS'31360'
p273
aa(lp274
S'EXAMPLE'
p275
aS'31480'
p276
aS'31680'
p277
aa(lp278
S'IX-3p:i'
p279
aS'31800'
p280
aS'31920'
p281
aa(lp282
S'GO'
p283
aS'32160'
p284
aS'32760'
p285
aa(lp286
S'fs-MR'
p287
aS'33200'
p288
aS'33960'
p289
aa(lp290
S'DEAF'
p291
aS'34400'
p292
aS'34840'
p293
aa(lp294
S'fs-CSUN'
p295
aS'34880'
p296
aS'35560'
p297
aa(lp298
S'PAGENANT'
p299
aS'35800'
p300
aS'36320'
p301
aa(lp302
S'FOR'
p303
aS'36400'
p304
aS'36560'
p305
aa(lp306
S'MAN'
p307
aS'36720'
p308
aS'37080'
p309
aa(lp310
S'TOGETHER'
p311
aS'37160'
p312
aS'37640'
p313
aasg44
S'38000'
p314
sg46
Nsg47
(lp315
g239
ag243
ag247
ag251
ag255
ag259
ag263
ag267
ag271
ag275
ag279
ag283
ag287
ag291
ag295
ag299
ag303
ag307
ag311
asg49
S'He would do anything for motorcycle, like for example, he went to Mr. Deaf CSUN Pagenant with men.'
p316
sg51
S'27520'
p317
ssI6
(dp318
g2
(lp319
(lp320
S'IX-3p:i'
p321
aS'38320'
p322
aS'38480'
p323
aa(lp324
S'DECIDE'
p325
aS'38560'
p326
aS'38680'
p327
aa(lp328
S'#TO'
p329
aS'38720'
p330
aS'38960'
p331
aa(lp332
S'VIDEOTAPE'
p333
aS'39120'
p334
aS'39640'
p335
aa(lp336
S'POSS-3p:i'
p337
aS'39760'
p338
aS'40640'
p339
aa(lp340
S'MOTORCYCLE'
p341
aS'41080'
p342
aS'41320'
p343
aa(lp344
S'CL:5biker riding on one wheel'
p345
aS'41400'
p346
aS'41880'
p347
aa(lp348
S'ON'
p349
aS'42040'
p350
aS'42120'
p351
aa(lp352
S'ONE'
p353
aS'42200'
p354
aS'42280'
p355
aa(lp356
S'WHEEL'
p357
aS'42440'
p358
aS'42960'
p359
aasg44
S'43040'
p360
sg46
Nsg47
(lp361
g321
ag325
ag329
ag333
ag337
ag341
ag345
ag349
ag353
ag357
asg49
S'He decided to videotaping himself riding on the motorcycle on one wheel.'
p362
sg51
S'38000'
p363
ssI7
(dp364
g2
(lp365
(lp366
S'cl:5biker riding on one wheel'
p367
aS'43040'
p368
aS'43440'
p369
aa(lp370
g226
aS'44680'
p371
aa(lp372
S'part:indef'
p373
aS'45280'
p374
aS'45760'
p375
aa(lp376
S'FOR'
p377
aS'45960'
p378
aS'46040'
p379
aa(lp380
S'80'
p381
aS'46200'
p382
aS'46720'
p383
aa(lp384
S'90'
p385
aS'46800'
p386
aS'47000'
p387
aa(lp388
S'#MPH'
p389
aS'47040'
p390
aS'47520'
p391
aa(lp392
S'TRUE-BITS'
p393
aS'47600'
p394
aS'48200'
p395
aa(lp396
S'cl:5biker riding on one wheel'
p397
aS'48480'
p398
aS'48640'
p399
aa(lp400
S'HIT'
p401
aS'49280'
p402
aS'49560'
p403
aa(lp404
S'fs-ROCK'
p405
aS'49680'
p406
aS'50440'
p407
aasg44
S'50800'
p408
sg46
Nsg47
(lp409
g367
ag226
ag373
ag377
ag381
ag385
ag389
ag393
ag397
ag401
ag405
asg49
S'He was riding motorcycle on one wheel in 80 to 90 mph and hitted the rocks.'
p410
sg51
S'43040'
p411
ssI8
(dp412
g2
(lp413
(lp414
S'cl:3person fell off'
p415
aS'51040'
p416
aS'52320'
p417
aa(lp418
S'SEPARATE'
p419
aS'52840'
p420
aS'53240'
p421
aa(lp422
S'SPRAIN'
p423
aS'55400'
p424
aS'55920'
p425
aa(lp426
S'KNEE'
p427
aS'56000'
p428
aS'56840'
p429
aa(lp430
S'fs-ANKLE'
p431
aS'57080'
p432
aS'58080'
p433
aa(lp434
S'FACE'
p435
aS'58200'
p436
aS'58640'
p437
aa(lp438
S'part:indef'
p439
aS'60640'
p440
aS'60720'
p441
aasg44
S'60720'
p442
sg46
Nsg47
(lp443
g415
ag419
ag423
ag427
ag431
ag435
ag439
asg49
S'He fell and hurted his shoulder, sprained his knee and ankle, and also his face burnt.'
p444
sg51
S'50760'
p445
ssI9
(dp446
g2
(lp447
(lp448
S'part:indef'
p449
aS'60720'
p450
aS'60920'
p451
aa(lp452
S'SHOW'
p453
aS'61120'
p454
aS'61320'
p455
aa(lp456
S'ON'
p457
aS'61400'
p458
aS'61520'
p459
aa(lp460
S'VIDEOTAPE'
p461
aS'61640'
p462
aS'62280'
p463
aa(lp464
g226
aS'62400'
p465
aa(lp466
S'IX-3p:i'
p467
aS'62520'
p468
aS'62680'
p469
aa(lp470
S'NOT'
p471
aS'62760'
p472
aS'62800'
p473
aa(lp474
S'WIN'
p475
aS'62840'
p476
aS'63280'
p477
aa(lp478
S'NO'
p479
aS'63360'
p480
aS'63720'
p481
aa(lp482
g226
aS'63760'
p483
aa(lp484
S'BUT'
p485
aS'63840'
p486
aS'64280'
p487
aa(lp488
g226
aS'64400'
p489
aa(lp490
S'part:indef'
p491
aS'64520'
p492
aS'64920'
p493
aasg44
S'64920'
p494
sg46
Nsg47
(lp495
g449
ag453
ag457
ag461
ag226
ag467
ag471
ag475
ag479
ag226
ag485
ag226
ag491
asg49
S"It was showing on the videotape, he didn't win though."
p496
sg51
S'60720'
p497
ssI10
(dp498
g2
(lp499
(lp500
S'wow'
p501
aS'65080'
p502
aS'65680'
p503
aa(lp504
S'IX-3p:i'
p505
aS'65840'
p506
aS'66080'
p507
aa(lp508
S'MOTORCYCLE'
p509
aS'66240'
p510
aS'66400'
p511
aa(lp512
S'#SO'
p513
aS'66640'
p514
aS'66920'
p515
aa(lp516
S'IX-1p'
p517
aS'67040'
p518
aS'67160'
p519
aa(lp520
S'DECIDE'
p521
aS'67280'
p522
aS'68280'
p523
aa(lp524
S'IX-1p'
p525
aS'68440'
p526
aS'68640'
p527
aa(lp528
S'part:indef'
p529
aS'68760'
p530
aS'69000'
p531
aa(lp532
S'IX-1p'
p533
aS'69160'
p534
aS'69240'
p535
aa(lp536
S'FEEL'
p537
aS'69320'
p538
aS'69360'
p539
aa(lp540
S'fs-CARE'
p541
aS'69720'
p542
aS'70200'
p543
aa(lp544
S'ABOUT'
p545
aS'70360'
p546
aS'70560'
p547
aa(lp548
S'IX-3p:i'
p549
aS'70720'
p550
aS'70920'
p551
aa(lp552
S'IX-1p'
p553
aS'71520'
p554
aS'71760'
p555
aa(lp556
S'DECIDE'
p557
aS'72040'
p558
aS'72240'
p559
aa(lp560
S'SEND'
p561
aS'72400'
p562
aS'72560'
p563
aa(lp564
S'fs-EMAIL'
p565
aS'72960'
p566
aS'73880'
p567
aasg44
S'73880'
p568
sg46
Nsg47
(lp569
g501
ag505
ag509
ag513
ag517
ag521
ag525
ag529
ag533
ag537
ag541
ag545
ag549
ag553
ag557
ag561
ag565
asg49
S'It was amazing so I decided to email him because I care for him.'
p570
sg51
S'64920'
p571
ssI11
(dp572
g2
(lp573
(lp574
S'IX-1p'
p575
aS'74000'
p576
aS'74200'
p577
aa(lp578
S'SAY'
p579
aS'74680'
p580
aS'74800'
p581
aa(lp582
S'part:indef'
p583
aS'74920'
p584
aS'75080'
p585
aa(lp586
S'UP-TO-NOW'
p587
aS'75200'
p588
aS'75560'
p589
aa(lp590
S'IX-3p:i'
p591
aS'75800'
p592
aS'76040'
p593
aa(lp594
S'part:indef'
p595
aS'76280'
p596
aS'76360'
p597
aa(lp598
S'IX-3p:i'
p599
aS'76480'
p600
aS'76520'
p601
aa(lp602
S'fs-PAUL'
p603
aS'76560'
p604
aS'76840'
p605
aa(lp606
S'KNOW'
p607
aS'76960'
p608
aS'77160'
p609
aa(lp610
S'IX-3p:i'
p611
aS'77280'
p612
aS'77360'
p613
aa(lp614
S'POSS-1p'
p615
aS'77480'
p616
aS'77640'
p617
aa(lp618
S'GOOD'
p619
aS'77720'
p620
aS'77880'
p621
aa(lp622
S'FRIEND'
p623
aS'78080'
p624
aS'78360'
p625
aasg44
S'78400'
p626
sg46
Nsg47
(lp627
g575
ag579
ag583
ag587
ag591
ag595
ag599
ag603
ag607
ag611
ag615
ag619
ag623
asg49
S'I sent because Paul is my good friend.'
p628
sg51
S'73880'
p629
ssI12
(dp630
g2
(lp631
(lp632
S'UP-TO-NOW'
p633
aS'78680'
p634
aS'78800'
p635
aa(lp636
S'MOTORCYCLE'
p637
aS'78960'
p638
aS'79400'
p639
aa(lp640
S'STEAL+'
p641
aS'79440'
p642
aS'80200'
p643
aa(lp644
g226
aS'80240'
p645
aa(lp646
S'PLUS'
p647
aS'80360'
p648
aS'80520'
p649
aa(lp650
S'IX-3p:i'
p651
aS'80560'
p652
aS'80600'
p653
aa(lp654
S'CRASH'
p655
aS'80680'
p656
aS'81440'
p657
aa(lp658
S'UNKNOWN'
p659
aS'81560'
p660
aS'81640'
p661
aasg44
S'81640'
p662
sg46
Nsg47
(lp663
g633
ag637
ag641
ag226
ag647
ag651
ag655
ag659
asg49
S'Since when his motorcycles stole, and plus crashed.'
p664
sg51
S'78600'
p665
ssI13
(dp666
g2
(lp667
(lp668
S'IX-3p:i'
p669
aS'81760'
p670
aS'82080'
p671
aa(lp672
S'DO'
p673
aS'82200'
p674
aS'82400'
p675
aa(lp676
S'VIDEOTAPE'
p677
aS'82560'
p678
aS'83000'
p679
aa(lp680
S'HIMSELF'
p681
aS'83400'
p682
aS'84120'
p683
aa(lp684
S'IX-3p:i'
p685
aS'84240'
p686
aS'84360'
p687
aa(lp688
S'cl:5biker riding on one wheel'
p689
aS'84760'
p690
aS'85440'
p691
aa(lp692
S'80'
p693
aS'85560'
p694
aS'85760'
p695
aa(lp696
S'#MPH'
p697
aS'85800'
p698
aS'86120'
p699
aa(lp700
S'IX-3p:i'
p701
aS'86240'
p702
aS'86320'
p703
aa(lp704
S'CRAZY'
p705
aS'86480'
p706
aS'86880'
p707
aa(lp708
S'part:indef'
p709
aS'87000'
p710
aS'87123'
p711
aasg44
S'87123'
p712
sg46
Nsg47
(lp713
g669
ag673
ag677
ag681
ag685
ag689
ag693
ag697
ag701
ag705
ag709
asg49
S'He did videotaping himself with motorcycle on one wheel, he was crazy.'
p714
sg51
S'81647'
p715
ssI14
(dp716
g2
(lp717
(lp718
S'REALLY'
p719
aS'87320'
p720
aS'87360'
p721
aa(lp722
S'part:indef'
p723
aS'87520'
p724
aS'88040'
p725
aa(lp726
S'IX-3p:i'
p727
aS'88200'
p728
aS'88280'
p729
aa(lp730
S'SEND'
p731
aS'88360'
p732
aS'88680'
p733
aa(lp734
S'IX-1p'
p735
aS'88840'
p736
aS'88960'
p737
aa(lp738
S'REPLY'
p739
aS'89440'
p740
aS'89640'
p741
aa(lp742
S'fs-BACK'
p743
aS'89760'
p744
aS'90080'
p745
aa(lp746
S'WITH'
p747
aS'90200'
p748
aS'90320'
p749
aa(lp750
S'ONE'
p751
aS'90440'
p752
aS'90600'
p753
aa(lp754
S'SIMPLE'
p755
aS'90760'
p756
aS'90920'
p757
aa(lp758
S'SENTENCE'
p759
aS'91080'
p760
aS'92200'
p761
aa(lp762
S'fs-WHAT'
p763
aS'92400'
p764
aS'93080'
p765
aa(lp766
S'fs-IS'
p767
aS'93120'
p768
aS'93480'
p769
aa(lp770
S'#A'
p771
aS'93600'
p772
aS'93720'
p773
aa(lp774
S'fs-CAR'
p775
aS'93960'
p776
aS'94560'
p777
aasg44
S'95960'
p778
sg46
Nsg47
(lp779
g719
ag723
ag727
ag731
ag735
ag739
ag743
ag747
ag751
ag755
ag759
ag763
ag767
ag771
ag775
asg49
S'He replied back with one simple sentence, "What is a car?"'
p780
sg51
S'87160'
p781
ss.