(dp0
I0
(dp1
S'Annotated'
p2
(lp3
(lp4
S'IX-1p'
p5
aS'360'
p6
aS'960'
p7
aa(lp8
S'COMPARE'
p9
aS'1040'
p10
aS'1480'
p11
aa(lp12
S'TWO'
p13
aS'1640'
p14
aS'1720'
p15
aa(lp16
S'DIFFERENT'
p17
aS'1840'
p18
aS'1960'
p19
aa(lp20
S'CITY'
p21
aS'2080'
p22
aS'2520'
p23
aa(lp24
S'fs-BOSTON'
p25
aS'2640'
p26
aS'3920'
p27
aa(lp28
S'AND'
p29
aS'4040'
p30
aS'4280'
p31
aa(lp32
S'ns-LA'
p33
aS'4360'
p34
aS'4960'
p35
aa(lp36
S'cl:1two areas'
p37
aS'5080'
p38
aS'5880'
p39
aasS'EndFrame'
p40
S'5880'
p41
sS'Video'
p42
NsS'Words'
p43
(lp44
g5
ag9
ag13
ag17
ag21
ag25
ag29
ag33
ag37
asS'English'
p45
S'I compared two different cities, Boston and Los Angelos.'
p46
sS'StartFrame'
p47
S'0'
p48
ssI1
(dp49
g2
(lp50
(lp51
S'IX-3p'
p52
aS'5880'
p53
aS'6080'
p54
aa(lp55
S'REALLY'
p56
aS'6120'
p57
aS'6280'
p58
aa(lp59
S'IX-1p'
p60
aS'6400'
p61
aS'6480'
p62
aa(lp63
S'part:indef'
p64
aS'6520'
p65
aS'6800'
p66
aa(lp67
S'BORN'
p68
aS'6880'
p69
aS'7280'
p70
aa(lp71
S'IN'
p72
aS'8160'
p73
aS'8200'
p74
aa(lp75
S'ns-BOSTON'
p76
aS'8280'
p77
aS'8840'
p78
aasg40
S'9680'
p79
sg42
Nsg43
(lp80
g52
ag56
ag60
ag64
ag68
ag72
ag76
asg45
S'I was born and grew up in Boston.'
p81
sg47
S'5880'
p82
ssI2
(dp83
g2
(lp84
(lp85
S'REALLY'
p86
aS'10000'
p87
aS'10200'
p88
aa(lp89
S'IX-1p'
p90
aS'11120'
p91
aS'11280'
p92
aa(lp93
S'punct'
p94
aS'11800'
p95
aa(lp96
S'AFTER'
p97
aS'12040'
p98
aS'12560'
p99
aa(lp100
S'fs-hs'
p101
aS'12720'
p102
aS'13080'
p103
aa(lp104
S'IX-1p'
p105
aS'13200'
p106
aS'13280'
p107
aa(lp108
S'GO'
p109
aS'13360'
p110
aS'13600'
p111
aa(lp112
S'COLLEGE'
p113
aS'13720'
p114
aS'13920'
p115
aa(lp116
S'ns-CSUN'
p117
aS'14080'
p118
aS'14880'
p119
aa(lp120
S'CALIFORNIA'
p121
aS'15080'
p122
aS'15520'
p123
aa(lp124
S'STATE'
p125
aS'15640'
p126
aS'15960'
p127
aa(lp128
S'UNIVERSITY'
p129
aS'16120'
p130
aS'16320'
p131
aa(lp132
S'ON'
p133
aS'16480'
p134
aS'16640'
p135
aa(lp136
S'ns-NORTHRIDGE'
p137
aS'16840'
p138
aS'17960'
p139
aa(lp140
S'IX-1p'
p141
aS'18120'
p142
aS'18440'
p143
aa(lp144
S'GO'
p145
aS'18480'
p146
aS'18640'
p147
aa(lp148
S'NINETY-SIX'
p149
aS'18760'
p150
aS'19280'
p151
aasg40
S'19720'
p152
sg42
Nsg43
(lp153
g86
ag90
ag94
ag97
ag101
ag105
ag109
ag113
ag117
ag121
ag125
ag129
ag133
ag137
ag141
ag145
ag149
asg45
S"I went to LA after my high school in '96.  I went to the college, Calfornia State University, CSUN, in Northridge."
p154
sg47
S'9680'
p155
ssI3
(dp156
g2
(lp157
(lp158
S'REALLY'
p159
aS'19920'
p160
aS'20080'
p161
aa(lp162
S'IX-1p'
p163
aS'20160'
p164
aS'20240'
p165
aa(lp166
S'MANY'
p167
aS'20400'
p168
aS'20560'
p169
aa(lp170
S'THING'
p171
aS'20720'
p172
aS'21040'
p173
aa(lp174
S'COMPARE'
p175
aS'21280'
p176
aS'21520'
p177
aa(lp178
S'IX-3p'
p179
aS'21680'
p180
aS'22040'
p181
aa(lp182
S'SAME'
p183
aS'22440'
p184
aS'22680'
p185
aa(lp186
S'FOR'
p187
aS'22880'
p188
aS'23040'
p189
aa(lp190
S'EXAMPLE'
p191
aS'23160'
p192
aS'23440'
p193
aa(lp194
S'FOOD'
p195
aS'23640'
p196
aS'24800'
p197
aa(lp198
S'REALLY'
p199
aS'24880'
p200
aS'25080'
p201
aa(lp202
S'IX-loc'
p203
aS'25240'
p204
aS'25360'
p205
aa(lp206
S'fs-BOSTON'
p207
aS'25520'
p208
aS'26520'
p209
aa(lp210
S'REALLY'
p211
aS'26680'
p212
aS'26880'
p213
aa(lp214
S'DELICIOUS'
p215
aS'27360'
p216
aS'27680'
p217
aa(lp218
S'BETTER'
p219
aS'27880'
p220
aS'28080'
p221
aa(lp222
S'FOOD'
p223
aS'28240'
p224
aS'28840'
p225
aasg40
S'28840'
p226
sg42
Nsg43
(lp227
g159
ag163
ag167
ag171
ag175
ag179
ag183
ag187
ag191
ag195
ag199
ag203
ag207
ag211
ag215
ag219
ag223
asg45
S"There are many things I could compare, like for an example, Boston's food is a lot better.  They are more delicious."
p228
sg47
S'19720'
p229
ssI4
(dp230
g2
(lp231
(lp232
S'FOOD'
p233
aS'28840'
p234
aS'28880'
p235
aa(lp236
S'REALLY'
p237
aS'28960'
p238
aS'29160'
p239
aa(lp240
S'THINK'
p241
aS'29480'
p242
aS'29560'
p243
aa(lp244
S'FIRST'
p245
aS'29760'
p246
aS'29840'
p247
aa(lp248
S'fs-SEAFOOD'
p249
aS'30200'
p250
aS'31440'
p251
aa(lp252
S'REALLY'
p253
aS'31560'
p254
aS'31600'
p255
aa(lp256
S'NONE'
p257
aS'31680'
p258
aS'31840'
p259
aa(lp260
S'COMPARE'
p261
aS'31920'
p262
aS'32440'
p263
aa(lp264
S'throw hand'
p265
aS'32560'
p266
aS'32880'
p267
aa(lp268
S'FIRST'
p269
aS'33080'
p270
aS'33160'
p271
aa(lp272
S'SECOND'
p273
aS'33360'
p274
aS'33440'
p275
aa(lp276
S'part:indef'
p277
aS'33520'
p278
aS'33640'
p279
aa(lp280
S'MEAT'
p281
aS'33840'
p282
aS'34200'
p283
aa(lp284
S'fs-FRESH'
p285
aS'34680'
p286
aS'35560'
p287
aa(lp288
S'thumbs up'
p289
aS'35720'
p290
aS'36160'
p291
aa(lp292
S'MORE'
p293
aS'36360'
p294
aS'36480'
p295
aa(lp296
S'TASTE'
p297
aS'37360'
p298
aS'37880'
p299
aa(lp300
S'ns-CALIFORNIA'
p301
aS'38320'
p302
aS'38480'
p303
aa(lp304
S'MEAT'
p305
aS'38720'
p306
aS'38840'
p307
aa(lp308
S'part:indef'
p309
aS'39080'
p310
aS'39120'
p311
aasg40
S'39120'
p312
sg42
Nsg43
(lp313
g233
ag237
ag241
ag245
ag249
ag253
ag257
ag261
ag265
ag269
ag273
ag277
ag281
ag285
ag289
ag293
ag297
ag301
ag305
ag309
asg45
S"First of all, I think the seafood is nothing here compare to Boston.  Second, the meat is more tasteful than California's meat."
p314
sg47
S'28840'
p315
ssI5
(dp316
g2
(lp317
(lp318
S"DON'T-KNOW"
p319
aS'43120'
p320
aS'43160'
p321
aa(lp322
S'THIRD'
p323
aS'43600'
p324
aS'44200'
p325
aa(lp326
S'DIFFERENT'
p327
aS'44680'
p328
aS'44880'
p329
aa(lp330
S'FRUIT'
p331
aS'45040'
p332
aS'45160'
p333
aa(lp334
S'VEGETABLE'
p335
aS'45440'
p336
aS'45760'
p337
aa(lp338
S'MORE'
p339
aS'46120'
p340
aS'46600'
p341
aa(lp342
S'TASTE'
p343
aS'47040'
p344
aS'47200'
p345
aa(lp346
S'fs-FRESH'
p347
aS'47360'
p348
aS'47760'
p349
aa(lp350
S'IX-3p'
p351
aS'48000'
p352
aS'48160'
p353
aa(lp354
S'GROW++'
p355
aS'48760'
p356
aS'50240'
p357
aa(lp358
S'IN'
p359
aS'50680'
p360
aS'50800'
p361
aa(lp362
S'OUT-OF'
p363
aS'51080'
p364
aS'51560'
p365
aa(lp366
S'ns-CALIFORNIA'
p367
aS'51680'
p368
aS'51800'
p369
aa(lp370
S'BUT'
p371
aS'52000'
p372
aS'52040'
p373
aasg40
S'52040'
p374
sg42
Nsg43
(lp375
g319
ag323
ag327
ag331
ag335
ag339
ag343
ag347
ag351
ag355
ag359
ag363
ag367
ag371
asg45
S'Third, they both have different fruits and vegetables.  They have more tasteful and fresh because it was cropping out of California.'
p376
sg47
S'43120'
p377
ssI6
(dp378
g2
(lp379
(lp380
S'BUT'
p381
aS'52000'
p382
aS'52120'
p383
aa(lp384
S'ns-CALIFORNIA'
p385
aS'52320'
p386
aS'52600'
p387
aa(lp388
S'FARM'
p389
aS'52840'
p390
aS'53320'
p391
aa(lp392
S'SYSTEM'
p393
aS'53440'
p394
aS'53840'
p395
aa(lp396
S'IX-3p'
p397
aS'53960'
p398
aS'54240'
p399
aa(lp400
S'MORE'
p401
aS'54480'
p402
aS'54560'
p403
aa(lp404
S'SAME'
p405
aS'54600'
p406
aS'54760'
p407
aa(lp408
S'OUTSIDE'
p409
aS'54840'
p410
aS'55520'
p411
aa(lp412
S'IX-3p'
p413
aS'55680'
p414
aS'55880'
p415
aa(lp416
S'INSIDE'
p417
aS'56000'
p418
aS'56360'
p419
aa(lp420
S'fs-TOO'
p421
aS'56480'
p422
aS'56600'
p423
aa(lp424
S'HOT'
p425
aS'56640'
p426
aS'57200'
p427
aasg40
S'57200'
p428
sg42
Nsg43
(lp429
g381
ag385
ag389
ag393
ag397
ag401
ag405
ag409
ag413
ag417
ag421
ag425
asg45
S"California's farm system is more outside because it is too hot to crop in the state."
p430
sg47
S'52000'
p431
ssI7
(dp432
g2
(lp433
(lp434
S'OUTSIDE'
p435
aS'57480'
p436
aS'58040'
p437
aa(lp438
S'STILL'
p439
aS'58240'
p440
aS'58440'
p441
aa(lp442
S'UNKNOWN'
p443
aS'58480'
p444
aS'58840'
p445
aa(lp446
S'IX-3p:i'
p447
aS'58960'
p448
aS'59120'
p449
aa(lp450
S'fs-VERY'
p451
aS'59280'
p452
aS'59680'
p453
aa(lp454
S'DRY'
p455
aS'59880'
p456
aS'60400'
p457
aa(lp458
S'EASIER'
p459
aS'60640'
p460
aS'61000'
p461
aa(lp462
S'TO'
p463
aS'61080'
p464
aS'61240'
p465
aa(lp466
S'GROW'
p467
aS'61320'
p468
aS'61560'
p469
aa(lp470
S'fs-CROPS'
p471
aS'61680'
p472
aS'62520'
p473
aa(lp474
S'IN'
p475
aS'62600'
p476
aS'62760'
p477
aa(lp478
S'ns-LA'
p479
aS'62920'
p480
aS'63280'
p481
aa(lp482
S'AREA'
p483
aS'63440'
p484
aS'64120'
p485
aasg40
S'64360'
p486
sg42
Nsg43
(lp487
g435
ag439
ag443
ag447
ag451
ag455
ag459
ag463
ag467
ag471
ag475
ag479
ag483
asg45
S'To crop outside of California is better because it is dry.  It is easier to grow crops than in LA area.'
p488
sg47
S'57200'
p489
ssI8
(dp490
g2
(lp491
(lp492
S'#SO'
p493
aS'64560'
p494
aS'64680'
p495
aa(lp496
S'part:indef'
p497
aS'64880'
p498
aS'65160'
p499
aa(lp500
S'REALLY'
p501
aS'65800'
p502
aS'66080'
p503
aa(lp504
S'part:indef'
p505
aS'66200'
p506
aS'66360'
p507
aa(lp508
S'REALLY'
p509
aS'66520'
p510
aS'66680'
p511
aa(lp512
S'cl:5list++'
p513
aS'66880'
p514
aS'67840'
p515
aa(lp516
S'IX-3p:i'
p517
aS'68000'
p518
aS'68040'
p519
aa(lp520
S'REALLY'
p521
aS'68120'
p522
aS'68240'
p523
aa(lp524
S'ADMIT'
p525
aS'68280'
p526
aS'68720'
p527
aa(lp528
S'ns-MEXICO'
p529
aS'68800'
p530
aS'69160'
p531
aa(lp532
S'FOOD'
p533
aS'69320'
p534
aS'69600'
p535
aa(lp536
S'BETTER'
p537
aS'69720'
p538
aS'69960'
p539
aa(lp540
S'IN'
p541
aS'70040'
p542
aS'70160'
p543
aa(lp544
S'ns-LA'
p545
aS'70280'
p546
aS'71120'
p547
aa(lp548
S'part:indef'
p549
aS'71440'
p550
aS'71520'
p551
aasg40
S'71520'
p552
sg42
Nsg43
(lp553
g493
ag497
ag501
ag505
ag509
ag513
ag517
ag521
ag525
ag529
ag533
ag537
ag541
ag545
ag549
asg45
S'So, I have to admit that Mexican food in LA is better.'
p554
sg47
S'64360'
p555
ssI9
(dp556
g2
(lp557
(lp558
S'part:indef'
p559
aS'71520'
p560
aS'71600'
p561
aa(lp562
S'OF-COURSE'
p563
aS'71720'
p564
aS'71920'
p565
aa(lp566
S'IX-3p'
p567
aS'72000'
p568
aS'72080'
p569
aa(lp570
S'CLOSE'
p571
aS'72160'
p572
aS'72640'
p573
aa(lp574
S'ns-MEXICO'
p575
aS'72840'
p576
aS'73200'
p577
aa(lp578
S'fs-BORDER'
p579
aS'73320'
p580
aS'73960'
p581
aa(lp582
S'BORDER'
p583
aS'74040'
p584
aS'74400'
p585
aa(lp586
S'NEXT'
p587
aS'74520'
p588
aS'74880'
p589
aa(lp590
S'part:indef'
p591
aS'74960'
p592
aS'75200'
p593
aasg40
S'75240'
p594
sg42
Nsg43
(lp595
g559
ag563
ag567
ag571
ag575
ag579
ag583
ag587
ag591
asg45
S'Of course, its because of live close to Mexico.  The state border is next to each other.'
p596
sg47
S'71520'
p597
ssI10
(dp598
g2
(lp599
(lp600
S'part:indef'
p601
aS'75240'
p602
aS'75280'
p603
aa(lp604
S'IX-1p'
p605
aS'75360'
p606
aS'75440'
p607
aa(lp608
S'ns-BOSTON'
p609
aS'75680'
p610
aS'76000'
p611
aa(lp612
S'NONE'
p613
aS'76160'
p614
aS'76360'
p615
aa(lp616
S'ns-MEXICO'
p617
aS'76680'
p618
aS'76960'
p619
aa(lp620
S'FOOD'
p621
aS'77040'
p622
aS'77240'
p623
aa(lp624
S'IX-3p-arc'
p625
aS'77360'
p626
aS'77600'
p627
aa(lp628
S'NOT'
p629
aS'77720'
p630
aS'77760'
p631
aa(lp632
S'BAD'
p633
aS'77880'
p634
aS'78120'
p635
aa(lp636
S'BUT'
p637
aS'78240'
p638
aS'78440'
p639
aa(lp640
S'IX-1p'
p641
aS'78560'
p642
aS'78800'
p643
aa(lp644
S'REALLY'
p645
aS'78880'
p646
aS'79000'
p647
aa(lp648
S'POSS-1p'
p649
aS'79080'
p650
aS'79360'
p651
aa(lp652
S'NOT-CARE'
p653
aS'79440'
p654
aS'79680'
p655
aa(lp656
S'ABOUT'
p657
aS'79800'
p658
aS'79920'
p659
aa(lp660
S'ns-MEXICO'
p661
aS'79960'
p662
aS'80360'
p663
aa(lp664
S'FOOD'
p665
aS'80520'
p666
aS'80800'
p667
aa(lp668
S'DELICIOUS'
p669
aS'81160'
p670
aS'81560'
p671
aa(lp672
S'ADVANTAGE'
p673
aS'81760'
p674
aS'82160'
p675
aa(lp676
S'part:indef'
p677
aS'82240'
p678
aS'82400'
p679
aasg40
S'83522'
p680
sg42
Nsg43
(lp681
g601
ag605
ag609
ag613
ag617
ag621
ag625
ag629
ag633
ag637
ag641
ag645
ag649
ag653
ag657
ag661
ag665
ag669
ag673
ag677
asg45
S"Boston's mexican food is not bad, but myself, I dont care about mexican food.  I ate mexican food in LA because its really delicious."
p682
sg47
S'75240'
p683
ssI11
(dp684
g2
(lp685
(lp686
S'STOP'
p687
aS'96440'
p688
aS'96680'
p689
aa(lp690
g94
aS'96880'
p691
aa(lp692
S'MAKE'
p693
aS'97000'
p694
aS'97120'
p695
aa(lp696
S'SURE'
p697
aS'97200'
p698
aS'97400'
p699
aa(lp700
S'NONE'
p701
aS'97520'
p702
aS'97640'
p703
aa(lp704
S'ONE'
p705
aS'97680'
p706
aS'97840'
p707
aa(lp708
S'BRING'
p709
aS'97920'
p710
aS'98400'
p711
aa(lp712
S'FRUIT'
p713
aS'98560'
p714
aS'98840'
p715
aa(lp716
S'AND'
p717
aS'98920'
p718
aS'99040'
p719
aa(lp720
S'VEGETABLE'
p721
aS'99120'
p722
aS'99440'
p723
aa(lp724
S'FROM'
p725
aS'99520'
p726
aS'99720'
p727
aa(lp728
S'ns-MEXICO'
p729
aS'99800'
p730
aS'100160'
p731
aasg40
S'100160'
p732
sg42
Nsg43
(lp733
g687
ag94
ag693
ag697
ag701
ag705
ag709
ag713
ag717
ag721
ag725
ag729
asg45
S'They will stop and make sure nobody would bring any fruit or vegetable from Mexico.'
p734
sg47
S'96440'
p735
ssI12
(dp736
g2
(lp737
(lp738
S'#OR'
p739
aS'100360'
p740
aS'100480'
p741
aa(lp742
S'ANYONE'
p743
aS'100720'
p744
aS'101200'
p745
aa(lp746
S'ELSE'
p747
aS'101360'
p748
aS'101800'
p749
aa(lp750
S'cl:5that area'
p751
aS'101880'
p752
aS'102160'
p753
aa(lp754
S'BECAUSE'
p755
aS'102240'
p756
aS'102640'
p757
aa(lp758
S'IX-3p:i'
p759
aS'102720'
p760
aS'102760'
p761
aa(lp762
S'fs-VERY'
p763
aS'102800'
p764
aS'103040'
p765
aa(lp766
S'STRICT'
p767
aS'103160'
p768
aS'103440'
p769
aa(lp770
S'WITH'
p771
aS'103520'
p772
aS'103720'
p773
aa(lp774
S'CHEMICAL'
p775
aS'103800'
p776
aS'104480'
p777
aa(lp778
S'MAKE'
p779
aS'104600'
p780
aS'104720'
p781
aa(lp782
S'SURE'
p783
aS'104840'
p784
aS'105200'
p785
aa(lp786
S'cl:5things'
p787
aS'105360'
p788
aS'105920'
p789
aa(lp790
S'WORK-OUT'
p791
aS'106240'
p792
aS'106720'
p793
aasg40
S'106720'
p794
sg42
Nsg43
(lp795
g739
ag743
ag747
ag751
ag755
ag759
ag763
ag767
ag771
ag775
ag779
ag783
ag787
ag791
asg45
S'Because, there is very strict with chemical issue, they had to make sure things would work out smooth.'
p796
sg47
S'100160'
p797
ssI13
(dp798
g2
(lp799
(lp800
S'SAME'
p801
aS'106800'
p802
aS'106880'
p803
aa(lp804
S'IX-1p'
p805
aS'107000'
p806
aS'107160'
p807
aa(lp808
S'LOOK'
p809
aS'107320'
p810
aS'107600'
p811
aa(lp812
S'HERE'
p813
aS'107760'
p814
aS'108040'
p815
aa(lp816
S'IX-1p'
p817
aS'108240'
p818
aS'108320'
p819
aa(lp820
S'NEVER'
p821
aS'108400'
p822
aS'108520'
p823
aa(lp824
S'HEAR'
p825
aS'108600'
p826
aS'108800'
p827
aa(lp828
S'SOMETHING'
p829
aS'108880'
p830
aS'109280'
p831
aa(lp832
S'SAME'
p833
aS'109360'
p834
aS'109640'
p835
aa(lp836
S'THAT'
p837
aS'109680'
p838
aS'110040'
p839
aasg40
S'110040'
p840
sg42
Nsg43
(lp841
g801
ag805
ag809
ag813
ag817
ag821
ag825
ag829
ag833
ag837
asg45
S'I have never heard of that kind of situation here in Boston.'
p842
sg47
S'106720'
p843
ssI14
(dp844
g2
(lp845
(lp846
S'part:indef'
p847
aS'110160'
p848
aS'110280'
p849
aa(lp850
S'REALLY'
p851
aS'110360'
p852
aS'110600'
p853
aa(lp854
S'part:indef'
p855
aS'110680'
p856
aS'111040'
p857
aa(lp858
S'IX-1p'
p859
aS'111120'
p860
aS'111200'
p861
aa(lp862
S'LEARN'
p863
aS'111400'
p864
aS'111920'
p865
aa(lp866
S'THAT'
p867
aS'111960'
p868
aS'112080'
p869
aa(lp870
S'IN'
p871
aS'112160'
p872
aS'112320'
p873
aa(lp874
S'ns-LA'
p875
aS'112400'
p876
aS'112840'
p877
aa(lp878
S'IX-loc:i'
p879
aS'112920'
p880
aS'113240'
p881
aasg40
S'113640'
p882
sg42
Nsg43
(lp883
g847
ag851
ag855
ag859
ag863
ag867
ag871
ag875
ag879
asg45
S'Well, that is what I learned in LA.'
p884
sg47
S'110040'
p885
ssI15
(dp886
g2
(lp887
(lp888
S'FINE'
p889
aS'113920'
p890
aS'114120'
p891
aa(lp892
S'OTHER'
p893
aS'114320'
p894
aS'114560'
p895
aa(lp896
S'THAN'
p897
aS'114640'
p898
aS'114840'
p899
aa(lp900
S'FOOD'
p901
aS'114920'
p902
aS'115320'
p903
aa(lp904
S'IX-1p'
p905
aS'115360'
p906
aS'115440'
p907
aa(lp908
S'CAN'
p909
aS'115520'
p910
aS'115560'
p911
aa(lp912
S'COMPARE'
p913
aS'115640'
p914
aS'115840'
p915
aa(lp916
S'POSS-3p:i'
p917
aS'116080'
p918
aS'116440'
p919
aa(lp920
S'ENVIRONMENT'
p921
aS'116560'
p922
aS'117640'
p923
aasg40
S'118120'
p924
sg42
Nsg43
(lp925
g889
ag893
ag897
ag901
ag905
ag909
ag913
ag917
ag921
asg45
S'Other than food I could compare, it is the environmental.'
p926
sg47
S'113640'
p927
ssI16
(dp928
g2
(lp929
(lp930
S'REALLY'
p931
aS'118280'
p932
aS'118480'
p933
aa(lp934
S'OF-COURSE'
p935
aS'118880'
p936
aS'119200'
p937
aa(lp938
S'fs-BOSTON'
p939
aS'119360'
p940
aS'120240'
p941
aa(lp942
S'IX-loc:i'
p943
aS'120320'
p944
aS'120440'
p945
aa(lp946
S'HAVE'
p947
aS'120600'
p948
aS'120840'
p949
aa(lp950
S'FOUR'
p951
aS'120920'
p952
aS'121080'
p953
aa(lp954
S'DIFFERENT'
p955
aS'121160'
p956
aS'121440'
p957
aa(lp958
S'fs-SEASONS'
p959
aS'121600'
p960
aS'122800'
p961
aa(lp962
S'part:indef'
p963
aS'123120'
p964
aS'123480'
p965
aasg40
S'123640'
p966
sg42
Nsg43
(lp967
g931
ag935
ag939
ag943
ag947
ag951
ag955
ag959
ag963
asg45
S'Of course, Boston have four different seasons.'
p968
sg47
S'118120'
p969
ssI17
(dp970
g2
(lp971
(lp972
S'WHILE'
p973
aS'123840'
p974
aS'124040'
p975
aa(lp976
S'ns-LA'
p977
aS'124120'
p978
aS'124480'
p979
aa(lp980
S'MAYBE'
p981
aS'124600'
p982
aS'124720'
p983
aa(lp984
S'HAVE'
p985
aS'124800'
p986
aS'124960'
p987
aa(lp988
S'ONE'
p989
aS'125040'
p990
aS'125240'
p991
aa(lp992
S'#OR'
p993
aS'125320'
p994
aS'125440'
p995
aa(lp996
S'TWO'
p997
aS'125520'
p998
aS'125760'
p999
aa(lp1000
S'FINISH'
p1001
aS'125880'
p1002
aS'126160'
p1003
aa(lp1004
g94
aS'126920'
p1005
aa(lp1006
S'part:indef'
p1007
aS'127000'
p1008
aS'127240'
p1009
aasg40
S'127348'
p1010
sg42
Nsg43
(lp1011
g973
ag977
ag981
ag985
ag989
ag993
ag997
ag1001
ag94
ag1007
asg45
S'While in LA, they only have one or two seasons.'
p1012
sg47
S'123640'
p1013
ssI18
(dp1014
g2
(lp1015
(lp1016
S'FINE'
p1017
aS'127480'
p1018
aS'127960'
p1019
aa(lp1020
S'IX-loc:i'
p1021
aS'128200'
p1022
aS'128320'
p1023
aa(lp1024
S'ns-LA'
p1025
aS'128440'
p1026
aS'129080'
p1027
aa(lp1028
S'EVERYDAY'
p1029
aS'129200'
p1030
aS'129720'
p1031
aa(lp1032
S'UP-TO-NOW'
p1033
aS'129800'
p1034
aS'129880'
p1035
aa(lp1036
S'TEND'
p1037
aS'130080'
p1038
aS'130360'
p1039
aa(lp1040
S'part:indef'
p1041
aS'130520'
p1042
aS'131400'
p1043
aa(lp1044
S'75++'
p1045
aS'131560'
p1046
aS'132240'
p1047
aa(lp1048
S'80'
p1049
aS'132320'
p1050
aS'133040'
p1051
aa(lp1052
S'DEGREE'
p1053
aS'133080'
p1054
aS'133120'
p1055
aa(lp1056
S'EVERYDAY'
p1057
aS'133200'
p1058
aS'133640'
p1059
aa(lp1060
S'cl:5flat'
p1061
aS'133920'
p1062
aS'134760'
p1063
aa(lp1064
S'part:indef'
p1065
aS'134920'
p1066
aS'135040'
p1067
aa(lp1068
S'SUN'
p1069
aS'135880'
p1070
aS'136440'
p1071
aa(lp1072
S'fs-DRY'
p1073
aS'136880'
p1074
aS'137680'
p1075
aa(lp1076
S'part:indef'
p1077
aS'138080'
p1078
aS'138520'
p1079
aa(lp1080
S'SIMPLE'
p1081
aS'138600'
p1082
aS'139320'
p1083
aasg40
S'139320'
p1084
sg42
Nsg43
(lp1085
g1017
ag1021
ag1025
ag1029
ag1033
ag1037
ag1041
ag1045
ag1049
ag1053
ag1057
ag1061
ag1065
ag1069
ag1073
ag1077
ag1081
asg45
S'Theres 75 to 80s degree with sunny and dry weather everyday here in LA since when I moved here.'
p1086
sg47
S'127348'
p1087
ssI19
(dp1088
g2
(lp1089
(lp1090
S'BUT'
p1091
aS'139480'
p1092
aS'139560'
p1093
aa(lp1094
S'HERE'
p1095
aS'139640'
p1096
aS'140080'
p1097
aa(lp1098
S'REALLY'
p1099
aS'140160'
p1100
aS'140320'
p1101
aa(lp1102
S'UNPREDICT'
p1103
aS'140400'
p1104
aS'141400'
p1105
aa(lp1106
S'WEATHER'
p1107
aS'141480'
p1108
aS'142040'
p1109
aa(lp1110
S'CAN'
p1111
aS'142280'
p1112
aS'142760'
p1113
aa(lp1114
S'#BE'
p1115
aS'142920'
p1116
aS'143240'
p1117
aa(lp1118
S'RAIN'
p1119
aS'143400'
p1120
aS'143880'
p1121
aa(lp1122
S'CAN'
p1123
aS'143960'
p1124
aS'144360'
p1125
aa(lp1126
S'#BE'
p1127
aS'144480'
p1128
aS'144720'
p1129
aa(lp1130
S'part:indef'
p1131
aS'144880'
p1132
aS'145520'
p1133
aa(lp1134
S'HOT'
p1135
aS'146280'
p1136
aS'146840'
p1137
aa(lp1138
S'COLD'
p1139
aS'147040'
p1140
aS'147600'
p1141
aa(lp1142
S'COOL'
p1143
aS'147680'
p1144
aS'148240'
p1145
aasg40
S'148240'
p1146
sg42
Nsg43
(lp1147
g1091
ag1095
ag1099
ag1103
ag1107
ag1111
ag1115
ag1119
ag1123
ag1127
ag1131
ag1135
ag1139
ag1143
asg45
S'But here in Boston, it is unpredict weather, it can be raining, hot, cold or cool.'
p1148
sg47
S'139320'
p1149
ssI20
(dp1150
g2
(lp1151
(lp1152
S'COOL'
p1153
aS'148240'
p1154
aS'148600'
p1155
aa(lp1156
S'REALLY'
p1157
aS'148720'
p1158
aS'148920'
p1159
aa(lp1160
S'MANY'
p1161
aS'149040'
p1162
aS'149560'
p1163
aa(lp1164
S'ONE'
p1165
aS'150960'
p1166
aS'151040'
p1167
aa(lp1168
S'THING'
p1169
aS'151120'
p1170
aS'151240'
p1171
aa(lp1172
S'IX-1p'
p1173
aS'151360'
p1174
aS'151440'
p1175
aa(lp1176
S'NOTICE'
p1177
aS'151520'
p1178
aS'152160'
p1179
aa(lp1180
S'SAME'
p1181
aS'153120'
p1182
aS'153480'
p1183
aa(lp1184
S'part:indef'
p1185
aS'153600'
p1186
aS'153920'
p1187
aasg40
S'153920'
p1188
sg42
Nsg43
(lp1189
g1153
ag1157
ag1161
ag1165
ag1169
ag1173
ag1177
ag1181
ag1185
asg45
S'There is vary weathers in Boston, but one thing I notice...'
p1190
sg47
S'148240'
p1191
ssI21
(dp1192
g2
(lp1193
(lp1194
S'IX-3p:i'
p1195
aS'154320'
p1196
aS'154400'
p1197
aa(lp1198
S'FALL'
p1199
aS'154920'
p1200
aS'155360'
p1201
aa(lp1202
S'fs-SEASON'
p1203
aS'155520'
p1204
aS'156080'
p1205
aa(lp1206
S'SAME'
p1207
aS'156120'
p1208
aS'156280'
p1209
aa(lp1210
S'IN'
p1211
aS'156400'
p1212
aS'156560'
p1213
aa(lp1214
S'fs-SEPT'
p1215
aS'156640'
p1216
aS'157240'
p1217
aa(lp1218
g94
aS'157880'
p1219
aa(lp1220
S'HERE'
p1221
aS'158040'
p1222
aS'158240'
p1223
aa(lp1224
S'ns-BOSTON'
p1225
aS'158400'
p1226
aS'158800'
p1227
aasg40
S'158960'
p1228
sg42
Nsg43
(lp1229
g1195
ag1199
ag1203
ag1207
ag1211
ag1215
ag94
ag1221
ag1225
asg45
S'In fall season, like in September period, here in Boston.'
p1230
sg47
S'153920'
p1231
ssI22
(dp1232
g2
(lp1233
(lp1234
S'IX-1p'
p1235
aS'159040'
p1236
aS'159120'
p1237
aa(lp1238
S'UNKNOWN'
p1239
aS'159200'
p1240
aS'159280'
p1241
aa(lp1242
S'NOTICE'
p1243
aS'159600'
p1244
aS'160040'
p1245
aa(lp1246
S'LEAVE'
p1247
aS'160160'
p1248
aS'160600'
p1249
aa(lp1250
S'CHANGE'
p1251
aS'160720'
p1252
aS'160960'
p1253
aa(lp1254
S'COLOR'
p1255
aS'161120'
p1256
aS'162200'
p1257
aa(lp1258
S'SOME'
p1259
aS'162360'
p1260
aS'162560'
p1261
aa(lp1262
S'START'
p1263
aS'162640'
p1264
aS'162760'
p1265
aa(lp1266
S'#TO'
p1267
aS'162800'
p1268
aS'162920'
p1269
aa(lp1270
S'FALL++'
p1271
aS'163200'
p1272
aS'164160'
p1273
aa(lp1274
S'REALLY'
p1275
aS'164200'
p1276
aS'164320'
p1277
aa(lp1278
S'GREEN'
p1279
aS'164400'
p1280
aS'164600'
p1281
aa(lp1282
S'GRASS'
p1283
aS'164680'
p1284
aS'165000'
p1285
aa(lp1286
S'GREEN'
p1287
aS'165080'
p1288
aS'165560'
p1289
aa(lp1290
S'PERFECT'
p1291
aS'165680'
p1292
aS'165880'
p1293
aasg40
S'165880'
p1294
sg42
Nsg43
(lp1295
g1235
ag1239
ag1243
ag1247
ag1251
ag1255
ag1259
ag1263
ag1267
ag1271
ag1275
ag1279
ag1283
ag1287
ag1291
asg45
S'I would notice once when the leaves change color, and some start to fall off and grass is really green.'
p1296
sg47
S'158960'
p1297
ssI23
(dp1298
g2
(lp1299
(lp1300
S'PERFECT'
p1301
aS'165880'
p1302
aS'166000'
p1303
aa(lp1304
S'BUT'
p1305
aS'166120'
p1306
aS'166240'
p1307
aa(lp1308
S'IN'
p1309
aS'166320'
p1310
aS'166440'
p1311
aa(lp1312
S'ns-LA'
p1313
aS'166560'
p1314
aS'166960'
p1315
aa(lp1316
S'IX-loc:i'
p1317
aS'167080'
p1318
aS'167360'
p1319
aa(lp1320
S'FALL'
p1321
aS'167480'
p1322
aS'167920'
p1323
aa(lp1324
S'STILL'
p1325
aS'168120'
p1326
aS'168200'
p1327
aa(lp1328
S'LOOK'
p1329
aS'168280'
p1330
aS'168360'
p1331
aa(lp1332
S'SAME'
p1333
aS'168440'
p1334
aS'168520'
p1335
aa(lp1336
S'SUMMER'
p1337
aS'168600'
p1338
aS'169320'
p1339
aa(lp1340
S'REALLY'
p1341
aS'169400'
p1342
aS'169600'
p1343
aa(lp1344
S'STILL'
p1345
aS'169960'
p1346
aS'170080'
p1347
aa(lp1348
S'HOT'
p1349
aS'170160'
p1350
aS'170640'
p1351
aa(lp1352
S'STILL'
p1353
aS'170840'
p1354
aS'170880'
p1355
aa(lp1356
S'fs-VERY'
p1357
aS'171040'
p1358
aS'171160'
p1359
aa(lp1360
S'HOT'
p1361
aS'171440'
p1362
aS'171960'
p1363
aa(lp1364
S'part:indef'
p1365
aS'172120'
p1366
aS'172480'
p1367
aasg40
S'172480'
p1368
sg42
Nsg43
(lp1369
g1301
ag1305
ag1309
ag1313
ag1317
ag1321
ag1325
ag1329
ag1333
ag1337
ag1341
ag1345
ag1349
ag1353
ag1357
ag1361
ag1365
asg45
S'It is perfect, but fall season in LA, it still looks same as summer season.  It is still very hot.'
p1370
sg47
S'165880'
p1371
ssI24
(dp1372
g2
(lp1373
(lp1374
S'part:indef'
p1375
aS'172480'
p1376
aS'172760'
p1377
aa(lp1378
S'GRASS'
p1379
aS'173040'
p1380
aS'173320'
p1381
aa(lp1382
S'IX-loc:i'
p1383
aS'173520'
p1384
aS'173720'
p1385
aa(lp1386
S'LITTLE-BIT'
p1387
aS'173840'
p1388
aS'174120'
p1389
aa(lp1390
S'BROWN'
p1391
aS'174200'
p1392
aS'175040'
p1393
aa(lp1394
S'part:indef'
p1395
aS'175360'
p1396
aS'175760'
p1397
aa(lp1398
S'OF-COURSE'
p1399
aS'175800'
p1400
aS'176080'
p1401
aa(lp1402
S'TOO'
p1403
aS'176320'
p1404
aS'176480'
p1405
aa(lp1406
S'MUCH'
p1407
aS'176600'
p1408
aS'176800'
p1409
aa(lp1410
S'fs-SUN'
p1411
aS'176960'
p1412
aS'177200'
p1413
aa(lp1414
S'SUN'
p1415
aS'177400'
p1416
aS'177880'
p1417
aa(lp1418
S'NONE'
p1419
aS'177960'
p1420
aS'178120'
p1421
aa(lp1422
S'ENOUGH'
p1423
aS'178400'
p1424
aS'178800'
p1425
aa(lp1426
S'RAIN'
p1427
aS'178880'
p1428
aS'179000'
p1429
aa(lp1430
S'TO'
p1431
aS'179120'
p1432
aS'179200'
p1433
aa(lp1434
S'FEED+'
p1435
aS'179320'
p1436
aS'180000'
p1437
aa(lp1438
S'FLOWER'
p1439
aS'180080'
p1440
aS'180520'
p1441
aa(lp1442
S'PLANT++'
p1443
aS'180880'
p1444
aS'181560'
p1445
aasg40
S'181720'
p1446
sg42
Nsg43
(lp1447
g1375
ag1379
ag1383
ag1387
ag1391
ag1395
ag1399
ag1403
ag1407
ag1411
ag1415
ag1419
ag1423
ag1427
ag1431
ag1435
ag1439
ag1443
asg45
S'The grass is a little bit brownish because of too much sun, not enough rain to feed the flowers and plants.'
p1448
sg47
S'172480'
p1449
ssI25
(dp1450
g2
(lp1451
(lp1452
S'part:indef'
p1453
aS'182560'
p1454
aS'182840'
p1455
aa(lp1456
S'IN'
p1457
aS'183600'
p1458
aS'183960'
p1459
aa(lp1460
S'UNKNOWN'
p1461
aS'184120'
p1462
aS'184240'
p1463
aa(lp1464
S'OF-COURSE'
p1465
aS'184400'
p1466
aS'184720'
p1467
aa(lp1468
S'fs-DEC'
p1469
aS'184880'
p1470
aS'185200'
p1471
aa(lp1472
S'HERE'
p1473
aS'185280'
p1474
aS'185560'
p1475
aa(lp1476
S'FUTURE'
p1477
aS'185680'
p1478
aS'185800'
p1479
aa(lp1480
S'START'
p1481
aS'185880'
p1482
aS'186000'
p1483
aa(lp1484
S'SNOW'
p1485
aS'186080'
p1486
aS'186760'
p1487
aa(lp1488
S'BECOME'
p1489
aS'187160'
p1490
aS'187360'
p1491
aa(lp1492
S'MORE'
p1493
aS'187480'
p1494
aS'187640'
p1495
aa(lp1496
S'COLD'
p1497
aS'187800'
p1498
aS'188440'
p1499
aa(lp1500
S'LEAVE'
p1501
aS'188760'
p1502
aS'189160'
p1503
aa(lp1504
S'FALL++'
p1505
aS'189360'
p1506
aS'189920'
p1507
aa(lp1508
S'TREE'
p1509
aS'190040'
p1510
aS'190280'
p1511
aa(lp1512
S'EMPTY'
p1513
aS'190720'
p1514
aS'190960'
p1515
aa(lp1516
S'cl:3quotation'
p1517
aS'191040'
p1518
aS'191320'
p1519
aa(lp1520
S'NAKE'
p1521
aS'191440'
p1522
aS'191800'
p1523
aa(lp1524
S'TREE'
p1525
aS'191880'
p1526
aS'192400'
p1527
aasg40
S'192400'
p1528
sg42
Nsg43
(lp1529
g1453
ag1457
ag1461
ag1465
ag1469
ag1473
ag1477
ag1481
ag1485
ag1489
ag1493
ag1497
ag1501
ag1505
ag1509
ag1513
ag1517
ag1521
ag1525
asg45
S'In December, there would have start snowing, colder and trees are naked because of no leaves.'
p1530
sg47
S'181720'
p1531
ssI26
(dp1532
g2
(lp1533
(lp1534
S'TREE'
p1535
aS'192400'
p1536
aS'192760'
p1537
aa(lp1538
S'part:indef'
p1539
aS'193040'
p1540
aS'193160'
p1541
aa(lp1542
S'IX-loc:i'
p1543
aS'193240'
p1544
aS'193480'
p1545
aa(lp1546
S'ns-LA'
p1547
aS'193600'
p1548
aS'194080'
p1549
aa(lp1550
S'COLD'
p1551
aS'194520'
p1552
aS'195120'
p1553
aa(lp1554
S'REALLY'
p1555
aS'195200'
p1556
aS'195280'
p1557
aa(lp1558
S'LITTLE-BIT'
p1559
aS'195400'
p1560
aS'195880'
p1561
aa(lp1562
S'cl:5lower'
p1563
aS'196000'
p1564
aS'196840'
p1565
aa(lp1566
S'COOLER'
p1567
aS'197000'
p1568
aS'197560'
p1569
aa(lp1570
S'BUT'
p1571
aS'197680'
p1572
aS'197880'
p1573
aa(lp1574
S'STILL'
p1575
aS'197960'
p1576
aS'198240'
p1577
aa(lp1578
S'HOT'
p1579
aS'198360'
p1580
aS'199080'
p1581
aa(lp1582
S'cl:3quotation'
p1583
aS'199280'
p1584
aS'199600'
p1585
aasg40
S'199600'
p1586
sg42
Nsg43
(lp1587
g1535
ag1539
ag1543
ag1547
ag1551
ag1555
ag1559
ag1563
ag1567
ag1571
ag1575
ag1579
ag1583
asg45
S'In LA, it would get cooler a little bit,  but at same time it is still hot.'
p1588
sg47
S'192400'
p1589
ssI27
(dp1590
g2
(lp1591
(lp1592
S'#TO'
p1593
aS'200120'
p1594
aS'200280'
p1595
aa(lp1596
S'MOST'
p1597
aS'200440'
p1598
aS'200600'
p1599
aa(lp1600
S'#OF'
p1601
aS'200680'
p1602
aS'200720'
p1603
aa(lp1604
S'IX-3p-arc'
p1605
aS'200800'
p1606
aS'200960'
p1607
aa(lp1608
S'IN'
p1609
aS'201040'
p1610
aS'201120'
p1611
aa(lp1612
S'ns-BOSTON'
p1613
aS'201240'
p1614
aS'201440'
p1615
aa(lp1616
S'ns-BOSTONIAN'
p1617
aS'201640'
p1618
aS'202280'
p1619
aa(lp1620
S'IX-3p-arc'
p1621
aS'202440'
p1622
aS'202560'
p1623
aa(lp1624
S'STILL'
p1625
aS'202640'
p1626
aS'202720'
p1627
aa(lp1628
S'HOT'
p1629
aS'202880'
p1630
aS'203120'
p1631
aa(lp1632
S'IN'
p1633
aS'203200'
p1634
aS'203360'
p1635
aa(lp1636
S'ns-LA'
p1637
aS'203480'
p1638
aS'204040'
p1639
aa(lp1640
S'part:indef'
p1641
aS'204560'
p1642
aS'205400'
p1643
aa(lp1644
S'STILL'
p1645
aS'205480'
p1646
aS'205680'
p1647
aa(lp1648
S'70'
p1649
aS'206160'
p1650
aS'206320'
p1651
aa(lp1652
S'75'
p1653
aS'206840'
p1654
aS'207000'
p1655
aa(lp1656
S'EVERYDAY'
p1657
aS'207200'
p1658
aS'208000'
p1659
aasg40
S'208000'
p1660
sg42
Nsg43
(lp1661
g1593
ag1597
ag1601
ag1605
ag1609
ag1613
ag1617
ag1621
ag1625
ag1629
ag1633
ag1637
ag1641
ag1645
ag1649
ag1653
ag1657
asg45
S'Most bostonian who are in LA still feel like hot, its 70 to 75 degrees.'
p1662
sg47
S'199600'
p1663
ssI28
(dp1664
g2
(lp1665
(lp1666
S'SUN'
p1667
aS'208400'
p1668
aS'208760'
p1669
aa(lp1670
S'STILL'
p1671
aS'208880'
p1672
aS'208920'
p1673
aa(lp1674
S'BUT'
p1675
aS'208960'
p1676
aS'209120'
p1677
aa(lp1678
S'NIGHT'
p1679
aS'209240'
p1680
aS'210040'
p1681
aa(lp1682
S'part:indef'
p1683
aS'210280'
p1684
aS'211000'
p1685
aa(lp1686
S'LITTLE-BIT'
p1687
aS'211080'
p1688
aS'211280'
p1689
aa(lp1690
S'MORE'
p1691
aS'211360'
p1692
aS'211480'
p1693
aa(lp1694
S'COOLER'
p1695
aS'211560'
p1696
aS'212280'
p1697
aa(lp1698
S'UNKNOWN'
p1699
aS'212440'
p1700
aS'212680'
p1701
aa(lp1702
S'part:indef'
p1703
aS'213520'
p1704
aS'214040'
p1705
aasg40
S'214480'
p1706
sg42
Nsg43
(lp1707
g1667
ag1671
ag1675
ag1679
ag1683
ag1687
ag1691
ag1695
ag1699
ag1703
asg45
S'The sun was still there, but during night time, its a little cooler.'
p1708
sg47
S'208000'
p1709
ssI29
(dp1710
g2
(lp1711
(lp1712
S'SPRING++'
p1713
aS'215040'
p1714
aS'216320'
p1715
aa(lp1716
S'IX-1p'
p1717
aS'216520'
p1718
aS'216720'
p1719
aa(lp1720
S'ADMIT'
p1721
aS'216800'
p1722
aS'217120'
p1723
aa(lp1724
S'ONE'
p1725
aS'217240'
p1726
aS'217320'
p1727
aa(lp1728
S'NEGATIVE'
p1729
aS'217400'
p1730
aS'217720'
p1731
aa(lp1732
S'ABOUT'
p1733
aS'217800'
p1734
aS'217920'
p1735
aa(lp1736
S'IX-loc:i'
p1737
aS'218000'
p1738
aS'218160'
p1739
aa(lp1740
S'fs-BOSTON'
p1741
aS'218320'
p1742
aS'218960'
p1743
aa(lp1744
S'SPRING++'
p1745
aS'219040'
p1746
aS'219600'
p1747
aa(lp1748
S'REALLY'
p1749
aS'219680'
p1750
aS'219840'
p1751
aa(lp1752
S'ALOT'
p1753
aS'219960'
p1754
aS'220120'
p1755
aa(lp1756
S'RAIN'
p1757
aS'220280'
p1758
aS'221400'
p1759
aasg40
S'221400'
p1760
sg42
Nsg43
(lp1761
g1713
ag1717
ag1721
ag1725
ag1729
ag1733
ag1737
ag1741
ag1745
ag1749
ag1753
ag1757
asg45
S'I have to admit that during spring time in Boston, there is a lot of raining.'
p1762
sg47
S'214480'
p1763
ssI30
(dp1764
g2
(lp1765
(lp1766
S'WHILE'
p1767
aS'221680'
p1768
aS'221960'
p1769
aa(lp1770
S'ns-LA'
p1771
aS'222040'
p1772
aS'222640'
p1773
aa(lp1774
S'BETTER'
p1775
aS'223600'
p1776
aS'223960'
p1777
aa(lp1778
S'PERFECT'
p1779
aS'224120'
p1780
aS'224560'
p1781
aa(lp1782
S'NONE'
p1783
aS'224680'
p1784
aS'224800'
p1785
aa(lp1786
S'RAIN'
p1787
aS'224920'
p1788
aS'225840'
p1789
aasg40
S'225840'
p1790
sg42
Nsg43
(lp1791
g1767
ag1771
ag1775
ag1779
ag1783
ag1787
asg45
S'While in LA, its better and perfect because of no rain.'
p1792
sg47
S'221400'
p1793
ssI31
(dp1794
g2
(lp1795
(lp1796
S'REALLY'
p1797
aS'225960'
p1798
aS'226160'
p1799
aa(lp1800
S'ONCE-A-WHILE'
p1801
aS'226200'
p1802
aS'226880'
p1803
aa(lp1804
S'BUT'
p1805
aS'226960'
p1806
aS'227200'
p1807
aa(lp1808
S'FUN'
p1809
aS'227320'
p1810
aS'227480'
p1811
aa(lp1812
S'THING'
p1813
aS'227560'
p1814
aS'227680'
p1815
aa(lp1816
S'ABOUT'
p1817
aS'227760'
p1818
aS'227880'
p1819
aa(lp1820
S'ns-LA'
p1821
aS'228000'
p1822
aS'228520'
p1823
aa(lp1824
S'WHEN'
p1825
aS'228640'
p1826
aS'228800'
p1827
aa(lp1828
S'RAIN'
p1829
aS'229120'
p1830
aS'229440'
p1831
aa(lp1832
S'IN'
p1833
aS'229520'
p1834
aS'229720'
p1835
aa(lp1836
S'ns-LA'
p1837
aS'229800'
p1838
aS'230240'
p1839
aasg40
S'231113'
p1840
sg42
Nsg43
(lp1841
g1797
ag1801
ag1805
ag1809
ag1813
ag1817
ag1821
ag1825
ag1829
ag1833
ag1837
asg45
S'Well, there is rain once a while but funny thing, when there is rain in LA.'
p1842
sg47
S'225840'
p1843
ssI32
(dp1844
g2
(lp1845
(lp1846
S'REALLY'
p1847
aS'231640'
p1848
aS'231760'
p1849
aa(lp1850
S'IX-3p:i'
p1851
aS'231840'
p1852
aS'231880'
p1853
aa(lp1854
S'AFTER'
p1855
aS'231960'
p1856
aS'232360'
p1857
aa(lp1858
S'EXTEND'
p1859
aS'232520'
p1860
aS'233320'
p1861
aa(lp1862
S'IX-loc:i'
p1863
aS'233400'
p1864
aS'233600'
p1865
aa(lp1866
S'FUTURE'
p1867
aS'233680'
p1868
aS'234040'
p1869
aa(lp1870
S'USE'
p1871
aS'234200'
p1872
aS'234880'
p1873
aa(lp1874
S'COAT'
p1875
aS'235000'
p1876
aS'235200'
p1877
aa(lp1878
S'RAIN'
p1879
aS'235280'
p1880
aS'235520'
p1881
aa(lp1882
S'COAT'
p1883
aS'235640'
p1884
aS'236240'
p1885
aa(lp1886
S'USE'
p1887
aS'236440'
p1888
aS'236600'
p1889
aa(lp1890
S'UMBRELLA'
p1891
aS'236680'
p1892
aS'237400'
p1893
aa(lp1894
g94
aS'238080'
p1895
aa(lp1896
S'BOOT'
p1897
aS'238280'
p1898
aS'239000'
p1899
aa(lp1900
S'PANT'
p1901
aS'239240'
p1902
aS'239960'
p1903
aasg40
S'239960'
p1904
sg42
Nsg43
(lp1905
g1847
ag1851
ag1855
ag1859
ag1863
ag1867
ag1871
ag1875
ag1879
ag1883
ag1887
ag1891
ag94
ag1897
ag1901
asg45
S'People would use umbrella and wear rain coat, boots and pants on.'
p1906
sg47
S'231113'
p1907
ssI33
(dp1908
g2
(lp1909
(lp1910
S'PANT'
p1911
aS'239960'
p1912
aS'240000'
p1913
aa(lp1914
S'REALLY'
p1915
aS'240080'
p1916
aS'240160'
p1917
aa(lp1918
S'IF'
p1919
aS'240280'
p1920
aS'240520'
p1921
aa(lp1922
S'LITTLE-BIT'
p1923
aS'240640'
p1924
aS'240800'
p1925
aa(lp1926
S'DROP++'
p1927
aS'240880'
p1928
aS'241680'
p1929
aa(lp1930
S'IX-1p'
p1931
aS'241720'
p1932
aS'241840'
p1933
aa(lp1934
S'REMEMBER'
p1935
aS'241920'
p1936
aS'242320'
p1937
aa(lp1938
S'ONE'
p1939
aS'242440'
p1940
aS'242480'
p1941
aa(lp1942
S'fs-DAY'
p1943
aS'242520'
p1944
aS'242920'
p1945
aasg40
S'243120'
p1946
sg42
Nsg43
(lp1947
g1911
ag1915
ag1919
ag1923
ag1927
ag1931
ag1935
ag1939
ag1943
asg45
S'Even if there is a little of rain, like a drop.  I remember one day,'
p1948
sg47
S'239960'
p1949
ssI34
(dp1950
g2
(lp1951
(lp1952
S'IX-1p'
p1953
aS'243120'
p1954
aS'243280'
p1955
aa(lp1956
S'GO'
p1957
aS'243400'
p1958
aS'243760'
p1959
aa(lp1960
S'CLASS'
p1961
aS'243880'
p1962
aS'244400'
p1963
aa(lp1964
S'ON'
p1965
aS'244520'
p1966
aS'244640'
p1967
aa(lp1968
S'POSS-1p'
p1969
aS'244760'
p1970
aS'244880'
p1971
aa(lp1972
S'SWIM++'
p1973
aS'245000'
p1974
aS'246160'
p1975
aa(lp1976
S'IX-1p'
p1977
aS'246200'
p1978
aS'246320'
p1979
aa(lp1980
S'SHORT'
p1981
aS'246600'
p1982
aS'246960'
p1983
aa(lp1984
S'TANK'
p1985
aS'247320'
p1986
aS'248360'
p1987
aa(lp1988
S'KNOW'
p1989
aS'248480'
p1990
aS'248600'
p1991
aa(lp1992
S'BASKETBALL'
p1993
aS'248720'
p1994
aS'248920'
p1995
aa(lp1996
S'TANK'
p1997
aS'249080'
p1998
aS'249440'
p1999
aa(lp2000
S'SAME'
p2001
aS'249920'
p2002
aS'250240'
p2003
aasg40
S'250240'
p2004
sg42
Nsg43
(lp2005
g1953
ag1957
ag1961
ag1965
ag1969
ag1973
ag1977
ag1981
ag1985
ag1989
ag1993
ag1997
ag2001
asg45
S'I went to the class, I swam with short and tank top on, you know, basketball tank top, its same idea.'
p2006
sg47
S'243120'
p2007
ssI35
(dp2008
g2
(lp2009
(lp2010
S'IX-1p'
p2011
aS'250400'
p2012
aS'250600'
p2013
aa(lp2014
S'part:indef'
p2015
aS'250760'
p2016
aS'250840'
p2017
aa(lp2018
S'IN'
p2019
aS'250920'
p2020
aS'251120'
p2021
aa(lp2022
S'RAIN'
p2023
aS'251280'
p2024
aS'251640'
p2025
aa(lp2026
S'LITTLE-BIT'
p2027
aS'251760'
p2028
aS'251960'
p2029
aa(lp2030
S'RAIN'
p2031
aS'252080'
p2032
aS'252400'
p2033
aa(lp2034
S'IX-1p'
p2035
aS'252480'
p2036
aS'252640'
p2037
aa(lp2038
S'SWIM'
p2039
aS'252840'
p2040
aS'253520'
p2041
aasg40
S'253520'
p2042
sg42
Nsg43
(lp2043
g2011
ag2015
ag2019
ag2023
ag2027
ag2031
ag2035
ag2039
asg45
S'When there is a little of rain and I was swimming..'
p2044
sg47
S'250240'
p2045
ssI36
(dp2046
g2
(lp2047
(lp2048
S'SWIM'
p2049
aS'253520'
p2050
aS'253720'
p2051
aa(lp2052
S'IX-1p'
p2053
aS'253840'
p2054
aS'253960'
p2055
aa(lp2056
S'LOOK'
p2057
aS'254080'
p2058
aS'254320'
p2059
aa(lp2060
S'MANY'
p2061
aS'254480'
p2062
aS'254520'
p2063
aa(lp2064
S'PEOPLE'
p2065
aS'254560'
p2066
aS'254760'
p2067
aa(lp2068
S'cl:4look at me'
p2069
aS'254880'
p2070
aS'255440'
p2071
aa(lp2072
S'#AT'
p2073
aS'255560'
p2074
aS'255800'
p2075
aa(lp2076
S'IX-1p'
p2077
aS'255920'
p2078
aS'256040'
p2079
aa(lp2080
S'SAME'
p2081
aS'256160'
p2082
aS'256280'
p2083
aa(lp2084
S'IX-1p'
p2085
aS'256360'
p2086
aS'256440'
p2087
aa(lp2088
S'REALLY'
p2089
aS'256520'
p2090
aS'256840'
p2091
aa(lp2092
S'COMPLETE'
p2093
aS'256920'
p2094
aS'257280'
p2095
aa(lp2096
S'IDIOT'
p2097
aS'257400'
p2098
aS'257880'
p2099
aa(lp2100
S'BUT'
p2101
aS'258000'
p2102
aS'258280'
p2103
aa(lp2104
S'REALLY'
p2105
aS'258480'
p2106
aS'258600'
p2107
aa(lp2108
S'IX-1p'
p2109
aS'258840'
p2110
aS'259000'
p2111
aa(lp2112
S'part:indef'
p2113
aS'259320'
p2114
aS'259840'
p2115
aasg40
S'259840'
p2116
sg42
Nsg43
(lp2117
g2049
ag2053
ag2057
ag2061
ag2065
ag2069
ag2073
ag2077
ag2081
ag2085
ag2089
ag2093
ag2097
ag2101
ag2105
ag2109
ag2113
asg45
S'I noticed many people were looking at me like I am completely idiot to swim while its raining.'
p2118
sg47
S'253520'
p2119
ssI37
(dp2120
g2
(lp2121
(lp2122
S'IX-1p'
p2123
aS'260000'
p2124
aS'260080'
p2125
aa(lp2126
S'THINK'
p2127
aS'260160'
p2128
aS'260240'
p2129
aa(lp2130
S'WEATHER'
p2131
aS'260320'
p2132
aS'260640'
p2133
aa(lp2134
S'NICE'
p2135
aS'260720'
p2136
aS'260960'
p2137
aa(lp2138
S'LITTLE-BIT'
p2139
aS'261040'
p2140
aS'261280'
p2141
aa(lp2142
S'RAIN'
p2143
aS'261560'
p2144
aS'261880'
p2145
aa(lp2146
S'REALLY'
p2147
aS'261960'
p2148
aS'262120'
p2149
aa(lp2150
S'NOTHING'
p2151
aS'262160'
p2152
aS'262720'
p2153
aa(lp2154
S'IX-3p'
p2155
aS'262840'
p2156
aS'263080'
p2157
aa(lp2158
S'WEAR'
p2159
aS'263200'
p2160
aS'263400'
p2161
aa(lp2162
S'LONG-SLEEVE'
p2163
aS'263520'
p2164
aS'264480'
p2165
aasg40
S'264680'
p2166
sg42
Nsg43
(lp2167
g2123
ag2127
ag2131
ag2135
ag2139
ag2143
ag2147
ag2151
ag2155
ag2159
ag2163
asg45
S'I thought the weather was nice, a little rain but its nothing.  People wore long sleeves.'
p2168
sg47
S'259840'
p2169
ssI38
(dp2170
g2
(lp2171
(lp2172
S'IX-1p'
p2173
aS'264800'
p2174
aS'265000'
p2175
aa(lp2176
S'part:indef'
p2177
aS'265120'
p2178
aS'265240'
p2179
aa(lp2180
S'THAT'
p2181
aS'265360'
p2182
aS'265680'
p2183
aa(lp2184
S'ONE'
p2185
aS'265800'
p2186
aS'266120'
p2187
aa(lp2188
S'wow'
p2189
aS'266280'
p2190
aS'267040'
p2191
aa(lp2192
S'NEGATIVE'
p2193
aS'267160'
p2194
aS'267360'
p2195
aa(lp2196
S'BUT'
p2197
aS'267440'
p2198
aS'267640'
p2199
aa(lp2200
S'ns-LA'
p2201
aS'267720'
p2202
aS'268000'
p2203
aa(lp2204
S'IX-loc:i'
p2205
aS'268120'
p2206
aS'268200'
p2207
aa(lp2208
S'NONE'
p2209
aS'268280'
p2210
aS'268680'
p2211
aa(lp2212
S'fs-SEWER'
p2213
aS'268840'
p2214
aS'269720'
p2215
aa(lp2216
g94
aS'270000'
p2217
aa(lp2218
S'SYSTEM'
p2219
aS'270120'
p2220
aS'270920'
p2221
aasg40
S'270920'
p2222
sg42
Nsg43
(lp2223
g2173
ag2177
ag2181
ag2185
ag2189
ag2193
ag2197
ag2201
ag2205
ag2209
ag2213
ag94
ag2219
asg45
S"That time I was like wow, its negative thing about LA.  In LA, they didn't have any sewer systems."
p2224
sg47
S'264680'
p2225
ssI39
(dp2226
g2
(lp2227
(lp2228
S'#ALL'
p2229
aS'271800'
p2230
aS'271960'
p2231
aa(lp2232
S'WATER'
p2233
aS'272080'
p2234
aS'272400'
p2235
aa(lp2236
S'FUTURE'
p2237
aS'272520'
p2238
aS'272640'
p2239
aa(lp2240
S'FLOOD'
p2241
aS'272840'
p2242
aS'273440'
p2243
aa(lp2244
S'CAN'
p2245
aS'273480'
p2246
aS'273840'
p2247
aa(lp2248
S'IF'
p2249
aS'273920'
p2250
aS'274120'
p2251
aa(lp2252
S'TRUE-BITS'
p2253
aS'274280'
p2254
aS'274960'
p2255
aa(lp2256
S'IX-1p-arc'
p2257
aS'275200'
p2258
aS'275480'
p2259
aa(lp2260
S'RAIN'
p2261
aS'275600'
p2262
aS'275960'
p2263
aa(lp2264
S'TOTAL'
p2265
aS'276080'
p2266
aS'276560'
p2267
aa(lp2268
S'HERE'
p2269
aS'276680'
p2270
aS'276760'
p2271
aa(lp2272
S'cl:1all the year'
p2273
aS'277000'
p2274
aS'277360'
p2275
aa(lp2276
S'BRING'
p2277
aS'277640'
p2278
aS'277880'
p2279
aa(lp2280
S'GIFT'
p2281
aS'278040'
p2282
aS'278360'
p2283
aa(lp2284
S'TO'
p2285
aS'278400'
p2286
aS'278520'
p2287
aa(lp2288
S'ns-LA'
p2289
aS'278600'
p2290
aS'278800'
p2291
aasg40
S'278800'
p2292
sg42
Nsg43
(lp2293
g2229
ag2233
ag2237
ag2241
ag2245
ag2249
ag2253
ag2257
ag2261
ag2265
ag2269
ag2273
ag2277
ag2281
ag2285
ag2289
asg45
S"If the total of Boston's rain all the year brings to LA area, they would get flood."
p2294
sg47
S'270920'
p2295
ssI40
(dp2296
g2
(lp2297
(lp2298
S'ns-LA'
p2299
aS'278800'
p2300
aS'278960'
p2301
aa(lp2302
S'ns-LA'
p2303
aS'279040'
p2304
aS'279280'
p2305
aa(lp2306
S'FINISH'
p2307
aS'279440'
p2308
aS'279600'
p2309
aa(lp2310
S'FUTURE'
p2311
aS'279680'
p2312
aS'279800'
p2313
aa(lp2314
S'FLOOD'
p2315
aS'279880'
p2316
aS'280360'
p2317
aa(lp2318
S'FOR'
p2319
aS'280480'
p2320
aS'280640'
p2321
aa(lp2322
S'SURE'
p2323
aS'280720'
p2324
aS'281400'
p2325
aasg40
S'281520'
p2326
sg42
Nsg43
(lp2327
g2299
ag2303
ag2307
ag2311
ag2315
ag2319
ag2323
asg45
S'In LA, they would get flood out crazy for sure.'
p2328
sg47
S'278800'
p2329
ssI41
(dp2330
g2
(lp2331
(lp2332
S'WHY'
p2333
aS'281600'
p2334
aS'281640'
p2335
aa(lp2336
S'IX-1p-arc'
p2337
aS'281720'
p2338
aS'281960'
p2339
aa(lp2340
S'HAVE'
p2341
aS'282040'
p2342
aS'282280'
p2343
aa(lp2344
S'BETTER'
p2345
aS'282360'
p2346
aS'282800'
p2347
aa(lp2348
S'fs-SEWER'
p2349
aS'282880'
p2350
aS'283680'
p2351
aa(lp2352
S'SYSTEM'
p2353
aS'283800'
p2354
aS'284400'
p2355
aa(lp2356
S'WATER'
p2357
aS'284520'
p2358
aS'284720'
p2359
aa(lp2360
S'CAN'
p2361
aS'284800'
p2362
aS'284880'
p2363
aa(lp2364
S'THROUGH'
p2365
aS'284960'
p2366
aS'285880'
p2367
aasg40
S'285880'
p2368
sg42
Nsg43
(lp2369
g2333
ag2337
ag2341
ag2345
ag2349
ag2353
ag2357
ag2361
ag2365
asg45
S'Why? Because we have better sewer system where water can get through.'
p2370
sg47
S'281520'
p2371
ssI42
(dp2372
g2
(lp2373
(lp2374
S'IX-3p-arc'
p2375
aS'286120'
p2376
aS'286320'
p2377
aa(lp2378
S'CAN'
p2379
aS'286400'
p2380
aS'286520'
p2381
aa(lp2382
S'RAIN'
p2383
aS'286600'
p2384
aS'286880'
p2385
aa(lp2386
S'EVERYDAY'
p2387
aS'287000'
p2388
aS'287280'
p2389
aa(lp2390
S'AND'
p2391
aS'287400'
p2392
aS'287520'
p2393
aa(lp2394
S'STILL'
p2395
aS'287600'
p2396
aS'288280'
p2397
aa(lp2398
S'LIVE'
p2399
aS'288360'
p2400
aS'288600'
p2401
aa(lp2402
S'THROUGH'
p2403
aS'288760'
p2404
aS'288920'
p2405
aa(lp2406
S'#IT'
p2407
aS'288960'
p2408
aS'289120'
p2409
aa(lp2410
S'FINE'
p2411
aS'289240'
p2412
aS'289600'
p2413
aasg40
S'290160'
p2414
sg42
Nsg43
(lp2415
g2375
ag2379
ag2383
ag2387
ag2391
ag2395
ag2399
ag2403
ag2407
ag2411
asg45
S'We will survive through rain so it can rain everyday.'
p2416
sg47
S'285880'
p2417
ssI43
(dp2418
g2
(lp2419
(lp2420
S'BUT'
p2421
aS'290360'
p2422
aS'290520'
p2423
aa(lp2424
S'UNKNOWN'
p2425
aS'290560'
p2426
aS'290720'
p2427
aa(lp2428
S'OF-COURSE'
p2429
aS'290840'
p2430
aS'291160'
p2431
aa(lp2432
S'NOT'
p2433
aS'291200'
p2434
aS'291320'
p2435
aa(lp2436
S'RAIN'
p2437
aS'291440'
p2438
aS'291640'
p2439
aa(lp2440
S'EVERYDAY'
p2441
aS'291720'
p2442
aS'292080'
p2443
aa(lp2444
S'IN'
p2445
aS'292160'
p2446
aS'292360'
p2447
aa(lp2448
S'ns-BOSTON'
p2449
aS'292520'
p2450
aS'292800'
p2451
aa(lp2452
S'UNKNOWN'
p2453
aS'292880'
p2454
aS'293200'
p2455
aa(lp2456
S'STILL'
p2457
aS'293280'
p2458
aS'293400'
p2459
aa(lp2460
S'HAVE'
p2461
aS'293520'
p2462
aS'293600'
p2463
aa(lp2464
S'WONDERFUL'
p2465
aS'293720'
p2466
aS'293800'
p2467
aa(lp2468
S'WEATHER'
p2469
aS'293920'
p2470
aS'294240'
p2471
aa(lp2472
S'HERE'
p2473
aS'294400'
p2474
aS'294680'
p2475
aa(lp2476
S'IN'
p2477
aS'294840'
p2478
aS'294960'
p2479
aa(lp2480
S'fs-BOSTON'
p2481
aS'295080'
p2482
aS'296320'
p2483
aasg40
S'296320'
p2484
sg42
Nsg43
(lp2485
g2421
ag2425
ag2429
ag2433
ag2437
ag2441
ag2445
ag2449
ag2453
ag2457
ag2461
ag2465
ag2469
ag2473
ag2477
ag2481
asg45
S'But of course, we didnt get rain everyday in Boston.  We do have wonderful weathers here.'
p2486
sg47
S'290160'
p2487
ssI44
(dp2488
g2
(lp2489
(lp2490
S'NEXT'
p2491
aS'297000'
p2492
aS'297360'
p2493
aa(lp2494
S'SAME'
p2495
aS'297480'
p2496
aS'297640'
p2497
aa(lp2498
S'part:indef'
p2499
aS'297760'
p2500
aS'298160'
p2501
aa(lp2502
S'START'
p2503
aS'298320'
p2504
aS'298560'
p2505
aa(lp2506
S'SUMMER'
p2507
aS'298720'
p2508
aS'299800'
p2509
aa(lp2510
g94
aS'300280'
p2511
aa(lp2512
S'part:indef'
p2513
aS'300400'
p2514
aS'300760'
p2515
aa(lp2516
S'POSS-1p'
p2517
aS'300800'
p2518
aS'301000'
p2519
aa(lp2520
S'fs-VERY'
p2521
aS'301080'
p2522
aS'301400'
p2523
aa(lp2524
S'fs-HUMID'
p2525
aS'301480'
p2526
aS'302320'
p2527
aa(lp2528
S'HERE'
p2529
aS'302440'
p2530
aS'303240'
p2531
aasg40
S'303240'
p2532
sg42
Nsg43
(lp2533
g2491
ag2495
ag2499
ag2503
ag2507
ag94
ag2513
ag2517
ag2521
ag2525
ag2529
asg45
S'Other thing, in summer, its very humidy here.'
p2534
sg47
S'296320'
p2535
ssI45
(dp2536
g2
(lp2537
(lp2538
S'HERE'
p2539
aS'303240'
p2540
aS'303320'
p2541
aa(lp2542
S'MORE'
p2543
aS'304000'
p2544
aS'304120'
p2545
aa(lp2546
S'fs-SUN'
p2547
aS'304280'
p2548
aS'304520'
p2549
aa(lp2550
S'MORE'
p2551
aS'304600'
p2552
aS'304880'
p2553
aa(lp2554
S'STRONG'
p2555
aS'305040'
p2556
aS'305320'
p2557
aa(lp2558
S'cl:5 ray into us'
p2559
aS'305440'
p2560
aS'306040'
p2561
aa(lp2562
S'WHILE'
p2563
aS'306160'
p2564
aS'306560'
p2565
aa(lp2566
g94
aS'306800'
p2567
aa(lp2568
S'ns-LA'
p2569
aS'306840'
p2570
aS'307920'
p2571
aa(lp2572
S'UNKNOWN'
p2573
aS'308160'
p2574
aS'308320'
p2575
aa(lp2576
S'DRY'
p2577
aS'308520'
p2578
aS'309200'
p2579
aa(lp2580
S'BUT'
p2581
aS'309560'
p2582
aS'309840'
p2583
aa(lp2584
S'SARCASM'
p2585
aS'309920'
p2586
aS'310480'
p2587
aa(lp2588
S'100'
p2589
aS'310840'
p2590
aS'311080'
p2591
aa(lp2592
S'110'
p2593
aS'311160'
p2594
aS'311600'
p2595
aa(lp2596
S'DEGREE'
p2597
aS'311840'
p2598
aS'312040'
p2599
aasg40
S'312040'
p2600
sg42
Nsg43
(lp2601
g2539
ag2543
ag2547
ag2551
ag2555
ag2559
ag2563
ag94
ag2569
ag2573
ag2577
ag2581
ag2585
ag2589
ag2593
ag2597
asg45
S'Its because of sun is stronger here than in LA where it is dry but, at same time, its 100 to 110 degrees.'
p2602
sg47
S'303240'
p2603
ssI46
(dp2604
g2
(lp2605
(lp2606
S'DEGREE'
p2607
aS'312040'
p2608
aS'312200'
p2609
aa(lp2610
S'BECAUSE'
p2611
aS'312240'
p2612
aS'312480'
p2613
aa(lp2614
S'WHERE'
p2615
aS'312560'
p2616
aS'312800'
p2617
aa(lp2618
S'IX-1p'
p2619
aS'312880'
p2620
aS'313000'
p2621
aa(lp2622
S'FROM'
p2623
aS'313080'
p2624
aS'313360'
p2625
aa(lp2626
S'fs-NORTHRIDGE'
p2627
aS'313480'
p2628
aS'314480'
p2629
aa(lp2630
S'TEND'
p2631
aS'314600'
p2632
aS'315000'
p2633
aa(lp2634
g94
aS'315120'
p2635
aa(lp2636
S'TEN'
p2637
aS'315200'
p2638
aS'315400'
p2639
aa(lp2640
S'FIFTEEN'
p2641
aS'315520'
p2642
aS'315760'
p2643
aa(lp2644
S'DEGREE'
p2645
aS'315840'
p2646
aS'315960'
p2647
aa(lp2648
S'MORE'
p2649
aS'316160'
p2650
aS'316400'
p2651
aa(lp2652
S'THAN'
p2653
aS'316560'
p2654
aS'316720'
p2655
aasg40
S'317040'
p2656
sg42
Nsg43
(lp2657
g2607
ag2611
ag2615
ag2619
ag2623
ag2627
ag2631
ag94
ag2637
ag2641
ag2645
ag2649
ag2653
asg45
S'In Northridge tends to have ten to fifteen degrees more than LA.'
p2658
sg47
S'312040'
p2659
ssI47
(dp2660
g2
(lp2661
(lp2662
S'SAME'
p2663
aS'317400'
p2664
aS'317480'
p2665
aa(lp2666
S'IX-2p'
p2667
aS'317560'
p2668
aS'317600'
p2669
aa(lp2670
S'IF'
p2671
aS'317680'
p2672
aS'317840'
p2673
aa(lp2674
S'IX-2p'
p2675
aS'318000'
p2676
aS'318080'
p2677
aa(lp2678
S'SEE'
p2679
aS'318160'
p2680
aS'318320'
p2681
aa(lp2682
S'ON'
p2683
aS'318480'
p2684
aS'318560'
p2685
aa(lp2686
S'WEATHER'
p2687
aS'318640'
p2688
aS'318920'
p2689
aa(lp2690
S'CHANNEL'
p2691
aS'319000'
p2692
aS'319280'
p2693
aa(lp2694
S'IX-3p'
p2695
aS'319360'
p2696
aS'319480'
p2697
aa(lp2698
S'ns-LA'
p2699
aS'319560'
p2700
aS'320000'
p2701
aa(lp2702
S'85'
p2703
aS'320120'
p2704
aS'320560'
p2705
aa(lp2706
S'DEGREE'
p2707
aS'320640'
p2708
aS'320920'
p2709
aa(lp2710
S'MEAN'
p2711
aS'321040'
p2712
aS'321120'
p2713
aa(lp2714
g94
aS'321880'
p2715
aa(lp2716
S'IN'
p2717
aS'322120'
p2718
aS'322360'
p2719
aa(lp2720
S'ns-NORTHRIDGE'
p2721
aS'322480'
p2722
aS'323920'
p2723
aa(lp2724
S'REALLY'
p2725
aS'324200'
p2726
aS'324400'
p2727
aa(lp2728
S'wow'
p2729
aS'324560'
p2730
aS'325920'
p2731
aasg40
S'325920'
p2732
sg42
Nsg43
(lp2733
g2663
ag2667
ag2671
ag2675
ag2679
ag2683
ag2687
ag2691
ag2695
ag2699
ag2703
ag2707
ag2711
ag94
ag2717
ag2721
ag2725
ag2729
asg45
S'If you see on weather channel, you will notice that if its 85 degrees in LA, that means 100 degrees in Northridge.'
p2734
sg47
S'317040'
p2735
ssI48
(dp2736
g2
(lp2737
(lp2738
S'REALLY'
p2739
aS'326000'
p2740
aS'326160'
p2741
aa(lp2742
S'part:indef'
p2743
aS'326280'
p2744
aS'326920'
p2745
aa(lp2746
S'BIG'
p2747
aS'326960'
p2748
aS'327120'
p2749
aa(lp2750
S'DIFFERENT'
p2751
aS'327200'
p2752
aS'327480'
p2753
aa(lp2754
S'FROM'
p2755
aS'327560'
p2756
aS'327760'
p2757
aa(lp2758
S'HERE'
p2759
aS'327840'
p2760
aS'328160'
p2761
aasg40
S'328160'
p2762
sg42
Nsg43
(lp2763
g2739
ag2743
ag2747
ag2751
ag2755
ag2759
asg45
S'Really, its big different from here.'
p2764
sg47
S'325920'
p2765
ssI49
(dp2766
g2
(lp2767
(lp2768
S'WHY'
p2769
aS'328280'
p2770
aS'328440'
p2771
aa(lp2772
S'HERE'
p2773
aS'328560'
p2774
aS'328760'
p2775
aa(lp2776
S'80'
p2777
aS'328920'
p2778
aS'329280'
p2779
aa(lp2780
g94
aS'329360'
p2781
aa(lp2782
S'CAN'
p2783
aS'329440'
p2784
aS'329520'
p2785
aa(lp2786
S'REALLY++'
p2787
aS'329640'
p2788
aS'330160'
p2789
aa(lp2790
S'HOT'
p2791
aS'330240'
p2792
aS'330640'
p2793
aa(lp2794
g94
aS'330880'
p2795
aa(lp2796
S'fs-BUT'
p2797
aS'330920'
p2798
aS'331080'
p2799
aa(lp2800
S'IN'
p2801
aS'331120'
p2802
aS'331280'
p2803
aa(lp2804
S'ns-LA'
p2805
aS'331400'
p2806
aS'331800'
p2807
aa(lp2808
S'80'
p2809
aS'331840'
p2810
aS'332120'
p2811
aa(lp2812
S'REALLY'
p2813
aS'332360'
p2814
aS'332520'
p2815
aa(lp2816
S'FEEL'
p2817
aS'332600'
p2818
aS'332800'
p2819
aa(lp2820
S'NOTHING'
p2821
aS'332880'
p2822
aS'333440'
p2823
aasg40
S'333440'
p2824
sg42
Nsg43
(lp2825
g2769
ag2773
ag2777
ag94
ag2783
ag2787
ag2791
ag94
ag2797
ag2801
ag2805
ag2809
ag2813
ag2817
ag2821
asg45
S'If theres 80 degrees here in Boston, it can be really hot.  But in LA, 80 degrees feel nothing.'
p2826
sg47
S'328160'
p2827
ssI50
(dp2828
g2
(lp2829
(lp2830
S'REALLY'
p2831
aS'341880'
p2832
aS'342000'
p2833
aa(lp2834
S'OTHER'
p2835
aS'342240'
p2836
aS'342320'
p2837
aa(lp2838
S'THAN'
p2839
aS'342440'
p2840
aS'342600'
p2841
aa(lp2842
S'WEATHER'
p2843
aS'342640'
p2844
aS'342880'
p2845
aa(lp2846
S'cl:5list'
p2847
aS'343040'
p2848
aS'343240'
p2849
aa(lp2850
S'IX-1p'
p2851
aS'343320'
p2852
aS'343400'
p2853
aa(lp2854
S'CAN'
p2855
aS'343480'
p2856
aS'343560'
p2857
aa(lp2858
S'TALK'
p2859
aS'343600'
p2860
aS'343760'
p2861
aa(lp2862
S'ABOUT'
p2863
aS'343840'
p2864
aS'344080'
p2865
aa(lp2866
S'cl:5that area'
p2867
aS'344160'
p2868
aS'344600'
p2869
aa(lp2870
S'fs-BOSTON'
p2871
aS'344680'
p2872
aS'345440'
p2873
aa(lp2874
S'CULTURE'
p2875
aS'345520'
p2876
aS'345960'
p2877
aa(lp2878
S'AND'
p2879
aS'346040'
p2880
aS'346120'
p2881
aa(lp2882
S'ns-LA'
p2883
aS'346240'
p2884
aS'346520'
p2885
aa(lp2886
S'CULTURE'
p2887
aS'346640'
p2888
aS'347640'
p2889
aasg40
S'347640'
p2890
sg42
Nsg43
(lp2891
g2831
ag2835
ag2839
ag2843
ag2847
ag2851
ag2855
ag2859
ag2863
ag2867
ag2871
ag2875
ag2879
ag2883
ag2887
asg45
S'Other than weather, we can also talk about cultures in Boston and LA.'
p2892
sg47
S'341440'
p2893
ssI51
(dp2894
g2
(lp2895
(lp2896
S'REALLY'
p2897
aS'347760'
p2898
aS'348160'
p2899
aa(lp2900
S'wow'
p2901
aS'348720'
p2902
aS'348920'
p2903
aa(lp2904
S'BIG'
p2905
aS'349000'
p2906
aS'349280'
p2907
aa(lp2908
S'DIFFERENT'
p2909
aS'349440'
p2910
aS'349840'
p2911
aa(lp2912
S'IX-loc:i'
p2913
aS'350000'
p2914
aS'350160'
p2915
aa(lp2916
S'fs-BOSTON'
p2917
aS'350320'
p2918
aS'351000'
p2919
aa(lp2920
S'CULTURE'
p2921
aS'351120'
p2922
aS'351520'
p2923
aa(lp2924
S'TOGETHER'
p2925
aS'351640'
p2926
aS'352360'
p2927
aa(lp2928
S'DEAF'
p2929
aS'352520'
p2930
aS'353000'
p2931
aa(lp2932
S'TEND'
p2933
aS'353200'
p2934
aS'353680'
p2935
aa(lp2936
S'SOCIAL'
p2937
aS'353920'
p2938
aS'354360'
p2939
aa(lp2940
S'fs-VERY'
p2941
aS'354440'
p2942
aS'354720'
p2943
aa(lp2944
S'TOGETHER'
p2945
aS'354920'
p2946
aS'355480'
p2947
aa(lp2948
S'CLOSE'
p2949
aS'355960'
p2950
aS'356160'
p2951
aa(lp2952
S'SAME'
p2953
aS'356280'
p2954
aS'356320'
p2955
aa(lp2956
S'FAMILY'
p2957
aS'356480'
p2958
aS'356960'
p2959
aa(lp2960
S'TOGETHER'
p2961
aS'357040'
p2962
aS'357720'
p2963
aasg40
S'357720'
p2964
sg42
Nsg43
(lp2965
g2897
ag2901
ag2905
ag2909
ag2913
ag2917
ag2921
ag2925
ag2929
ag2933
ag2937
ag2941
ag2945
ag2949
ag2953
ag2957
ag2961
asg45
S'Wow, its really big difference, Boston culture, Deaf social are close to each other like family.'
p2966
sg47
S'347640'
p2967
ssI52
(dp2968
g2
(lp2969
(lp2970
S'TOGETHER'
p2971
aS'357720'
p2972
aS'357800'
p2973
aa(lp2974
S'MAKE'
p2975
aS'357960'
p2976
aS'358000'
p2977
aa(lp2978
S'SURE'
p2979
aS'358080'
p2980
aS'358440'
p2981
aa(lp2982
S'CONTACT-arc'
p2983
aS'358520'
p2984
aS'359480'
p2985
aa(lp2986
S'KNOW'
p2987
aS'359600'
p2988
aS'359800'
p2989
aa(lp2990
S'IF'
p2991
aS'359920'
p2992
aS'360080'
p2993
aa(lp2994
g94
aS'360320'
p2995
aa(lp2996
S'NOT'
p2997
aS'360440'
p2998
aS'360480'
p2999
aa(lp3000
S'LIKE'
p3001
aS'360680'
p3002
aS'360760'
p3003
aa(lp3004
S'SOMEONE'
p3005
aS'360840'
p3006
aS'361240'
p3007
aa(lp3008
S'FORGET-IT'
p3009
aS'361440'
p3010
aS'362120'
p3011
aa(lp3012
S'STILL+'
p3013
aS'362280'
p3014
aS'363240'
p3015
aa(lp3016
S'FEEL'
p3017
aS'363840'
p3018
aS'364080'
p3019
aa(lp3020
S'BAD'
p3021
aS'364160'
p3022
aS'364520'
p3023
aa(lp3024
S'TOGETHER'
p3025
aS'364600'
p3026
aS'365000'
p3027
aasg40
S'365000'
p3028
sg42
Nsg43
(lp3029
g2971
ag2975
ag2979
ag2983
ag2987
ag2991
ag94
ag2997
ag3001
ag3005
ag3009
ag3013
ag3017
ag3021
ag3025
asg45
S'They would keep in touch, its like there is no one who we could ignore because we would feel bad.'
p3030
sg47
S'357720'
p3031
ssI53
(dp3032
g2
(lp3033
(lp3034
S'BUT'
p3035
aS'365160'
p3036
aS'365320'
p3037
aa(lp3038
S'IN'
p3039
aS'365400'
p3040
aS'365600'
p3041
aa(lp3042
S'IX-loc:i'
p3043
aS'365720'
p3044
aS'365920'
p3045
aa(lp3046
g94
aS'366360'
p3047
aa(lp3048
S'ns-LA'
p3049
aS'366600'
p3050
aS'366920'
p3051
aa(lp3052
S'AREA'
p3053
aS'367080'
p3054
aS'367640'
p3055
aa(lp3056
S'#OR'
p3057
aS'367720'
p3058
aS'367960'
p3059
aa(lp3060
S'NORTH'
p3061
aS'368040'
p3062
aS'368400'
p3063
aa(lp3064
S'part:indef'
p3065
aS'368480'
p3066
aS'368520'
p3067
aa(lp3068
S'REALLY'
p3069
aS'368600'
p3070
aS'368960'
p3071
aa(lp3072
S'MOST'
p3073
aS'369080'
p3074
aS'369320'
p3075
aa(lp3076
S'IN'
p3077
aS'369400'
p3078
aS'369480'
p3079
aa(lp3080
S'ns-LA'
p3081
aS'369560'
p3082
aS'369880'
p3083
aa(lp3084
S'AREA'
p3085
aS'369960'
p3086
aS'370400'
p3087
aa(lp3088
S'fs-VERY'
p3089
aS'370440'
p3090
aS'370600'
p3091
aa(lp3092
S'CLIQUE++'
p3093
aS'370800'
p3094
aS'372160'
p3095
aasg40
S'372160'
p3096
sg42
Nsg43
(lp3097
g3035
ag3039
ag3043
ag94
ag3049
ag3053
ag3057
ag3061
ag3065
ag3069
ag3073
ag3077
ag3081
ag3085
ag3089
ag3093
asg45
S'But in LA area, North, well really most in LA area, there are many clique.'
p3098
sg47
S'365000'
p3099
ssI54
(dp3100
g2
(lp3101
(lp3102
S'CLIQUE-arc'
p3103
aS'372160'
p3104
aS'372520'
p3105
aa(lp3106
S'IX-2p'
p3107
aS'372600'
p3108
aS'372680'
p3109
aa(lp3110
S'MUST'
p3111
aS'372760'
p3112
aS'372920'
p3113
aa(lp3114
S'MAKE'
p3115
aS'373000'
p3116
aS'373080'
p3117
aa(lp3118
S'POSS-2p'
p3119
aS'373160'
p3120
aS'373240'
p3121
aa(lp3122
S'NAME'
p3123
aS'373320'
p3124
aS'374000'
p3125
aa(lp3126
S'BEFORE'
p3127
aS'374200'
p3128
aS'374520'
p3129
aa(lp3130
S'JOIN'
p3131
aS'374720'
p3132
aS'375400'
p3133
aa(lp3134
S'fs-CLUB'
p3135
aS'375560'
p3136
aS'376080'
p3137
aa(lp3138
S'TOGETHER'
p3139
aS'376320'
p3140
aS'376800'
p3141
aa(lp3142
S'fs-E'
p3143
aS'377000'
p3144
aS'377160'
p3145
aa(lp3146
S'cl:3quotation'
p3147
aS'377280'
p3148
aS'377760'
p3149
aa(lp3150
S'CALL'
p3151
aS'377840'
p3152
aS'378000'
p3153
aa(lp3154
S'fs-ELITE'
p3155
aS'378080'
p3156
aS'378880'
p3157
aa(lp3158
S'fs-CLUB'
p3159
aS'379240'
p3160
aS'379840'
p3161
aa(lp3162
S'AREA'
p3163
aS'380040'
p3164
aS'380760'
p3165
aasg40
S'380760'
p3166
sg42
Nsg43
(lp3167
g3103
ag3107
ag3111
ag3115
ag3119
ag3123
ag3127
ag3131
ag3135
ag3139
ag3143
ag3147
ag3151
ag3155
ag3159
ag3163
asg45
S'It is like, you must be a well known person before join the "elite club".'
p3168
sg47
S'372160'
p3169
ssI55
(dp3170
g2
(lp3171
(lp3172
S'TOGETHER'
p3173
aS'388360'
p3174
aS'388520'
p3175
aa(lp3176
S'NO'
p3177
aS'388560'
p3178
aS'388680'
p3179
aa(lp3180
S'MATTER'
p3181
aS'388720'
p3182
aS'389240'
p3183
aa(lp3184
S'WHO'
p3185
aS'389280'
p3186
aS'389640'
p3187
aa(lp3188
S'IX-3p-arc'
p3189
aS'389720'
p3190
aS'390200'
p3191
aa(lp3192
S'IMPORTANT'
p3193
aS'390280'
p3194
aS'390480'
p3195
aa(lp3196
S'IN'
p3197
aS'390520'
p3198
aS'390560'
p3199
aa(lp3200
S'VARY'
p3201
aS'390600'
p3202
aS'391520'
p3203
aasg40
S'391520'
p3204
sg42
Nsg43
(lp3205
g3173
ag3177
ag3181
ag3185
ag3189
ag3193
ag3197
ag3201
asg45
S'No matter who we are, it is important to have diversity in the group.'
p3206
sg47
S'388360'
p3207
ssI56
(dp3208
g2
(lp3209
(lp3210
S'VARY'
p3211
aS'391520'
p3212
aS'391680'
p3213
aa(lp3214
S'SAME'
p3215
aS'391800'
p3216
aS'392200'
p3217
aa(lp3218
S'IF'
p3219
aS'392360'
p3220
aS'392560'
p3221
aa(lp3222
S'fs-SEBRIAN'
p3223
aS'392640'
p3224
aS'394040'
p3225
aa(lp3226
S'TIGER'
p3227
aS'394160'
p3228
aS'394880'
p3229
aa(lp3230
S'IX-3p:i'
p3231
aS'395000'
p3232
aS'395240'
p3233
aa(lp3234
S'ONE'
p3235
aS'395320'
p3236
aS'395440'
p3237
aa(lp3238
S'THING'
p3239
aS'395520'
p3240
aS'395600'
p3241
aa(lp3242
S'ABOUT'
p3243
aS'395720'
p3244
aS'395840'
p3245
aa(lp3246
S'POSS-3p'
p3247
aS'395920'
p3248
aS'396000'
p3249
aa(lp3250
S'STRIPE'
p3251
aS'396080'
p3252
aS'396880'
p3253
aa(lp3254
S'VARY'
p3255
aS'396960'
p3256
aS'398080'
p3257
aa(lp3258
S'SAME'
p3259
aS'398200'
p3260
aS'398440'
p3261
aa(lp3262
S'IDEA'
p3263
aS'398520'
p3264
aS'398840'
p3265
aa(lp3266
S'IX-3p-arc'
p3267
aS'398920'
p3268
aS'399320'
p3269
aasg40
S'399320'
p3270
sg42
Nsg43
(lp3271
g3211
ag3215
ag3219
ag3223
ag3227
ag3231
ag3235
ag3239
ag3243
ag3247
ag3251
ag3255
ag3259
ag3263
ag3267
asg45
S'It is same idea as for Sebrian tiger, some have stripes or vary kind.'
p3272
sg47
S'391520'
p3273
ssI57
(dp3274
g2
(lp3275
(lp3276
S'BUT'
p3277
aS'399400'
p3278
aS'399640'
p3279
aa(lp3280
S'IN'
p3281
aS'400280'
p3282
aS'400480'
p3283
aa(lp3284
S'ns-LA'
p3285
aS'400600'
p3286
aS'400920'
p3287
aa(lp3288
S'AREA'
p3289
aS'401120'
p3290
aS'401480'
p3291
aa(lp3292
S'part:indef'
p3293
aS'401600'
p3294
aS'402200'
p3295
aa(lp3296
S'IX-3p:i'
p3297
aS'402280'
p3298
aS'402400'
p3299
aa(lp3300
S'NOT'
p3301
aS'402480'
p3302
aS'402560'
p3303
aa(lp3304
S'SEE'
p3305
aS'402600'
p3306
aS'402800'
p3307
aa(lp3308
S'THAT'
p3309
aS'402880'
p3310
aS'403000'
p3311
aa(lp3312
S'fs-WAY'
p3313
aS'403080'
p3314
aS'403360'
p3315
aasg40
S'403360'
p3316
sg42
Nsg43
(lp3317
g3277
ag3281
ag3285
ag3289
ag3293
ag3297
ag3301
ag3305
ag3309
ag3313
asg45
S"But in LA area, they didn't see that way."
p3318
sg47
S'399320'
p3319
ssI58
(dp3320
g2
(lp3321
(lp3322
S'IX-3p:i'
p3323
aS'403600'
p3324
aS'403840'
p3325
aa(lp3326
g94
aS'404280'
p3327
aa(lp3328
S'PERFECT'
p3329
aS'404600'
p3330
aS'404840'
p3331
aa(lp3332
S'IX-3p:i'
p3333
aS'404960'
p3334
aS'405080'
p3335
aa(lp3336
S'POSS-1p'
p3337
aS'405200'
p3338
aS'405360'
p3339
aa(lp3340
S'KIND'
p3341
aS'405480'
p3342
aS'405800'
p3343
aa(lp3344
S'FINE'
p3345
aS'405960'
p3346
aS'406200'
p3347
aa(lp3348
g94
aS'406520'
p3349
aa(lp3350
S'IX-3p:j'
p3351
aS'406640'
p3352
aS'406680'
p3353
aa(lp3354
S'NOT'
p3355
aS'406760'
p3356
aS'406840'
p3357
aa(lp3358
S'POSS-1p'
p3359
aS'406920'
p3360
aS'407040'
p3361
aa(lp3362
S'KIND'
p3363
aS'407160'
p3364
aS'407440'
p3365
aa(lp3366
S'GO-AWAY'
p3367
aS'407600'
p3368
aS'407960'
p3369
aa(lp3370
S'VERY'
p3371
aS'408400'
p3372
aS'408680'
p3373
aa(lp3374
S'SELECTIVE'
p3375
aS'408840'
p3376
aS'409120'
p3377
aa(lp3378
S'cl:5picking objects'
p3379
aS'409480'
p3380
aS'410800'
p3381
aa(lp3382
S'part:indef'
p3383
aS'410960'
p3384
aS'411000'
p3385
aasg40
S'411000'
p3386
sg42
Nsg43
(lp3387
g3323
ag94
ag3329
ag3333
ag3337
ag3341
ag3345
ag94
ag3351
ag3355
ag3359
ag3363
ag3367
ag3371
ag3375
ag3379
ag3383
asg45
S'They are very selective, pick who they want to be friends with.'
p3388
sg47
S'403360'
p3389
ssI59
(dp3390
g2
(lp3391
(lp3392
S'part:indef'
p3393
aS'411000'
p3394
aS'411040'
p3395
aa(lp3396
S'SAME'
p3397
aS'411160'
p3398
aS'411200'
p3399
aa(lp3400
S'IX-1p'
p3401
aS'411240'
p3402
aS'411400'
p3403
aa(lp3404
S'part:indef'
p3405
aS'411520'
p3406
aS'411960'
p3407
aa(lp3408
S'AND'
p3409
aS'412240'
p3410
aS'412720'
p3411
aa(lp3412
S'IX-3p:i'
p3413
aS'412840'
p3414
aS'412960'
p3415
aa(lp3416
S'fs-VERY'
p3417
aS'413080'
p3418
aS'413480'
p3419
aa(lp3420
S'SAME'
p3421
aS'413760'
p3422
aS'414200'
p3423
aa(lp3424
S'HIGH'
p3425
aS'414440'
p3426
aS'414880'
p3427
aa(lp3428
S'FANCY++'
p3429
aS'414960'
p3430
aS'415840'
p3431
aa(lp3432
S'fs-CLASS'
p3433
aS'415920'
p3434
aS'416720'
p3435
aasg40
S'416720'
p3436
sg42
Nsg43
(lp3437
g3393
ag3397
ag3401
ag3405
ag3409
ag3413
ag3417
ag3421
ag3425
ag3429
ag3433
asg45
S'They are like very high elite class.'
p3438
sg47
S'411000'
p3439
ssI60
(dp3440
g2
(lp3441
(lp3442
S'IX-3p:i'
p3443
aS'416840'
p3444
aS'417360'
p3445
aa(lp3446
S'SAME'
p3447
aS'417480'
p3448
aS'417560'
p3449
aa(lp3450
S'FOR'
p3451
aS'417600'
p3452
aS'417840'
p3453
aa(lp3454
S'EXAMPLE'
p3455
aS'417920'
p3456
aS'418120'
p3457
aa(lp3458
S'IX-1p'
p3459
aS'418200'
p3460
aS'418240'
p3461
aa(lp3462
S'GO'
p3463
aS'418320'
p3464
aS'418480'
p3465
aa(lp3466
S'fs-BEVERLY'
p3467
aS'418560'
p3468
aS'419520'
p3469
aa(lp3470
S'fs-HILLS'
p3471
aS'419640'
p3472
aS'420800'
p3473
aasg40
S'420840'
p3474
sg42
Nsg43
(lp3475
g3443
ag3447
ag3451
ag3455
ag3459
ag3463
ag3467
ag3471
asg45
S'Like for an example, when I went to Beverly Hills.'
p3476
sg47
S'416720'
p3477
ssI61
(dp3478
g2
(lp3479
(lp3480
S'IX-1p'
p3481
aS'420920'
p3482
aS'421040'
p3483
aa(lp3484
S'IN'
p3485
aS'421160'
p3486
aS'421320'
p3487
aa(lp3488
S'ONE'
p3489
aS'421440'
p3490
aS'421480'
p3491
aa(lp3492
S'STORE'
p3493
aS'421600'
p3494
aS'421960'
p3495
aa(lp3496
S'IX-1p'
p3497
aS'422080'
p3498
aS'422320'
p3499
aa(lp3500
S'cl:5holding the object'
p3501
aS'422440'
p3502
aS'423080'
p3503
aa(lp3504
S'fs-SILK'
p3505
aS'423480'
p3506
aS'424160'
p3507
aa(lp3508
S'REALLY'
p3509
aS'425040'
p3510
aS'425160'
p3511
aa(lp3512
S'NICE'
p3513
aS'425200'
p3514
aS'425760'
p3515
aa(lp3516
S'IX-1p'
p3517
aS'425880'
p3518
aS'426120'
p3519
aa(lp3520
S'cl:5holding the object'
p3521
aS'426240'
p3522
aS'426720'
p3523
aasg40
S'426960'
p3524
sg42
Nsg43
(lp3525
g3481
ag3485
ag3489
ag3493
ag3497
ag3501
ag3505
ag3509
ag3513
ag3517
ag3521
asg45
S'In one store, I was looking at this really nice silk shirt.'
p3526
sg47
S'420840'
p3527
ssI62
(dp3528
g2
(lp3529
(lp3530
S'part:indef'
p3531
aS'427120'
p3532
aS'427480'
p3533
aa(lp3534
S'IX-1p'
p3535
aS'427640'
p3536
aS'427920'
p3537
aa(lp3538
S'SEE'
p3539
aS'428200'
p3540
aS'428320'
p3541
aa(lp3542
S'PRICE'
p3543
aS'428400'
p3544
aS'428520'
p3545
aa(lp3546
S'fs-TAG'
p3547
aS'428640'
p3548
aS'428880'
p3549
aa(lp3550
S'IX-1p'
p3551
aS'429000'
p3552
aS'429120'
p3553
aa(lp3554
S'350'
p3555
aS'429840'
p3556
aS'430440'
p3557
aa(lp3558
S'DOLLAR'
p3559
aS'430560'
p3560
aS'430880'
p3561
aa(lp3562
g94
aS'431840'
p3563
aa(lp3564
S'350'
p3565
aS'431960'
p3566
aS'432360'
p3567
aa(lp3568
S'DOLLAR'
p3569
aS'432520'
p3570
aS'432640'
p3571
aa(lp3572
S'FOR'
p3573
aS'432720'
p3574
aS'432920'
p3575
aa(lp3576
g94
aS'433520'
p3577
aa(lp3578
S'REALLY'
p3579
aS'433640'
p3580
aS'433920'
p3581
aa(lp3582
S'part:indef'
p3583
aS'434080'
p3584
aS'434480'
p3585
aasg40
S'434640'
p3586
sg42
Nsg43
(lp3587
g3531
ag3535
ag3539
ag3543
ag3547
ag3551
ag3555
ag3559
ag94
ag3565
ag3569
ag3573
ag94
ag3579
ag3583
asg45
S'I decided to check the price, its 350 dollars.  Really, 350 dollars for a shirt!'
p3588
sg47
S'426960'
p3589
ssI63
(dp3590
g2
(lp3591
(lp3592
S'HALF'
p3593
aS'434920'
p3594
aS'435080'
p3595
aa(lp3596
S'MOST'
p3597
aS'435480'
p3598
aS'435880'
p3599
aa(lp3600
S'EXPENSIVE'
p3601
aS'435960'
p3602
aS'436480'
p3603
aa(lp3604
S'SHIRT'
p3605
aS'436560'
p3606
aS'436920'
p3607
aa(lp3608
S'HERE'
p3609
aS'437000'
p3610
aS'437080'
p3611
aa(lp3612
S'IN'
p3613
aS'437120'
p3614
aS'437240'
p3615
aa(lp3616
S'fs-BOSTON'
p3617
aS'437320'
p3618
aS'438000'
p3619
aa(lp3620
S'MAYBE'
p3621
aS'438160'
p3622
aS'438600'
p3623
aa(lp3624
S'100'
p3625
aS'438760'
p3626
aS'439120'
p3627
aa(lp3628
S'150'
p3629
aS'439240'
p3630
aS'439720'
p3631
aa(lp3632
S'DOLLAR'
p3633
aS'439800'
p3634
aS'440120'
p3635
aa(lp3636
S'IX-1p'
p3637
aS'440200'
p3638
aS'440320'
p3639
aa(lp3640
S'NOT-KNOW'
p3641
aS'440520'
p3642
aS'440880'
p3643
aa(lp3644
S'IX-1p'
p3645
aS'441080'
p3646
aS'441320'
p3647
aa(lp3648
S'NOT'
p3649
aS'441440'
p3650
aS'441520'
p3651
aa(lp3652
S'BUY'
p3653
aS'441640'
p3654
aS'441880'
p3655
aa(lp3656
S'EXPENSIVE'
p3657
aS'442200'
p3658
aS'442320'
p3659
aa(lp3660
S'SHIRT'
p3661
aS'442400'
p3662
aS'442600'
p3663
aa(lp3664
S'POSS-1p'
p3665
aS'442680'
p3666
aS'443080'
p3667
aa(lp3668
S'fs-BUT'
p3669
aS'443160'
p3670
aS'443440'
p3671
aasg40
S'443440'
p3672
sg42
Nsg43
(lp3673
g3593
ag3597
ag3601
ag3605
ag3609
ag3613
ag3617
ag3621
ag3625
ag3629
ag3633
ag3637
ag3641
ag3645
ag3649
ag3653
ag3657
ag3661
ag3665
ag3669
asg45
S'I would say the most expensive shirt here in boston is up to maybe 100 to 150 dollars.  But, I dont know because I dont buy expensive shirts.'
p3674
sg47
S'434640'
p3675
ssI64
(dp3676
g2
(lp3677
(lp3678
S'SAME'
p3679
aS'443760'
p3680
aS'443800'
p3681
aa(lp3682
S'part:indef'
p3683
aS'443880'
p3684
aS'444160'
p3685
aa(lp3686
S'REALLY'
p3687
aS'444240'
p3688
aS'444560'
p3689
aa(lp3690
S'wow'
p3691
aS'444640'
p3692
aS'445120'
p3693
aa(lp3694
S'fs-VERY'
p3695
aS'445320'
p3696
aS'445600'
p3697
aa(lp3698
S'EXPENSIVE'
p3699
aS'445680'
p3700
aS'446120'
p3701
aa(lp3702
S'IN'
p3703
aS'446200'
p3704
aS'446360'
p3705
aa(lp3706
S'ns-LA'
p3707
aS'446880'
p3708
aS'447400'
p3709
aasg40
S'447400'
p3710
sg42
Nsg43
(lp3711
g3679
ag3683
ag3687
ag3691
ag3695
ag3699
ag3703
ag3707
asg45
S'But, wow, it is very expensive in LA.'
p3712
sg47
S'443440'
p3713
ssI65
(dp3714
g2
(lp3715
(lp3716
S'SAME'
p3717
aS'447440'
p3718
aS'447560'
p3719
aa(lp3720
S'FOOD'
p3721
aS'447720'
p3722
aS'447840'
p3723
aa(lp3724
S'SHOPPING'
p3725
aS'447960'
p3726
aS'448560'
p3727
aa(lp3728
S'BREAD'
p3729
aS'448760'
p3730
aS'449400'
p3731
aa(lp3732
S'cl:5size of the object'
p3733
aS'449640'
p3734
aS'450120'
p3735
aa(lp3736
S'REALLY'
p3737
aS'450360'
p3738
aS'450520'
p3739
aa(lp3740
S'THREE'
p3741
aS'450680'
p3742
aS'451120'
p3743
aa(lp3744
S'FOUR'
p3745
aS'451200'
p3746
aS'451360'
p3747
aa(lp3748
S'THREE'
p3749
aS'451480'
p3750
aS'451720'
p3751
aa(lp3752
S'FOUR'
p3753
aS'451760'
p3754
aS'451920'
p3755
aa(lp3756
S'WHILE'
p3757
aS'452080'
p3758
aS'452200'
p3759
aa(lp3760
S'HERE'
p3761
aS'452360'
p3762
aS'452480'
p3763
aa(lp3764
S'1.50'
p3765
aS'452880'
p3766
aS'453440'
p3767
aa(lp3768
S'TWO'
p3769
aS'453520'
p3770
aS'454000'
p3771
aa(lp3772
S'part:indef'
p3773
aS'454080'
p3774
aS'454440'
p3775
aa(lp3776
S'AND'
p3777
aS'454520'
p3778
aS'454840'
p3779
aa(lp3780
S'BIGGER'
p3781
aS'455040'
p3782
aS'455320'
p3783
aa(lp3784
S'SIZE'
p3785
aS'455480'
p3786
aS'455720'
p3787
aa(lp3788
S'THAN'
p3789
aS'455760'
p3790
aS'455920'
p3791
aa(lp3792
S'THREE'
p3793
aS'456560'
p3794
aS'456840'
p3795
aa(lp3796
S'FOUR'
p3797
aS'456880'
p3798
aS'457120'
p3799
aa(lp3800
S'cl:5size of the object'
p3801
aS'457200'
p3802
aS'457880'
p3803
aasg40
S'457880'
p3804
sg42
Nsg43
(lp3805
g3717
ag3721
ag3725
ag3729
ag3733
ag3737
ag3741
ag3745
ag3749
ag3753
ag3757
ag3761
ag3765
ag3769
ag3773
ag3777
ag3781
ag3785
ag3789
ag3793
ag3797
ag3801
asg45
S'Same idea for food shopping, a bread cost 3 or 4 bucks while here in Boston its only 1.50 to two dollars and it is even bigger size than in LA.'
p3806
sg47
S'447400'
p3807
ssI66
(dp3808
g2
(lp3809
(lp3810
S'REALLY'
p3811
aS'458160'
p3812
aS'458520'
p3813
aa(lp3814
S'part:indef'
p3815
aS'458560'
p3816
aS'458840'
p3817
aa(lp3818
S'cl:1area of objects'
p3819
aS'459040'
p3820
aS'459680'
p3821
aa(lp3822
S'IX-1p'
p3823
aS'459760'
p3824
aS'459840'
p3825
aa(lp3826
S'TALK'
p3827
aS'459920'
p3828
aS'460000'
p3829
aa(lp3830
S'ABOUT'
p3831
aS'460040'
p3832
aS'460240'
p3833
aa(lp3834
S'ECONOMIC'
p3835
aS'460360'
p3836
aS'460600'
p3837
aa(lp3838
S'cl:1field'
p3839
aS'460720'
p3840
aS'461000'
p3841
aa(lp3842
S'NO'
p3843
aS'461080'
p3844
aS'461400'
p3845
aa(lp3846
S'BUT'
p3847
aS'461440'
p3848
aS'461640'
p3849
aa(lp3850
S'TALK'
p3851
aS'461720'
p3852
aS'461800'
p3853
aa(lp3854
S'DIFFERENT'
p3855
aS'461920'
p3856
aS'462080'
p3857
aa(lp3858
S'CULTURE'
p3859
aS'462200'
p3860
aS'462800'
p3861
aasg40
S'463440'
p3862
sg42
Nsg43
(lp3863
g3811
ag3815
ag3819
ag3823
ag3827
ag3831
ag3835
ag3839
ag3843
ag3847
ag3851
ag3855
ag3859
asg45
S'Really, we dont only just talk about economic but the culture too.'
p3864
sg47
S'457880'
p3865
ssI67
(dp3866
g2
(lp3867
(lp3868
S'REALLY'
p3869
aS'463640'
p3870
aS'463720'
p3871
aa(lp3872
S'PEOPLE'
p3873
aS'463800'
p3874
aS'464160'
p3875
aa(lp3876
S'IX-3p-arc'
p3877
aS'464200'
p3878
aS'464840'
p3879
aa(lp3880
S'part:indef'
p3881
aS'464960'
p3882
aS'465400'
p3883
aa(lp3884
S'MORE'
p3885
aS'465520'
p3886
aS'465720'
p3887
aa(lp3888
S'FRIENDLY'
p3889
aS'465840'
p3890
aS'466240'
p3891
aa(lp3892
S'HERE'
p3893
aS'466320'
p3894
aS'466480'
p3895
aa(lp3896
S'IN'
p3897
aS'466560'
p3898
aS'466680'
p3899
aa(lp3900
S'GENERAL'
p3901
aS'466720'
p3902
aS'467200'
p3903
aa(lp3904
S'MORE'
p3905
aS'467280'
p3906
aS'467520'
p3907
aa(lp3908
S'FRIENDLY'
p3909
aS'467600'
p3910
aS'467960'
p3911
aasg40
S'467960'
p3912
sg42
Nsg43
(lp3913
g3869
ag3873
ag3877
ag3881
ag3885
ag3889
ag3893
ag3897
ag3901
ag3905
ag3909
asg45
S'Boston people in Boston is more friendly in general.'
p3914
sg47
S'463440'
p3915
ssI68
(dp3916
g2
(lp3917
(lp3918
S'SAME'
p3919
aS'468000'
p3920
aS'468040'
p3921
aa(lp3922
S'FOR'
p3923
aS'468160'
p3924
aS'468320'
p3925
aa(lp3926
S'EXAMPLE'
p3927
aS'468440'
p3928
aS'468640'
p3929
aa(lp3930
S'FINE'
p3931
aS'468800'
p3932
aS'469080'
p3933
aa(lp3934
S'DRIVE'
p3935
aS'469160'
p3936
aS'470080'
p3937
aa(lp3938
S'IX-1p'
p3939
aS'470440'
p3940
aS'470920'
p3941
aa(lp3942
S'part:indef'
p3943
aS'471200'
p3944
aS'471280'
p3945
aa(lp3946
S'SAME'
p3947
aS'471360'
p3948
aS'471560'
p3949
aa(lp3950
S'cl:3cars toward to each other'
p3951
aS'471640'
p3952
aS'472320'
p3953
aa(lp3954
S'HERE'
p3955
aS'472480'
p3956
aS'472880'
p3957
aa(lp3958
S'SITUATION'
p3959
aS'473000'
p3960
aS'473640'
p3961
aasg40
S'473640'
p3962
sg42
Nsg43
(lp3963
g3919
ag3923
ag3927
ag3931
ag3935
ag3939
ag3943
ag3947
ag3951
ag3955
ag3959
asg45
S'Like for an example, for driving part, in Boston, when two cars toward to each other situation.'
p3964
sg47
S'467960'
p3965
ssI69
(dp3966
g2
(lp3967
(lp3968
S'cl:3cars toward to each other'
p3969
aS'474000'
p3970
aS'474400'
p3971
aa(lp3972
S'IX-1p'
p3973
aS'474520'
p3974
aS'474680'
p3975
aa(lp3976
S'SAME'
p3977
aS'474760'
p3978
aS'474840'
p3979
aa(lp3980
S'part:indef'
p3981
aS'474920'
p3982
aS'475240'
p3983
aa(lp3984
S'cl:5go ahead'
p3985
aS'475320'
p3986
aS'476320'
p3987
aasg40
S'478240'
p3988
sg42
Nsg43
(lp3989
g3969
ag3973
ag3977
ag3981
ag3985
asg45
S'Driver would say go ahead, let another car pass by, say thank you and wave at each other.'
p3990
sg47
S'473640'
p3991
ssI70
(dp3992
g2
(lp3993
(lp3994
S'part:indef'
p3995
aS'478520'
p3996
aS'478600'
p3997
aa(lp3998
S'IN'
p3999
aS'478760'
p4000
aS'478840'
p4001
aa(lp4002
S'ns-LA'
p4003
aS'478920'
p4004
aS'479240'
p4005
aa(lp4006
S'DO'
p4007
aS'479440'
p4008
aS'479560'
p4009
aa(lp4010
S'THAT'
p4011
aS'479680'
p4012
aS'479840'
p4013
aa(lp4014
S'NO'
p4015
aS'479920'
p4016
aS'480720'
p4017
aa(lp4018
S'NOT-CARE'
p4019
aS'480920'
p4020
aS'481600'
p4021
aa(lp4022
S'FUTURE'
p4023
aS'481680'
p4024
aS'481760'
p4025
aa(lp4026
S'cl:3car driving pass by another car'
p4027
aS'481880'
p4028
aS'483480'
p4029
aasg40
S'483480'
p4030
sg42
Nsg43
(lp4031
g3995
ag3999
ag4003
ag4007
ag4011
ag4015
ag4019
ag4023
ag4027
asg45
S'But in LA, they didnt do that, they dont care and would just drive pass by.'
p4032
sg47
S'478240'
p4033
ssI71
(dp4034
g2
(lp4035
(lp4036
S'IX-1p'
p4037
aS'483600'
p4038
aS'483840'
p4039
aa(lp4040
S'part:indef'
p4041
aS'483960'
p4042
aS'484080'
p4043
aa(lp4044
S'FEW'
p4045
aS'484280'
p4046
aS'484400'
p4047
aa(lp4048
S'TIME'
p4049
aS'484520'
p4050
aS'484640'
p4051
aa(lp4052
S'IN'
p4053
aS'484760'
p4054
aS'484840'
p4055
aa(lp4056
S'ns-LA'
p4057
aS'484960'
p4058
aS'485280'
p4059
aa(lp4060
S'IX-1p'
p4061
aS'485360'
p4062
aS'485680'
p4063
aa(lp4064
S'cl:5go ahead'
p4065
aS'485960'
p4066
aS'486640'
p4067
aa(lp4068
S'IX-1p'
p4069
aS'486800'
p4070
aS'486960'
p4071
aa(lp4072
S'NOT-KNOW'
p4073
aS'487040'
p4074
aS'487280'
p4075
aa(lp4076
S'IX-3p:i'
p4077
aS'487440'
p4078
aS'487520'
p4079
aa(lp4080
S'cl:3car passing by'
p4081
aS'489520'
p4082
aS'490200'
p4083
aa(lp4084
S'IX-1p'
p4085
aS'490320'
p4086
aS'491200'
p4087
aa(lp4088
S'wave'
p4089
aS'491560'
p4090
aS'492160'
p4091
aa(lp4092
S'IX-2p:i'
p4093
aS'492240'
p4094
aS'492360'
p4095
aa(lp4096
S'WELCOME'
p4097
aS'492400'
p4098
aS'492800'
p4099
aa(lp4100
S'TOO'
p4101
aS'492840'
p4102
aS'493120'
p4103
aa(lp4104
S'DRIVE'
p4105
aS'494000'
p4106
aS'494680'
p4107
aa(lp4108
S'part:indef'
p4109
aS'494840'
p4110
aS'494960'
p4111
aasg40
S'494960'
p4112
sg42
Nsg43
(lp4113
g4037
ag4041
ag4045
ag4049
ag4053
ag4057
ag4061
ag4065
ag4069
ag4073
ag4077
ag4081
ag4085
ag4089
ag4093
ag4097
ag4101
ag4105
ag4109
asg45
S'Happened to me few times in LA, while I was driving, I said go ahead since I didnt know what they are like.  I expected them to say thank you but they ignored instead, I thought you are welcome but forget it.'
p4114
sg47
S'483480'
p4115
ssI72
(dp4116
g2
(lp4117
(lp4118
S'part:indef'
p4119
aS'494960'
p4120
aS'495720'
p4121
aa(lp4122
S'REALLY'
p4123
aS'496080'
p4124
aS'496200'
p4125
aa(lp4126
S'SAME'
p4127
aS'496520'
p4128
aS'496720'
p4129
aa(lp4130
S'IN'
p4131
aS'496800'
p4132
aS'497000'
p4133
aa(lp4134
S'FOOD'
p4135
aS'497160'
p4136
aS'497320'
p4137
aa(lp4138
S'STORE'
p4139
aS'497440'
p4140
aS'498360'
p4141
aa(lp4142
S'#OR'
p4143
aS'498440'
p4144
aS'498640'
p4145
aa(lp4146
S'RESTAURANT'
p4147
aS'498720'
p4148
aS'499720'
p4149
aa(lp4150
S'fs-BANKS'
p4151
aS'499960'
p4152
aS'501000'
p4153
aa(lp4154
S'REALLY'
p4155
aS'501160'
p4156
aS'501400'
p4157
aa(lp4158
S'VARY'
p4159
aS'501560'
p4160
aS'501960'
p4161
aa(lp4162
S'MANY'
p4163
aS'502040'
p4164
aS'502160'
p4165
aa(lp4166
S'DIFFERENT'
p4167
aS'502240'
p4168
aS'502560'
p4169
aa(lp4170
S'PLACE'
p4171
aS'502680'
p4172
aS'502920'
p4173
aasg40
S'502920'
p4174
sg42
Nsg43
(lp4175
g4119
ag4123
ag4127
ag4131
ag4135
ag4139
ag4143
ag4147
ag4151
ag4155
ag4159
ag4163
ag4167
ag4171
asg45
S'Its same kind of situation in food shopping, banks, and many different places.'
p4176
sg47
S'494960'
p4177
ssI73
(dp4178
g2
(lp4179
(lp4180
S'HERE'
p4181
aS'503160'
p4182
aS'503400'
p4183
aa(lp4184
S'ONLY'
p4185
aS'503640'
p4186
aS'503960'
p4187
aa(lp4188
S'GET'
p4189
aS'504040'
p4190
aS'504200'
p4191
aa(lp4192
S'GOOD'
p4193
aS'504360'
p4194
aS'504560'
p4195
aa(lp4196
S'SERVICE'
p4197
aS'504640'
p4198
aS'505600'
p4199
aa(lp4200
S'NOT'
p4201
aS'505760'
p4202
aS'505840'
p4203
aa(lp4204
S'100'
p4205
aS'505960'
p4206
aS'506160'
p4207
aa(lp4208
S'PERCENT'
p4209
aS'506200'
p4210
aS'506400'
p4211
aa(lp4212
S'#OF'
p4213
aS'506440'
p4214
aS'506600'
p4215
aa(lp4216
S'TIME'
p4217
aS'506680'
p4218
aS'506880'
p4219
aa(lp4220
S'NO'
p4221
aS'506960'
p4222
aS'507200'
p4223
aa(lp4224
S'BUT'
p4225
aS'507280'
p4226
aS'507520'
p4227
aa(lp4228
S'TEND'
p4229
aS'507640'
p4230
aS'507800'
p4231
aa(lp4232
S'GOOD'
p4233
aS'507960'
p4234
aS'508200'
p4235
aa(lp4236
S'SERVICE'
p4237
aS'508320'
p4238
aS'508800'
p4239
aa(lp4240
S'FUTURE'
p4241
aS'508920'
p4242
aS'509080'
p4243
aa(lp4244
S'MAKE'
p4245
aS'509280'
p4246
aS'509520'
p4247
aa(lp4248
S'SURE'
p4249
aS'509560'
p4250
aS'509840'
p4251
aa(lp4252
S'FEEL'
p4253
aS'510160'
p4254
aS'510280'
p4255
aa(lp4256
S'COMFORTABLE'
p4257
aS'510520'
p4258
aS'510880'
p4259
aa(lp4260
S'gesture'
p4261
aS'511000'
p4262
aS'511480'
p4263
aa(lp4264
S'PERFECT'
p4265
aS'511560'
p4266
aS'511600'
p4267
aasg40
S'511600'
p4268
sg42
Nsg43
(lp4269
g4181
ag4185
ag4189
ag4193
ag4197
ag4201
ag4205
ag4209
ag4213
ag4217
ag4221
ag4225
ag4229
ag4233
ag4237
ag4241
ag4245
ag4249
ag4253
ag4257
ag4261
ag4265
asg45
S'In Boston, they have good service, well not 100 percent of time but normally did good which is perfect.'
p4270
sg47
S'502920'
p4271
ssI74
(dp4272
g2
(lp4273
(lp4274
S'IN'
p4275
aS'511800'
p4276
aS'512160'
p4277
aa(lp4278
S'ns-LA'
p4279
aS'512280'
p4280
aS'512840'
p4281
aa(lp4282
S'REALLY'
p4283
aS'513600'
p4284
aS'513720'
p4285
aa(lp4286
S'SERVICE'
p4287
aS'513800'
p4288
aS'514160'
p4289
aa(lp4290
S'REALLY'
p4291
aS'514200'
p4292
aS'514280'
p4293
aa(lp4294
S'AWFUL'
p4295
aS'514360'
p4296
aS'514760'
p4297
aa(lp4298
S'SOMETIME'
p4299
aS'514880'
p4300
aS'515080'
p4301
aa(lp4302
S'SOME'
p4303
aS'515120'
p4304
aS'515320'
p4305
aa(lp4306
S'PEOPLE'
p4307
aS'515400'
p4308
aS'515680'
p4309
aa(lp4310
S'CAN-NOT'
p4311
aS'515840'
p4312
aS'515960'
p4313
aa(lp4314
S'SPEAK'
p4315
aS'516000'
p4316
aS'516320'
p4317
aa(lp4318
S'ENGLISH'
p4319
aS'516560'
p4320
aS'516720'
p4321
aa(lp4322
S'part:indef'
p4323
aS'517200'
p4324
aS'517320'
p4325
aasg40
S'517320'
p4326
sg42
Nsg43
(lp4327
g4275
ag4279
ag4283
ag4287
ag4291
ag4295
ag4299
ag4303
ag4307
ag4311
ag4315
ag4319
ag4323
asg45
S"In LA, they have awful service, some people couldn't speak english."
p4328
sg47
S'511560'
p4329
ssI75
(dp4330
g2
(lp4331
(lp4332
S'IX-1p'
p4333
aS'517520'
p4334
aS'517600'
p4335
aa(lp4336
S'fs-PEN'
p4337
aS'517680'
p4338
aS'517920'
p4339
aa(lp4340
S'PAPER'
p4341
aS'518040'
p4342
aS'518200'
p4343
aa(lp4344
S'WRITE'
p4345
aS'518320'
p4346
aS'518600'
p4347
aa(lp4348
S'STILL'
p4349
aS'518720'
p4350
aS'518760'
p4351
aa(lp4352
S'NOT'
p4353
aS'518880'
p4354
aS'518920'
p4355
aa(lp4356
S'UNDERSTAND'
p4357
aS'519040'
p4358
aS'519440'
p4359
aa(lp4360
S'part:indef'
p4361
aS'519560'
p4362
aS'519920'
p4363
aa(lp4364
S'SAME'
p4365
aS'520000'
p4366
aS'520120'
p4367
aa(lp4368
S'part:indef'
p4369
aS'520240'
p4370
aS'520800'
p4371
aa(lp4372
S'SAME'
p4373
aS'520960'
p4374
aS'521080'
p4375
aa(lp4376
S'IN'
p4377
aS'521120'
p4378
aS'521160'
p4379
aa(lp4380
S'HOW'
p4381
aS'521200'
p4382
aS'521360'
p4383
aa(lp4384
S'BAD'
p4385
aS'521480'
p4386
aS'521760'
p4387
aa(lp4388
S'IN'
p4389
aS'521920'
p4390
aS'522040'
p4391
aa(lp4392
S'IX-loc:i'
p4393
aS'522120'
p4394
aS'522560'
p4395
aa(lp4396
S'part:indef'
p4397
aS'522680'
p4398
aS'522840'
p4399
aa(lp4400
S'ns-LA'
p4401
aS'522920'
p4402
aS'523320'
p4403
aa(lp4404
S'part:indef'
p4405
aS'523840'
p4406
aS'523960'
p4407
aasg40
S'523960'
p4408
sg42
Nsg43
(lp4409
g4333
ag4337
ag4341
ag4345
ag4349
ag4353
ag4357
ag4361
ag4365
ag4369
ag4373
ag4377
ag4381
ag4385
ag4389
ag4393
ag4397
ag4401
ag4405
asg45
S"I asked for pen and paper to write, but they still don't understand me.  Thats how bad service it is in LA!"
p4410
sg47
S'517320'
p4411
ssI76
(dp4412
g2
(lp4413
(lp4414
S'PEOPLE'
p4415
aS'524320'
p4416
aS'524600'
p4417
aa(lp4418
S'NOT'
p4419
aS'524760'
p4420
aS'525120'
p4421
aa(lp4422
S'part:indef'
p4423
aS'525560'
p4424
aS'525640'
p4425
aa(lp4426
S'fs-OUTGOING'
p4427
aS'525760'
p4428
aS'526880'
p4429
aa(lp4430
S'VERY'
p4431
aS'527040'
p4432
aS'527280'
p4433
aa(lp4434
S'UNKNOWN'
p4435
aS'527320'
p4436
aS'527640'
p4437
aa(lp4438
S'FRIENDLY'
p4439
aS'527840'
p4440
aS'528240'
p4441
aa(lp4442
S'WANT'
p4443
aS'528360'
p4444
aS'528480'
p4445
aa(lp4446
S'IN'
p4447
aS'528960'
p4448
aS'529080'
p4449
aa(lp4450
S'COMMUNITY'
p4451
aS'529160'
p4452
aS'529840'
p4453
aasg40
S'529840'
p4454
sg42
Nsg43
(lp4455
g4415
ag4419
ag4423
ag4427
ag4431
ag4435
ag4439
ag4443
ag4447
ag4451
asg45
S'People were not very outgoing, friendly that welcome us in the community.'
p4456
sg47
S'523960'
p4457
ssI77
(dp4458
g2
(lp4459
(lp4460
S'IX-1p'
p4461
aS'530040'
p4462
aS'530120'
p4463
aa(lp4464
S'THINK'
p4465
aS'530240'
p4466
aS'530400'
p4467
aa(lp4468
S'BECAUSE'
p4469
aS'530520'
p4470
aS'530800'
p4471
aa(lp4472
S'ns-LA'
p4473
aS'530840'
p4474
aS'531120'
p4475
aa(lp4476
S'#SO'
p4477
aS'531240'
p4478
aS'531480'
p4479
aa(lp4480
S'BIG'
p4481
aS'531520'
p4482
aS'532640'
p4483
aa(lp4484
S'SAME'
p4485
aS'532720'
p4486
aS'532880'
p4487
aa(lp4488
S'IX-loc:i'
p4489
aS'532960'
p4490
aS'533200'
p4491
aa(lp4492
S'MAYBE'
p4493
aS'533280'
p4494
aS'533520'
p4495
aa(lp4496
S'NOT-CARE'
p4497
aS'533600'
p4498
aS'533920'
p4499
aa(lp4500
S'ABOUT'
p4501
aS'534000'
p4502
aS'534160'
p4503
aa(lp4504
S'POSS-3p:i'
p4505
aS'534280'
p4506
aS'534360'
p4507
aa(lp4508
S'COMMUNITY'
p4509
aS'534440'
p4510
aS'534800'
p4511
aa(lp4512
S'MORE'
p4513
aS'535040'
p4514
aS'535160'
p4515
aa(lp4516
S'SAME'
p4517
aS'535240'
p4518
aS'535360'
p4519
aa(lp4520
S'IX-1p-arc'
p4521
aS'535520'
p4522
aS'535640'
p4523
aa(lp4524
S'fs-DO'
p4525
aS'535720'
p4526
aS'535880'
p4527
aasg40
S'536120'
p4528
sg42
Nsg43
(lp4529
g4461
ag4465
ag4469
ag4473
ag4477
ag4481
ag4485
ag4489
ag4493
ag4497
ag4501
ag4505
ag4509
ag4513
ag4517
ag4521
ag4525
asg45
S'I think its probably because LA is big so they didnt really care about the community as much as we do.'
p4530
sg47
S'529840'
p4531
ss.