(lp0
S'FUNNY'
p1
aS'PEOPLE'
p2
aS'SIMPLE'
p3
aS'THUMB-IX-3p:i'
p4
aS'EXPLAIN'
p5
aS'part:indef'
p6
aS'HAVE'
p7
aS'TELL'
p8
aS'#CNN'
p9
aS'TRUE-BUSINESS'
p10
aS'CL:Lholding the remote'
p11
aS'DCL:4hair up on arms'
p12
aS'DREAM'
p13
aS'SIT'
p14
aS'#BUT'
p15
aS'#RING'
p16
aS'DINNER'
p17
aS'CHAT++'
p18
aS'FIVE-YEAR'
p19
aS'A-LOT'
p20
aS'WHEN'
p21
aS'WATCH'
p22
aS'wave'
p23
aS'PAST'
p24
aS'CL:5dream'
p25
aS'PUNCH+'
p26
aS'KISS'
p27
aS'GO'
p28
aS'WORK-OUT++'
p29
aS'fs-PARKINSON'
p30
aS'BEFORE'
p31
aS'ON'
p32
aS'LOOK'
p33
aS'HOUSE'
p34
aS'AFTER'
p35
aS'LAST-YEAR'
p36
aS'FUTURE'
p37
aS'WISH'
p38
aS'READY'
p39
aS'YES'
p40
aS'#TO'
p41
aS'MAN'
p42
aS'ABOUT'
p43
aS'INVITE'
p44
aS'POSS-3p:i'
p45
aS'fs-PAKINSON'
p46
aS'shake'
p47
aS'MANY'
p48
aS'fs-MUHAMMAD'
p49
aS'FINE'
p50
aS'FIND'
p51
aS'REALLY'
p52
aS'ALLRIGHT'
p53
aS'wow'
p54
aS'BOXING'
p55
aS'FAVORITE'
p56
aS'BUT'
p57
aS'BEAT'
p58
aS'SICK'
p59
aS'SPORT'
p60
aS'APPROACH'
p61
aS'POSS-1p'
p62
aS'INFORMATION'
p63
aS'HOW'
p64
aS'FINISH'
p65
aS'FOUR-YEAR'
p66
aS'#SO'
p67
aS'GRANDFATHER'
p68
aS'REASON'
p69
aS'COOK'
p70
aS'IX-3p:i'
p71
aS'CL:5grabbing person++'
p72
aS'CL:Lholding remote'
p73
aS'SCARE'
p74
aS'IX-3p-pl-2:i'
p75
aS'WIFE'
p76
aS'come on'
p77
aS'TEND'
p78
aS'TIME'
p79
aS'NOT'
p80
aS'CL:3sit down'
p81
aS'UNKNOWN'
p82
aS'HARD'
p83
aS'GREAT'
p84
aS'CL:3sitting down'
p85
aS'COLLECT'
p86
aS'KNOW'
p87
aS'SMALL'
p88
aS'STAND-UP'
p89
aS'punching++'
p90
aS'IX-1p'
p91
aS'REMEMBER'
p92
aS'NO'
p93
aS'CL:Lsetting up the objects++'
p94
aS'SAY'
p95
aS'#FAN'
p96
aS'SEE'
p97
aS'BCL:5muscles on stomach'
p98
aS'SHAKE'
p99
aS'ASK'
p100
aS'DCL:4hair up on the arm'
p101
aS'STILL'
p102
aS'REQUIRE'
p103
aS'REPORTER'
p104
aS'ahhh'
p105
aS'MIND'
p106
aS'SOMETIME'
p107
aS'CHANNEL'
p108
aS'THING'
p109
aS'CL:1walking to person'
p110
aS'THAT'
p111
aS'TEASE++'
p112
aS'WHY'
p113
aS'CL:1listing'
p114
aS'LAUGH'
p115
aS'CL:3sitting around'
p116
aS'WORRY'
p117
aS'MORE'
p118
aS'LITTLE-BIT'
p119
aS'ohh'
p120
aS'DIE'
p121
aS'YOUNG'
p122
aS'BAD'
p123
aS'CAN'
p124
aS'EIGHT-YEAR'
p125
aS'SITUATION'
p126
aS'IMPACT'
p127
aS'IX-3p'
p128
aS'BIG'
p129
aS'QUESTION'
p130
aS'TOGETHER'
p131
aS'ONE'
p132
aS'SO-SO'
p133
aS'TO'
p134
aS'STORY'
p135
aS'fs-ALI'
p136
aS'DISEASE'
p137
aS'START'
p138
aS'FATHER'
p139
aS'AT'
p140
aS'IN'
p141
aS'THINK'
p142
aS'ATTENTION'
p143
aS'CL:Swant to punch'
p144
aS'FOCUS'
p145
aS'SAME'
p146
aS'IX-2p'
p147
aS'fs-BOXING'
p148
aS'LOOK++'
p149
aS'darn'
p150
a.