(lp0
S'BOY'
p1
aS'FUNNY'
p2
aS'part:indef++'
p3
aS'THAT'
p4
aS'EXPLAIN'
p5
aS'YEAR'
p6
aS'GO'
p7
aS'part:indef'
p8
aS'HAVE'
p9
aS'ON'
p10
aS'TIE'
p11
aS'#IT'
p12
aS'WITH'
p13
aS'PROBLEM'
p14
aS'TRUE-BUSINESS'
p15
aS'MUST'
p16
aS'CL:1coming to here'
p17
aS'#THEN'
p18
aS'REALLY+'
p19
aS'CL:Spressing the object++'
p20
aS'CL:1going down'
p21
aS'COORDINATOR'
p22
aS'LIVE'
p23
aS'FRATERNITY'
p24
aS'UNKNOWN'
p25
aS'HERE'
p26
aS'FIFTEEN'
p27
aS'WHEW'
p28
aS'WAIVE'
p29
aS'A-LOT'
p30
aS'FLOOR'
p31
aS'CL:Spulling the object++'
p32
aS'ANYWAY'
p33
aS'PAST'
p34
aS'fs-HUMOR'
p35
aS'CLEAN'
p36
aS'NIGHT'
p37
aS'DORM'
p38
aS'DISCONNECT'
p39
aS'CL:5location'
p40
aS'CAUSE'
p41
aS'MINUTE'
p42
aS'FIRST'
p43
aS'CL:3going up'
p44
aS'BECAUSE'
p45
aS'CHECK++'
p46
aS'EMERGENCY'
p47
aS'NOT-KNOW'
p48
aS'#CSUN'
p49
aS'CL:Spressing the object'
p50
aS'PERSON'
p51
aS'REGULAR'
p52
aS'YES'
p53
aS'#TO'
p54
aS'CL:Sfixing the object'
p55
aS'CL:5teasing+'
p56
aS'ABOUT'
p57
aS'SURE'
p58
aS'NS-CSUN'
p59
aS'DRIVE'
p60
aS'POSS-3p:i'
p61
aS'SOME'
p62
aS'BROTHER'
p63
aS'LUCKY'
p64
aS'LEAVE'
p65
aS'CIGARETTE'
p66
aS'FINE'
p67
aS'FIND'
p68
aS'REALLY'
p69
aS'NONE'
p70
aS'CL:1throwing the objects'
p71
aS'ROOM'
p72
aS'GET'
p73
aS'BUT'
p74
aS'NS-ERICK'
p75
aS'#HALL'
p76
aS'TROUBLE'
p77
aS'POSS-1p'
p78
aS'CL:5vomiting'
p79
aS'FOR'
p80
aS'fs-B'
p81
aS'#SO'
p82
aS'ELSE'
p83
aS'IX-3p:i'
p84
aS'SIZE'
p85
aS'#BUTTS'
p86
aS'NO'
p87
aS'TEND'
p88
aS'TIME'
p89
aS'NOT'
p90
aS'NOW'
p91
aS'FRIENDLY'
p92
aS'HOPE'
p93
aS'COP'
p94
aS'FROM-NOW-ON'
p95
aS'DO'
p96
aS'RESIDENCE'
p97
aS'CL:Spulling the object'
p98
aS'KNOW'
p99
aS'DECIDE'
p100
aS'CLEAN++'
p101
aS'GRASS'
p102
aS'OPEN'
p103
aS'MAKER'
p104
aS'ENJOY'
p105
aS'IX-1p'
p106
aS'WORD'
p107
aS'fs-HOHOLE'
p108
aS'GIFT'
p109
aS'IX-3p-arc'
p110
aS'WHO'
p111
aS'SAY'
p112
aS'SEE'
p113
aS'ns-ERICK'
p114
aS'ARRIVE'
p115
aS'WHY'
p116
aS'OUT'
p117
aS'AGAIN'
p118
aS'CUT'
p119
aS'CL:5location of the object'
p120
aS'PICK'
p121
aS'PUNISH'
p122
aS'SEVEN'
p123
aS'#EVER'
p124
aS'CHOICE'
p125
aS'CL:Ssize of the object'
p126
aS'TROUBLE+'
p127
aS'(2h)SAME'
p128
aS'HAPPEN'
p129
aS'COUNSELOR'
p130
aS'COME'
p131
aS'CL:2sitting down'
p132
aS'fs-ERICK'
p133
aS'WAIT'
p134
aS'(2h)IX:3p:x/y'
p135
aS'NAME'
p136
aS'BAD'
p137
aS'SO'
p138
aS'fs-DOOR'
p139
aS'LAUGH'
p140
aS'WORRY'
p141
aS'LOOK'
p142
aS'CAN-NOT'
p143
aS'CL:1sneaking'
p144
aS'FEEL'
p145
aS'TWO'
p146
aS'ROOMMATE'
p147
aS'WAIT++'
p148
aS'UNDERSTAND'
p149
aS'CAN'
p150
aS'SITUATION'
p151
aS'STAY'
p152
aS'BOTH'
p153
aS'SOMEONE'
p154
aS'no'
p155
aS'BIG'
p156
aS'#LA'
p157
aS'ONE'
p158
aS'TO'
p159
aS'CL:1pointing at us'
p160
aS'CL:Spulling against each other++'
p161
aS'ANOTHER'
p162
aS'CALL'
p163
aS'HAPPY'
p164
aS'(2h)PERFECT'
p165
aS'PERFECT'
p166
aS'PLAY'
p167
aS'GOOD'
p168
aS'IX-2p-arc'
p169
aS'MAYBE'
p170
aS'fs-HALL'
p171
aS'fs-ROPE'
p172
aS'THIRD'
p173
aS'START'
p174
aS'PAST+'
p175
aS'AT'
p176
aS'IN'
p177
aS'THINK'
p178
aS'NOT-WANT'
p179
aS'IF'
p180
aS'BUILDING'
p181
aS'ERICK'
p182
aS'FROM'
p183
aS'CL:5teasing'
p184
aS'MAKE'
p185
aS'SYSTEM'
p186
aS'SAME'
p187
aS'IX-2p'
p188
aS'IX-1p-arc'
p189
aS'#RA'
p190
aS'so'
p191
aS'(2h)IX-3p:i'
p192
aS'THROW'
p193
a.