(lp0
S'PEOPLE'
p1
aS'THUMB-IX-3p-i'
p2
aS'REFUSE'
p3
aS'DEAF'
p4
aS'BACK'
p5
aS'BPCL:4foot under the object'
p6
aS'STRANGE'
p7
aS'CL:1spitting out'
p8
aS'part:indef'
p9
aS'HAVE'
p10
aS'FALL'
p11
aS'BORE'
p12
aS'CL:4waving++'
p13
aS'WITH'
p14
aS'MUST'
p15
aS'CL:Criding on the vehicle'
p16
aS'CL:5location'
p17
aS'TOUGH'
p18
aS'GIRL'
p19
aS'TO'
p20
aS'MANY'
p21
aS'#BUS'
p22
aS'SAY'
p23
aS'FRONT'
p24
aS'BCL:Srowing+'
p25
aS'fs-MAINE'
p26
aS'IX-3p-pl-2:x/y'
p27
aS'fs-FOOT'
p28
aS'CL:3pulling over'
p29
aS'PAST'
p30
aS'KISS'
p31
aS'NIGHT'
p32
aS'GO'
p33
aS'RIVER'
p34
aS'WHERE'
p35
aS'CL:5vehicle motion'
p36
aS'FIRST'
p37
aS'CL:Cvehicle motion'
p38
aS'ON'
p39
aS'#OR'
p40
aS'LOOK'
p41
aS'GET-TOGETHER'
p42
aS'EAT'
p43
aS'CL:5many objects'
p44
aS'BCL:5tapping person'
p45
aS'EVERYTHING'
p46
aS'HEARING'
p47
aS'WATER'
p48
aS'READY'
p49
aS'#OK'
p50
aS'CL:3falling off'
p51
aS'MAN'
p52
aS'BCL:Srowing'
p53
aS'GREAT'
p54
aS'AFTER'
p55
aS'BUSINESS'
p56
aS'FRIDAY'
p57
aS'SOME'
p58
aS'sign'
p59
aS'CL:Spulling person out'
p60
aS'COLD'
p61
aS'FINE'
p62
aS'FIND'
p63
aS'BOAT'
p64
aS'REALLY'
p65
aS'BREAK'
p66
aS'WHAT'
p67
aS'STEAK'
p68
aS'GET'
p69
aS'RIDE'
p70
aS'SPELL'
p71
aS'BUT'
p72
aS'CL:2quotation'
p73
aS'MAYBE'
p74
aS'CL:5locations'
p75
aS'WEEKEND'
p76
aS'LEADER'
p77
aS'POSS-1p'
p78
aS'ROW'
p79
aS'#FUN'
p80
aS'FINISH'
p81
aS'fs-K'
p82
aS'FOR'
p83
aS'CL:5pulling over'
p84
aS'IX-1p'
p85
aS'gagging'
p86
aS'WOMAN'
p87
aS'EXPECT'
p88
aS'CL:3falling out'
p89
aS'UNDER'
p90
aS'PATIENT'
p91
aS'IX-3p:j'
p92
aS'FALL++'
p93
aS'AND'
p94
aS'WARN'
p95
aS'CL:5falling'
p96
aS'LONG-TERM'
p97
aS'LEAD'
p98
aS'WAKE-UP'
p99
aS'SCREAM'
p100
aS'NOON'
p101
aS'REALIZE'
p102
aS'BREATH'
p103
aS'BEER'
p104
aS'TIME'
p105
aS'MOST'
p106
aS'CL:5boat floating'
p107
aS'fs-SPA'
p108
aS'DO'
p109
aS'THAT'
p110
aS'UNKNOWN'
p111
aS'clapping'
p112
aS'STOP'
p113
aS'CL:3falling off++'
p114
aS'SURE'
p115
aS'EVERYWHERE'
p116
aS'KNOW'
p117
aS'FOLLOW'
p118
aS'A-LITTLE'
p119
aS'STAND-UP'
p120
aS'#SO'
p121
aS'SLOW'
p122
aS'WORD'
p123
aS'GIFT'
p124
aS'IX-3p-arc'
p125
aS'WHO'
p126
aS'RELAX'
p127
aS'LIVE'
p128
aS'CL:3sitting down+'
p129
aS'ARRIVE'
p130
aS'FRIEND'
p131
aS'BCL:5grabbing person'
p132
aS'AGAIN'
p133
aS'CL:2sitting on'
p134
aS'CLOSE-BY'
p135
aS'CL:5etc'
p136
aS'CHOICE'
p137
aS'LATER'
p138
aS'BCL:Sgiving the stick to person'
p139
aS'ADMIT'
p140
aS'CONCEPT'
p141
aS'(2h)CL:3falling off'
p142
aS'SIT'
p143
aS'MINUTES'
p144
aS'GRAB'
p145
aS'BCL:Sholding the stick'
p146
aS'LEAVE'
p147
aS'STILL'
p148
aS'PAST++'
p149
aS'TWENTY'
p150
aS'COUGH++'
p151
aS'fs-DAISY'
p152
aS'fs-CPR'
p153
aS'LOSE'
p154
aS'RAFT'
p155
aS'IX-3p:i'
p156
aS'MAINE'
p157
aS'WORRY'
p158
aS'CAN-NOT'
p159
aS'BCL:4tapping person'
p160
aS'fs-RAFT'
p161
aS'FEEL'
p162
aS'SARCASM'
p163
aS'fs-ADVDVENTURE'
p164
aS'UNDERSTAND'
p165
aS'CAN'
p166
aS'fs-POLE'
p167
aS'fs-DAY'
p168
aS'BOTH'
p169
aS'CL:5waving++'
p170
aS'ns-MIKE'
p171
aS'IX-3p'
p172
aS'BCLSgiving the stick to person'
p173
aS'CAMP'
p174
aS'WHEN'
p175
aS'ONE'
p176
aS'OVER-NIGHT'
p177
aS'CL:Srowing++'
p178
aS'ANOTHER'
p179
aS'BCL:Sgrabbing person++'
p180
aS'fs-MIKE'
p181
aS'NOT-KNOW'
p182
aS'GOOD'
p183
aS'STUCK'
p184
aS'PULL'
p185
aS'SET-UP++'
p186
aS'eee'
p187
aS'#IT'
p188
aS'fs-TONY'
p189
aS'MORNING'
p190
aS'waving'
p191
aS'START'
p192
aS'A-WHILE'
p193
aS'HEAR'
p194
aS'IN'
p195
aS'SERIOUS'
p196
aS'WHITE'
p197
aS'CL:5crowding'
p198
aS'THINK'
p199
aS'GROUND'
p200
aS'SEVEN'
p201
aS'RIGHT'
p202
aS'FROM'
p203
aS'ns-DAISY'
p204
aS'CL:3sitting on++'
p205
aS'MAKE'
p206
aS'SAME'
p207
aS'THROW'
p208
aS'IX-1p-arc'
p209
aS'CALL'
p210
aS'#HER'
p211
aS'NOTHING'
p212
aS'BCL:Srowing++'
p213
aS'CHICKEN'
p214
aS'SPIT++'
p215
aS'ALL-DAY'
p216
a.