(lp0
S'SHOOT'
p1
aS'BOY'
p2
aS'#GO'
p3
aS'PEOPLE'
p4
aS'NOT^HAVE-TO'
p5
aS'i:GIFT++:j'
p6
aS'WANT'
p7
aS'GIRL'
p8
aS'MUST'
p9
aS'i:GIFT:j'
p10
aS'fs-JOHN:j'
p11
aS'MANY'
p12
aS'fs-JOHN:i'
p13
aS'READ'
p14
aS'LIVE'
p15
aS'fs-BILL'
p16
aS'fs-JANA:j'
p17
aS'(2h)GIFT-pl-arc:j'
p18
aS'fs-ANN'
p19
aS'CHICAGO'
p20
aS'PAST'
p21
aS'GO'
p22
aS'SHOULD^NOT'
p23
aS'fs-TOY'
p24
aS'fs-JOHN'
p25
aS'HOUSE'
p26
aS'BLAME'
p27
aS'FUTURE'
p28
aS'SELF-3p:i'
p29
aS'(2h)alt.i:GIFT+:j'
p30
aS'BOX'
p31
aS'neu:GIVE:j'
p32
aS'IX-1p:i'
p33
aS'MOVIE'
p34
aS'PREFER'
p35
aS'i:BLAME:j'
p36
aS'BUY'
p37
aS'neu:GIFT+++:i/j/k'
p38
aS'CHOCOLATE'
p39
aS'neu:GIFT:j'
p40
aS'FINISH'
p41
aS'LOVE'
p42
aS'VISIT'
p43
aS'fs-MARY'
p44
aS'IX-3p:i'
p45
aS'NOT'
p46
aS'IX-3p-pl-arc:i'
p47
aS'TEACHER'
p48
aS'BOX++'
p49
aS'KNOW'
p50
aS'DECIDE'
p51
aS'fs-JANA'
p52
aS'IX-1p'
p53
aS'APPLE'
p54
aS'SAY'
p55
aS'TOMORROW'
p56
aS'SEE'
p57
aS'ARRIVE'
p58
aS'fs-CORN'
p59
aS'CORN'
p60
aS'(2h)alt.GIFT++:j'
p61
aS'VEGETABLE'
p62
aS'LIKE'
p63
aS'j:(1h)LOVE:i'
p64
aS'(2h)alt.i:GIFT++:j'
p65
aS'LAST-WEEK'
p66
aS'SHOULD'
p67
aS'BOOK'
p68
aS'LOVE:j'
p69
aS'TOY'
p70
aS'CAR'
p71
aS'j:LOVE:i'
p72
aS'#ALL'
p73
aS'CAN'
p74
aS'TELL:j'
p75
aS'neu:GIFT-pl-arc'
p76
aS'i:TELL:j'
p77
aS'IX-3p'
p78
aS'fs-MARY:i'
p79
aS'fs-MARY:j'
p80
aS'(2h)alt.i:GIVE++:j'
p81
aS'NEW-YORK'
p82
aS'(2h)alt.GIFT+:j'
p83
aS'MOTHER'
p84
aS'#EX'
p85
aS'NEXT-WEEK'
p86
aS'CLASS:i'
p87
aS'THINK'
p88
aS'SELL'
p89
aS'FUTURE^NOT'
p90
aS'fs-FRANK'
p91
a.