(lp0
S'ABOUT'
p1
aS'READ'
p2
aS'CAR'
p3
aS'READ+'
p4
aS'BUY++'
p5
aS'part:indef'
p6
aS'TEACHER:k'
p7
aS'(2h)alt.GIVE+:i'
p8
aS'BUY'
p9
aS'IX-loc:i'
p10
aS'BOOK'
p11
aS'READ++'
p12
aS'FINISH'
p13
aS'A-LOT'
p14
aS'OTHER'
p15
aS'UP-TO-NOW'
p16
aS'WATCH+'
p17
aS'IN'
p18
aS'GO'
p19
aS'IX-3p:i'
p20
aS'(2h)alt.GIVE+++:i'
p21
aS'MOTHER-FATHER'
p22
aS'CRAZY'
p23
aS'LIKE'
p24
aS'fs-JOHN'
p25
aS'HOUSE'
p26
aS'fs:JOHN'
p27
aS'FUTURE'
p28
aS'COME-ON+'
p29
aS'NOW'
p30
aS'TEACHER'
p31
aS'EXPECT'
p32
a.