(lp0
S'ABOUT'
p1
aS'(2h)alt:GIVE++:i'
p2
aS'#BACK'
p3
aS'READ'
p4
aS'READ+'
p5
aS'BOOK+'
p6
aS'WANT'
p7
aS'BUY'
p8
aS'i:GIFT:j'
p9
aS'MANY'
p10
aS'IX-loc:j'
p11
aS'BOOK'
p12
aS'KISS-FIST'
p13
aS"CAN'T"
p14
aS'FINISH'
p15
aS'END'
p16
aS'A-LOT'
p17
aS'OTHER'
p18
aS'IX-3p:i'
p19
aS'IX-3p:j'
p20
aS'EVERYDAY++'
p21
aS'MOTHER-FATHER'
p22
aS'fs-JOHN'
p23
aS'HOUSE'
p24
aS'#CAR'
p25
aS'FUTURE'
p26
aS'NOW'
p27
aS'TEACHER'
p28
aS'READ+++'
p29
a.