(lp0
S'WHO'
p1
aS'QMwg'
p2
aS'THAT'
p3
aS'CAR'
p4
aS'POSS-3p:j'
p5
aS'PREFER'
p6
aS'KNOW'
p7
aS'NEW'
p8
aS'BROCCOLI'
p9
aS'#EX'
p10
aS'PEOPLE'
p11
aS'FATHER'
p12
aS'IX-loc:i'
p13
aS'IX-loc:j'
p14
aS'POSS-3p:i'
p15
aS'JOHN'
p16
aS'LOVE'
p17
aS'PAST'
p18
aS'fs-MARY'
p19
aS'VEGETABLE'
p20
aS'IX-3p:i'
p21
aS'IX-3p:j'
p22
aS'fs-JOHN'
p23
aS'part:indef'
p24
aS'CHINA'
p25
aS'MAN'
p26
a.