(lp0
S'VIDEOTAPE'
p1
aS'CAR'
p2
aS'BOOK+'
p3
aS'part:indef'
p4
aS'HAVE'
p5
aS'SEE:i'
p6
aS'fs-SUE'
p7
aS'fs-BILL:i'
p8
aS'TELL:i'
p9
aS'WHAT'
p10
aS'WOMAN'
p11
aS'APPLE'
p12
aS'WHO'
p13
aS'CHOCOLATE'
p14
aS'SEE'
p15
aS'SOMETHING/ONE'
p16
aS'fs-BILL'
p17
aS'ARRIVE'
p18
aS'LOVE'
p19
aS'BUY'
p20
aS'fs-MARY'
p21
aS'SHOULD++'
p22
aS'SHOULD+'
p23
aS'GO'
p24
aS'IX-3p:i'
p25
aS'IX-3p:j'
p26
aS'BLUE'
p27
aS'LIKE'
p28
aS'fs-JOHN'
p29
aS'YESTERDAY'
p30
aS'SHOULD'
p31
aS'BOOK'
p32
aS'STUDENT'
p33
aS'THROW'
p34
a.