(lp0
S'IX-1p:i'
p1
aS'BORROW'
p2
aS'READ'
p3
aS'POSS-3p:i'
p4
aS'POSS-3p:j'
p5
aS'BOOK+'
p6
aS'PREFER'
p7
aS'BROTHER'
p8
aS'WHO'
p9
aS'HURT'
p10
aS'VEGETABLE'
p11
aS'part:indef'
p12
aS'HAVE'
p13
aS'fs-SUE'
p14
aS'SEARCH-FOR'
p15
aS'NEW'
p16
aS'FIND'
p17
aS'IX-1p'
p18
aS'WOMAN'
p19
aS'OLD'
p20
aS'APPLE'
p21
aS'i:GIFT:j'
p22
aS'COAT'
p23
aS'fs-JOHN:i'
p24
aS'SEE'
p25
aS'LOVE'
p26
aS'ONE'
p27
aS'VIDEOTAPE'
p28
aS'IX-loc:j'
p29
aS'SOMETHING/ONE'
p30
aS'fs-BILL'
p31
aS'CAR'
p32
aS'IX:i'
p33
aS'neu:GIFT:j'
p34
aS'ARRIVE'
p35
aS'READ+'
p36
aS'fs-LEG'
p37
aS'STUDENT'
p38
aS'SOLD'
p39
aS'MOTHER'
p40
aS'WHAT'
p41
aS'HERE'
p42
aS'BUY'
p43
aS'FRIEND:j'
p44
aS'CANDY'
p45
aS'SOMETHING/ONE:j'
p46
aS'THROW'
p47
aS'REFUSE'
p48
aS'IX-3p:i'
p49
aS'IX-3p:j'
p50
aS'NAME'
p51
aS'BLUE'
p52
aS'BUY:i'
p53
aS'LIKE'
p54
aS'fs-JOHN'
p55
aS'POTATO'
p56
aS'HOUSE'
p57
aS'(1h)HAVE'
p58
aS'neu:GIVE-indef:j'
p59
aS'YESTERDAY'
p60
aS'EAT'
p61
aS'BREAK-DOWN'
p62
aS'BOOK'
p63
aS'fs-FRANK'
p64
aS'fs-MARY'
p65
aS'POSS:j'
p66
aS'STOLE'
p67
aS'TELL'
p68
aS'MAN'
p69
a.