(dp0
I0
(dp1
S'Annotated'
p2
(lp3
(lp4
S'IX-1p'
p5
aS'400'
p6
aS'440'
p7
aa(lp8
S'REMEMBER'
p9
aS'620'
p10
aS'740'
p11
aa(lp12
S'PAST+'
p13
aS'940'
p14
aS'1540'
p15
aa(lp16
S'IX-1p'
p17
aS'1660'
p18
aS'1720'
p19
aa(lp20
S'DRIVE'
p21
aS'1820'
p22
aS'2120'
p23
aasS'EndFrame'
p24
S'2120'
p25
sS'Video'
p26
S'ben_story_439_small_0.mov'
p27
sS'Words'
p28
(lp29
g5
ag9
ag13
ag17
ag21
asS'English'
p30
S'I remember a while ago when I was driving.'
p31
sS'StartFrame'
p32
S'0'
p33
ssI1
(dp34
g2
(lp35
(lp36
S'TRIP'
p37
aS'2300'
p38
aS'2660'
p39
aa(lp40
S'fs-US'
p41
aS'2760'
p42
aS'2920'
p43
aasg24
S'2920'
p44
sg26
S'ben_story_439_small_0.mov'
p45
sg28
(lp46
g37
ag41
asg30
S'I was travelling over the U.S.'
p47
sg32
S'2140'
p48
ssI2
(dp49
g2
(lp50
(lp51
S'ON'
p52
aS'3040'
p53
aS'3080'
p54
aa(lp55
S'HIGHWAY'
p56
aS'3200'
p57
aS'3360'
p58
aa(lp59
S'EIGHTY'
p60
aS'3440'
p61
aS'3860'
p62
aa(lp63
S'CL:Bcrossing the road'
p64
aS'4040'
p65
aS'4480'
p66
aasg24
S'4480'
p67
sg26
S'ben_story_439_small_0.mov'
p68
sg28
(lp69
g52
ag56
ag60
ag64
asg30
S'Route 80 on the highway across the country.'
p70
sg32
S'2940'
p71
ssI3
(dp72
g2
(lp73
(lp74
S'IX-1p'
p75
aS'4580'
p76
aS'4600'
p77
aa(lp78
S'DRIVE++'
p79
aS'4800'
p80
aS'6260'
p81
aasg24
S'6260'
p82
sg26
S'ben_story_439_small_0.mov'
p83
sg28
(lp84
g75
ag79
asg30
S'I was driving.'
p85
sg32
S'4500'
p86
ssI4
(dp87
g2
(lp88
(lp89
S'DRY'
p90
aS'6520'
p91
aS'7200'
p92
aa(lp93
S'CL:5plain on the road++'
p94
aS'7280'
p95
aS'8220'
p96
aasg24
S'8220'
p97
sg26
S'ben_story_439_small_0.mov'
p98
sg28
(lp99
g90
ag94
asg30
S'There was dry and plain on the road while I was driving.'
p100
sg32
S'6280'
p101
ssI5
(dp102
g2
(lp103
(lp104
S'DRIVE+'
p105
aS'8340'
p106
aS'8880'
p107
aa(lp108
S'BORE'
p109
aS'9080'
p110
aS'9280'
p111
aa(lp112
S'IX-1p'
p113
aS'9360'
p114
aS'9420'
p115
aa(lp116
S'DRIVE'
p117
aS'9480'
p118
aS'9520'
p119
aa(lp120
S'DO'
p121
aS'9620'
p122
aS'9760'
p123
aasg24
S'9760'
p124
sg26
S'ben_story_439_small_0.mov'
p125
sg28
(lp126
g105
ag109
ag113
ag117
ag121
asg30
S'I was driving and feel bored. So, I figured out what should I do while I am driving.'
p127
sg32
S'8240'
p128
ssI6
(dp129
g2
(lp130
(lp131
S'IX-1p'
p132
aS'9800'
p133
aS'9860'
p134
aa(lp135
S'DRIVE'
p136
aS'9920'
p137
aS'10400'
p138
aa(lp139
S'IX-1p'
p140
aS'10480'
p141
aS'10540'
p142
aa(lp143
S'THINK'
p144
aS'10660'
p145
aS'10740'
p146
aa(lp147
S'WHY'
p148
aS'10800'
p149
aS'10880'
p150
aa(lp151
S'NOT'
p152
aS'10940'
p153
aS'10980'
p154
aa(lp155
S'TURN-OFF'
p156
aS'11180'
p157
aS'11600'
p158
aasg24
S'11600'
p159
sg26
S'ben_story_439_small_0.mov'
p160
sg28
(lp161
g132
ag136
ag140
ag144
ag148
ag152
ag156
asg30
S'I thought why not to turn off the way while drive.'
p162
sg32
S'9780'
p163
ssI7
(dp164
g2
(lp165
(lp166
S'CL:Bdriving curve'
p167
aS'11700'
p168
aS'12420'
p169
aa(lp170
S'COUNTRY'
p171
aS'12480'
p172
aS'12780'
p173
aasg24
S'12780'
p174
sg26
S'ben_story_439_small_0.mov'
p175
sg28
(lp176
g167
ag171
asg30
S'I was driving through the country.'
p177
sg32
S'11620'
p178
ssI8
(dp179
g2
(lp180
(lp181
S'WHY'
p182
aS'14200'
p183
aS'14220'
p184
aa(lp185
S'NOT'
p186
aS'14260'
p187
aS'14280'
p188
aa(lp189
S'IX-1p'
p190
aS'14320'
p191
aS'14360'
p192
aa(lp193
S'DRIVE'
p194
aS'14400'
p195
aS'14620'
p196
aa(lp197
S'AHEAD'
p198
aS'14680'
p199
aS'14800'
p200
aasg24
S'14800'
p201
sg26
S'ben_story_439_small_0.mov'
p202
sg28
(lp203
g182
ag186
ag190
ag194
ag198
asg30
S'Thought why not for me to go ahead drive.'
p204
sg32
S'14160'
p205
ssI9
(dp206
g2
(lp207
(lp208
S'IX-1p'
p209
aS'14860'
p210
aS'14880'
p211
aa(lp212
S'LOOK'
p213
aS'14940'
p214
aS'14960'
p215
aa(lp216
S'IX-3p:i'
p217
aS'14980'
p218
aS'15120'
p219
aa(lp220
S'CURVE'
p221
aS'15200'
p222
aS'15520'
p223
aasg24
S'15520'
p224
sg26
S'ben_story_439_small_0.mov'
p225
sg28
(lp226
g209
ag213
ag217
ag221
asg30
S'I saw there is a road off from the highway.'
p227
sg32
S'14820'
p228
ssI10
(dp229
g2
(lp230
(lp231
S'IX-1p'
p232
aS'15620'
p233
aS'15680'
p234
aa(lp235
S'CL:Sturning the wheel'
p236
aS'15800'
p237
aS'15900'
p238
aa(lp239
S'CL:3vehicle moving turn'
p240
aS'16000'
p241
aS'16740'
p242
aasg24
S'16740'
p243
sg26
S'ben_story_439_small_0.mov'
p244
sg28
(lp245
g232
ag236
ag240
asg30
S'I turned the wheel to pull over.'
p246
sg32
S'15560'
p247
ssI11
(dp248
g2
(lp249
(lp250
S'BEAUTIFUL'
p251
aS'18100'
p252
aS'18160'
p253
aa(lp254
S'HILL'
p255
aS'18280'
p256
aS'18640'
p257
aa(lp258
S'DRIVE'
p259
aS'18740'
p260
aS'19360'
p261
aasg24
S'19360'
p262
sg26
S'ben_story_439_small_0.mov'
p263
sg28
(lp264
g251
ag255
ag259
asg30
S'I was driving through beautiful hills.'
p265
sg32
S'18000'
p266
ssI12
(dp267
g2
(lp268
(lp269
S'HOUSE'
p270
aS'19460'
p271
aS'19540'
p272
aa(lp273
S'CL:1passing by'
p274
aS'19640'
p275
aS'19760'
p276
aa(lp277
S'punct'
p278
aS'20120'
p279
aa(lp280
S'DRIVE'
p281
aS'20260'
p282
aS'20600'
p283
aasg24
S'20600'
p284
sg26
S'ben_story_439_small_0.mov'
p285
sg28
(lp286
g270
ag274
ag278
ag281
asg30
S'I was driving passed by houses.'
p287
sg32
S'19380'
p288
ssI13
(dp289
g2
(lp290
(lp291
S'DARK'
p292
aS'20840'
p293
aS'21280'
p294
aa(lp295
S'IX-1p'
p296
aS'21340'
p297
aS'21420'
p298
aa(lp299
S'(2h)CL:5head lights on'
p300
aS'21680'
p301
aS'21940'
p302
aasg24
S'21940'
p303
sg26
S'ben_story_439_small_0.mov'
p304
sg28
(lp305
g292
ag296
ag300
asg30
S'I turned the headlight on when it s getting dark..'
p306
sg32
S'20620'
p307
ssI14
(dp308
g2
(lp309
(lp310
S'ENJOY'
p311
aS'23820'
p312
aS'24180'
p313
aa(lp314
S'DRIVE'
p315
aS'24320'
p316
aS'25380'
p317
aasg24
S'25380'
p318
sg26
S'ben_story_439_small_0.mov'
p319
sg28
(lp320
g311
ag315
asg30
S'I enjoyed to driving.'
p321
sg32
S'23640'
p322
ssI15
(dp323
g2
(lp324
(lp325
S'HAPPEN'
p326
aS'25560'
p327
aS'25660'
p328
aa(lp329
S'IX-3p:i'
p330
aS'25760'
p331
aS'26420'
p332
aa(lp333
S'ROAD'
p334
aS'26600'
p335
aS'26780'
p336
aasg24
S'26780'
p337
sg26
S'ben_story_439_small_0.mov'
p338
sg28
(lp339
g326
ag330
ag334
asg30
S'There is something happpened over there on the road.'
p340
sg32
S'25400'
p341
ssI16
(dp342
g2
(lp343
(lp344
S'IX-3p:i'
p345
aS'28300'
p346
aS'28460'
p347
aa(lp348
S'DEER'
p349
aS'28620'
p350
aS'28900'
p351
aa(lp352
g278
aS'29500'
p353
aasg24
S'29500'
p354
sg26
S'ben_story_439_small_0.mov'
p355
sg28
(lp356
g345
ag349
ag278
asg30
S'There was a deer.'
p357
sg32
S'28140'
p358
ssI17
(dp359
g2
(lp360
(lp361
S'DEER'
p362
aS'29640'
p363
aS'29740'
p364
aa(lp365
S'CL:5chewing'
p366
aS'29860'
p367
aS'30120'
p368
aa(lp369
S'GRASS'
p370
aS'30240'
p371
aS'30440'
p372
aasg24
S'30440'
p373
sg26
S'ben_story_439_small_0.mov'
p374
sg28
(lp375
g362
ag366
ag370
asg30
S'A deer was eating the grass.'
p376
sg32
S'29520'
p377
ssI18
(dp378
g2
(lp379
(lp380
S'CL:5eating'
p381
aS'30580'
p382
aS'31580'
p383
aa(lp384
S'LOOK-UP'
p385
aS'31780'
p386
aS'32000'
p387
aasg24
S'32000'
p388
sg26
S'ben_story_439_small_0.mov'
p389
sg28
(lp390
g381
ag385
asg30
S'A deer was eating the grass and then look up.'
p391
sg32
S'30460'
p392
ssI19
(dp393
g2
(lp394
(lp395
S'SEE'
p396
aS'32180'
p397
aS'32260'
p398
aa(lp399
S'ROAD'
p400
aS'32400'
p401
aS'32500'
p402
aa(lp403
S'ACROSS'
p404
aS'33080'
p405
aS'33100'
p406
aa(lp407
S'IX-loc-i'
p408
aS'33320'
p409
aS'33520'
p410
aasg24
S'33520'
p411
sg26
S'ben_story_439_small_0.mov'
p412
sg28
(lp413
g396
ag400
ag404
ag408
asg30
S'Saw something across the road.'
p414
sg32
S'32020'
p415
ssI20
(dp416
g2
(lp417
(lp418
S'CL:5size of the object'
p419
aS'33700'
p420
aS'33980'
p421
aa(lp422
S'GRASS'
p423
aS'34100'
p424
aS'34220'
p425
aa(lp426
S'LOOK'
p427
aS'34300'
p428
aS'34600'
p429
aa(lp430
S'DELICIOUS'
p431
aS'34760'
p432
aS'34960'
p433
aasg24
S'34960'
p434
sg26
S'ben_story_439_small_0.mov'
p435
sg28
(lp436
g419
ag423
ag427
ag431
asg30
S'Theres bunch of grass over there that looks delicious!'
p437
sg32
S'33540'
p438
ssI21
(dp439
g2
(lp440
(lp441
S'LOOK'
p442
aS'35060'
p443
aS'35480'
p444
aa(lp445
S'DECIDE'
p446
aS'35680'
p447
aS'35820'
p448
aa(lp449
S'CL:2four legs walking'
p450
aS'35940'
p451
aS'36340'
p452
aa(lp453
S'ACROSS'
p454
aS'36520'
p455
aS'36900'
p456
aasg24
S'36900'
p457
sg26
S'ben_story_439_small_0.mov'
p458
sg28
(lp459
g442
ag446
ag450
ag454
asg30
S'Looked and then decided to walk across.'
p460
sg32
S'35000'
p461
ssI22
(dp462
g2
(lp463
(lp464
S'DRIVE'
p465
aS'39460'
p466
aS'39840'
p467
aa(lp468
S'NOTICE'
p469
aS'40100'
p470
aS'40200'
p471
aa(lp472
g278
aS'40460'
p473
aa(lp474
S'SOMETHING'
p475
aS'40580'
p476
aS'40700'
p477
aa(lp478
S'ANIMAL'
p479
aS'40760'
p480
aS'41080'
p481
aa(lp482
S'ACROSS'
p483
aS'41220'
p484
aS'41420'
p485
aasg24
S'41420'
p486
sg26
S'ben_story_439_small_0.mov'
p487
sg28
(lp488
g465
ag469
ag278
ag475
ag479
ag483
asg30
S'I notice there is some animal walk across the road.'
p489
sg32
S'39380'
p490
ssI23
(dp491
g2
(lp492
(lp493
S'IX-1p'
p494
aS'41520'
p495
aS'41560'
p496
aa(lp497
S'DRIVE'
p498
aS'41640'
p499
aS'42040'
p500
aa(lp501
S'DEER'
p502
aS'42160'
p503
aS'42280'
p504
aa(lp505
S"CL:5deer's looking to me"
p506
aS'42500'
p507
aS'43020'
p508
aasg24
S'43020'
p509
sg26
S'ben_story_439_small_0.mov'
p510
sg28
(lp511
g494
ag498
ag502
ag506
asg30
S'The Deer looked at me while I was driving.'
p512
sg32
S'41440'
p513
ssI24
(dp514
g2
(lp515
(lp516
S'LOOK'
p517
aS'45640'
p518
aS'45940'
p519
aa(lp520
S'SHOCK'
p521
aS'46400'
p522
aS'46560'
p523
aa(lp524
S'CL:5person shocking'
p525
aS'46680'
p526
aS'47000'
p527
aasg24
S'47000'
p528
sg26
S'ben_story_439_small_0.mov'
p529
sg28
(lp530
g517
ag521
ag525
asg30
S'Deer was shocked.'
p531
sg32
S'45560'
p532
ssI25
(dp533
g2
(lp534
(lp535
S'part:indef'
p536
aS'47080'
p537
aS'47180'
p538
aa(lp539
S'IX-1p'
p540
aS'47220'
p541
aS'47240'
p542
aa(lp543
S'DRIVE'
p544
aS'47360'
p545
aS'47560'
p546
aa(lp547
S'BRAKE'
p548
aS'47720'
p549
aS'47960'
p550
aa(lp551
S'fs-BRAKE'
p552
aS'48040'
p553
aS'48140'
p554
aa(lp555
S'CL:5noise from the vehicle'
p556
aS'48240'
p557
aS'48500'
p558
aasg24
S'48500'
p559
sg26
S'ben_story_439_small_0.mov'
p560
sg28
(lp561
g536
ag540
ag544
ag548
ag552
ag556
asg30
Nsg32
S'47020'
p562
ssI26
(dp563
g2
(lp564
(lp565
S'CL:3vehicle move over'
p566
aS'49980'
p567
aS'50680'
p568
aasg24
S'50700'
p569
sg26
S'ben_story_439_small_0.mov'
p570
sg28
(lp571
g566
asg30
S'The car pulled off the road.'
p572
sg32
S'49880'
p573
ssI27
(dp574
g2
(lp575
(lp576
S'DEER'
p577
aS'50820'
p578
aS'50840'
p579
aa(lp580
S'CL:5person shocking'
p581
aS'50900'
p582
aS'51100'
p583
aa(lp584
S'SCARE'
p585
aS'51200'
p586
aS'51360'
p587
aa(lp588
S'CL:5person shocking'
p589
aS'51400'
p590
aS'51620'
p591
aasg24
S'51620'
p592
sg26
S'ben_story_439_small_0.mov'
p593
sg28
(lp594
g577
ag581
ag585
ag589
asg30
S'The deer was in shocked and scared.'
p595
sg32
S'50720'
p596
ssI28
(dp597
g2
(lp598
(lp599
S'CL:3vehicle fall'
p600
aS'52660'
p601
aS'52840'
p602
aa(lp603
S'SPIN++'
p604
aS'52940'
p605
aS'53680'
p606
aa(lp607
S'CL:3vehicle'
p608
aS'53700'
p609
aS'53760'
p610
aa(lp611
S'SPIN++'
p612
aS'53800'
p613
aS'54100'
p614
aa(lp615
S'CL:3vehicle'
p616
aS'54140'
p617
aS'54240'
p618
aasg24
S'54260'
p619
sg26
S'ben_story_439_small_0.mov'
p620
sg28
(lp621
g600
ag604
ag608
ag612
ag616
asg30
S'The car was spinning.'
p622
sg32
S'52660'
p623
ssI29
(dp624
g2
(lp625
(lp626
S'CL:Sholding the wheel'
p627
aS'54320'
p628
aS'55020'
p629
aa(lp630
S'WOW'
p631
aS'55320'
p632
aS'55640'
p633
aa(lp634
S'BPCL:Feyes moving'
p635
aS'55760'
p636
aS'55940'
p637
aasg24
S'55940'
p638
sg26
S'ben_story_439_small_0.mov'
p639
sg28
(lp640
g627
ag631
ag635
asg30
S'I felt wow, and was holding the wheel.  I looked over.'
p641
sg32
S'54280'
p642
ssI30
(dp643
g2
(lp644
(lp645
S'DEER'
p646
aS'56020'
p647
aS'56140'
p648
aa(lp649
S'CL:5person looking at'
p650
aS'56260'
p651
aS'56340'
p652
aa(lp653
S'LOOK'
p654
aS'56460'
p655
aS'56820'
p656
aa(lp657
S'LOOK'
p658
aS'57020'
p659
aS'57240'
p660
aa(lp661
S'AHEAD'
p662
aS'57420'
p663
aS'57480'
p664
aa(lp665
S'CL:2four legs walking'
p666
aS'57620'
p667
aS'57720'
p668
aa(lp669
S'ACROSS'
p670
aS'57860'
p671
aS'58060'
p672
aasg24
S'58060'
p673
sg26
S'ben_story_439_small_0.mov'
p674
sg28
(lp675
g646
ag650
ag654
ag658
ag662
ag666
ag670
asg30
S'A deer looked at me and then walk across the road.'
p676
sg32
S'55960'
p677
ssI31
(dp678
g2
(lp679
(lp680
S'IX-1p'
p681
aS'58180'
p682
aS'58220'
p683
aa(lp684
S'CL:Sholding the wheel'
p685
aS'58300'
p686
aS'58780'
p687
aa(lp688
S'HEART'
p689
aS'59040'
p690
aS'59160'
p691
aa(lp692
S'CL:Sheart beating++'
p693
aS'59260'
p694
aS'59980'
p695
aasg24
S'59980'
p696
sg26
S'ben_story_439_small_0.mov'
p697
sg28
(lp698
g681
ag685
ag689
ag693
asg30
S'My heart beats fast.'
p699
sg32
S'58080'
p700
ssI32
(dp701
g2
(lp702
(lp703
S'REALLY'
p704
aS'60040'
p705
aS'60100'
p706
aa(lp707
S'FAST'
p708
aS'60220'
p709
aS'60280'
p710
aa(lp711
S'CL:Sheart beating++'
p712
aS'60340'
p713
aS'60740'
p714
aa(lp715
S'CL:Sholding the wheel'
p716
aS'60820'
p717
aS'61000'
p718
aasg24
S'61000'
p719
sg26
S'ben_story_439_small_0.mov'
p720
sg28
(lp721
g704
ag708
ag712
ag716
asg30
S'My heart was beating really fast.'
p722
sg32
S'60000'
p723
ssI33
(dp724
g2
(lp725
(lp726
S'part:indef'
p727
aS'63780'
p728
aS'63860'
p729
aa(lp730
S'CL:3vehicle'
p731
aS'64040'
p732
aS'64160'
p733
aa(lp734
g278
aS'64480'
p735
aa(lp736
S'MIDDLE'
p737
aS'64560'
p738
aS'64600'
p739
aa(lp740
S'ROAD'
p741
aS'64700'
p742
aS'64760'
p743
aa(lp744
S'CL:3vehicle'
p745
aS'64840'
p746
aS'65000'
p747
aa(lp748
g278
aS'65280'
p749
aa(lp750
S'IX-3p:i'
p751
aS'65340'
p752
aS'65700'
p753
aa(lp754
S'fs-OR'
p755
aS'65800'
p756
aS'65840'
p757
aa(lp758
S'THUMB-IX-3p:j'
p759
aS'65900'
p760
aS'66080'
p761
aa(lp762
S'WHICH'
p763
aS'66200'
p764
aS'66500'
p765
aasg24
S'66500'
p766
sg26
S'ben_story_439_small_0.mov'
p767
sg28
(lp768
g727
ag731
ag278
ag737
ag741
ag745
ag278
ag751
ag755
ag759
ag763
asg30
S'My car was in middle of the road and I am not sure which way to turn?'
p769
sg32
S'63300'
p770
ssI34
(dp771
g2
(lp772
(lp773
S'IX-1p'
p774
aS'66560'
p775
aS'66580'
p776
aa(lp777
S'CL:3vehicle'
p778
aS'66640'
p779
aS'66780'
p780
aa(lp781
g278
aS'67820'
p782
aa(lp783
S'part:indef'
p784
aS'67920'
p785
aS'67980'
p786
aa(lp787
g278
aS'68440'
p788
aasg24
S'68440'
p789
sg26
S'ben_story_439_small_0.mov'
p790
sg28
(lp791
g774
ag778
ag278
ag784
ag278
asg30
S'I am not sure which way.'
p792
sg32
S'66520'
p793
ssI35
(dp794
g2
(lp795
(lp796
S'IX-1p'
p797
aS'68540'
p798
aS'68600'
p799
aa(lp800
S'AHEAD'
p801
aS'68660'
p802
aS'69160'
p803
aa(lp804
S'THUMB-IX-3p:j'
p805
aS'69260'
p806
aS'69480'
p807
aa(lp808
S'CL:3vehicle moving'
p809
aS'69580'
p810
aS'69900'
p811
aasg24
S'69900'
p812
sg26
S'ben_story_439_small_0.mov'
p813
sg28
(lp814
g797
ag801
ag805
ag809
asg30
S'I went ahead to turn this way.'
p815
sg32
S'68460'
p816
ssI36
(dp817
g2
(lp818
(lp819
S'DRIVE'
p820
aS'70060'
p821
aS'70480'
p822
aa(lp823
S'IX-1p'
p824
aS'70560'
p825
aS'70620'
p826
aa(lp827
S'SLOW'
p828
aS'70740'
p829
aS'71000'
p830
aa(lp831
S'DRIVE'
p832
aS'71100'
p833
aS'71140'
p834
aa(lp835
g278
aS'71840'
p836
aasg24
S'71840'
p837
sg26
S'ben_story_439_small_0.mov'
p838
sg28
(lp839
g820
ag824
ag828
ag832
ag278
asg30
S'I was driving slow.'
p840
sg32
S'69920'
p841
ssI37
(dp842
g2
(lp843
(lp844
S'SEE'
p845
aS'72100'
p846
aS'72120'
p847
aa(lp848
S'SIGN'
p849
aS'72220'
p850
aS'72500'
p851
aa(lp852
S'IX-loc:i'
p853
aS'72540'
p854
aS'72640'
p855
aasg24
S'72640'
p856
sg26
S'ben_story_439_small_0.mov'
p857
sg28
(lp858
g845
ag849
ag853
asg30
S'I saw the sign over there.'
p859
sg32
S'71860'
p860
ssI38
(dp861
g2
(lp862
(lp863
S'EIGHTY'
p864
aS'72700'
p865
aS'73080'
p866
aa(lp867
S'HIGHWAY'
p868
aS'73200'
p869
aS'73300'
p870
aa(lp871
S'AGAIN'
p872
aS'73380'
p873
aS'73540'
p874
aa(lp875
S'IX-1p'
p876
aS'73580'
p877
aS'73600'
p878
aa(lp879
S'LOOK'
p880
aS'73680'
p881
aS'73780'
p882
aasg24
S'73780'
p883
sg26
S'ben_story_439_small_0.mov'
p884
sg28
(lp885
g864
ag868
ag872
ag876
ag880
asg30
S'Route 80 on the highway again.'
p886
sg32
S'72660'
p887
ssI39
(dp888
g2
(lp889
(lp890
S'IX-1p'
p891
aS'73840'
p892
aS'73900'
p893
aa(lp894
S'AHEAD'
p895
aS'73980'
p896
aS'74140'
p897
aa(lp898
S'CL:3vehicle turning'
p899
aS'74220'
p900
aS'74400'
p901
aasg24
S'74400'
p902
sg26
S'ben_story_439_small_0.mov'
p903
sg28
(lp904
g891
ag895
ag899
asg30
S'I went ahead to turn.'
p905
sg32
S'73800'
p906
ssI40
(dp907
g2
(lp908
(lp909
S'CL:3vehicle'
p910
aS'74500'
p911
aS'74620'
p912
aa(lp913
S'ON'
p914
aS'74680'
p915
aS'74740'
p916
aa(lp917
S'EIGHTY'
p918
aS'74820'
p919
aS'75140'
p920
aasg24
S'75140'
p921
sg26
S'ben_story_439_small_0.mov'
p922
sg28
(lp923
g910
ag914
ag918
asg30
S'I got on route 80.'
p924
sg32
S'74440'
p925
ssI41
(dp926
g2
(lp927
(lp928
S'BORE'
p929
aS'75220'
p930
aS'75460'
p931
aa(lp932
S'CL:5plain'
p933
aS'75540'
p934
aS'75880'
p935
aa(lp936
S'BUT'
p937
aS'75960'
p938
aS'76060'
p939
aa(lp940
S'SAFE'
p941
aS'76160'
p942
aS'76780'
p943
aasg24
S'77340'
p944
sg26
S'ben_story_439_small_0.mov'
p945
sg28
(lp946
g929
ag933
ag937
ag941
asg30
S'Plain road might be boring but more safe.'
p947
sg32
S'75160'
p948
ss.