(dp0
I0
(dp1
S'Annotated'
p2
(lp3
(lp4
S'OLD'
p5
aS'800'
p6
aS'940'
p7
aa(lp8
S'STORY'
p9
aS'1020'
p10
aS'1220'
p11
aa(lp12
S'DEAF'
p13
aS'1340'
p14
aS'1420'
p15
aa(lp16
S'GENERATION++'
p17
aS'1560'
p18
aS'2080'
p19
aasS'EndFrame'
p20
S'2605'
p21
sS'Video'
p22
S'ben_story_441_small_0.mov'
p23
sS'Words'
p24
(lp25
g5
ag9
ag13
ag17
asS'English'
p26
S'There is an old story from Deaf generation...'
p27
sS'StartFrame'
p28
S'300'
p29
ssI1
(dp30
g2
(lp31
(lp32
S'DEAF'
p33
aS'2900'
p34
aS'2980'
p35
aa(lp36
S'MAN'
p37
aS'3080'
p38
aS'3140'
p39
aa(lp40
S'ONE'
p41
aS'3200'
p42
aS'3320'
p43
aa(lp44
S'DRIVE+'
p45
aS'3460'
p46
aS'3880'
p47
aasg20
S'3880'
p48
sg22
S'ben_story_441_small_0.mov'
p49
sg24
(lp50
g33
ag37
ag41
ag45
asg26
S'There is a Deaf man who is driving.'
p51
sg28
S'2620'
p52
ssI2
(dp53
g2
(lp54
(lp55
S'OVER'
p56
aS'4040'
p57
aS'4120'
p58
aa(lp59
S'COUNTRY'
p60
aS'4260'
p61
aS'4400'
p62
aa(lp63
S'DRIVE++'
p64
aS'4500'
p65
aS'5140'
p66
aa(lp67
S'part:indef'
p68
aS'5180'
p69
aS'5300'
p70
aa(lp71
S'BORE'
p72
aS'5440'
p73
aS'5620'
p74
aa(lp75
S'part:indef'
p76
aS'5700'
p77
aS'5760'
p78
aa(lp79
S'DRIVE+'
p80
aS'5820'
p81
aS'5960'
p82
aasg20
S'5960'
p83
sg22
S'ben_story_441_small_0.mov'
p84
sg24
(lp85
g56
ag60
ag64
ag68
ag72
ag76
ag80
asg26
S'I drove across the country.  I started to feel bored while driving.'
p86
sg28
S'3900'
p87
ssI3
(dp88
g2
(lp89
(lp90
S'SEE'
p91
aS'6180'
p92
aS'6260'
p93
aa(lp94
S'IX-3p:i'
p95
aS'6340'
p96
aS'6640'
p97
aa(lp98
S'PERSON'
p99
aS'6740'
p100
aS'6900'
p101
aa(lp102
S'HITCH-HIKE'
p103
aS'7000'
p104
aS'7460'
p105
aasg20
S'7460'
p106
sg22
S'ben_story_441_small_0.mov'
p107
sg24
(lp108
g91
ag95
ag99
ag103
asg26
S'I saw a person hitchhiking while I was driving.'
p109
sg28
S'5980'
p110
ssI4
(dp111
g2
(lp112
(lp113
S'GO-AHEAD'
p114
aS'9180'
p115
aS'9400'
p116
aa(lp117
S'WHY'
p118
aS'9480'
p119
aS'9500'
p120
aa(lp121
S'NOT'
p122
aS'9540'
p123
aS'9580'
p124
aa(lp125
S'(2h)CL:3sitting next to each other'
p126
aS'9720'
p127
aS'10040'
p128
aa(lp129
S'CHAT'
p130
aS'10260'
p131
aS'10500'
p132
aa(lp133
S'CHAT'
p134
aS'10680'
p135
aS'10860'
p136
aa(lp137
S'SOMETHING'
p138
aS'10940'
p139
aS'11100'
p140
aasg20
S'11100'
p141
sg22
S'ben_story_441_small_0.mov'
p142
sg24
(lp143
g114
ag118
ag122
ag126
ag130
ag134
ag138
asg26
S'I thought why not to have him join so he can keep me a company.'
p144
sg28
S'9160'
p145
ssI5
(dp146
g2
(lp147
(lp148
S'DRIVE'
p149
aS'11200'
p150
aS'11340'
p151
aasg20
S'11780'
p152
sg22
S'ben_story_441_small_0.mov'
p153
sg24
(lp154
g149
asg26
S'I pulled over.'
p155
sg28
S'11120'
p156
ssI6
(dp157
g2
(lp158
(lp159
S'IX-3p:i'
p160
aS'11940'
p161
aS'11980'
p162
aa(lp163
S'HEARING'
p164
aS'12040'
p165
aS'12060'
p166
aa(lp167
S'part:indef'
p168
aS'12100'
p169
aS'12200'
p170
aa(lp171
S'EXCITE'
p172
aS'12260'
p173
aS'12440'
p174
aa(lp175
S'BCL:Sperson running'
p176
aS'12480'
p177
aS'12560'
p178
aa(lp179
S'TALK'
p180
aS'12720'
p181
aS'12980'
p182
aasg20
S'12980'
p183
sg22
S'ben_story_441_small_0.mov'
p184
sg24
(lp185
g160
ag164
ag168
ag172
ag176
ag180
asg26
S'Hearing person got excited, ran to the car and started talking.'
p186
sg28
S'11800'
p187
ssI7
(dp188
g2
(lp189
(lp190
S'DEAF'
p191
aS'13100'
p192
aS'13160'
p193
aa(lp194
S'HEAR'
p195
aS'13320'
p196
aS'13480'
p197
aa(lp198
S'part:indef'
p199
aS'13500'
p200
aS'13520'
p201
aasg20
S'13520'
p202
sg22
S'ben_story_441_small_0.mov'
p203
sg24
(lp204
g191
ag195
ag199
asg26
S'Deaf person said, "I can\'t hear"'
p205
sg28
S'13000'
p206
ssI8
(dp207
g2
(lp208
(lp209
S'part:indef'
p210
aS'13620'
p211
aS'13680'
p212
aa(lp213
S'LOOK'
p214
aS'13740'
p215
aS'13980'
p216
aa(lp217
S'WONDER'
p218
aS'14080'
p219
aS'14340'
p220
aa(lp221
S'DEAF'
p222
aS'14380'
p223
aS'14480'
p224
aa(lp225
S'DRIVE'
p226
aS'14540'
p227
aS'14740'
p228
aa(lp229
S'CAN'
p230
aS'14800'
p231
aS'14840'
p232
aa(lp233
S'part:indef'
p234
aS'14920'
p235
aS'15000'
p236
aasg20
S'15000'
p237
sg22
S'ben_story_441_small_0.mov'
p238
sg24
(lp239
g210
ag214
ag218
ag222
ag226
ag230
ag234
asg26
S'"Im wondering if Deaf people can drive?" hearing person thought.'
p240
sg28
S'13540'
p241
ssI9
(dp242
g2
(lp243
(lp244
S'ANYWAY'
p245
aS'15160'
p246
aS'15300'
p247
aa(lp248
S'NOT-CARE'
p249
aS'15380'
p250
aS'15620'
p251
aa(lp252
S'part:indef'
p253
aS'15660'
p254
aS'15720'
p255
aa(lp256
S'CL:2person sitting'
p257
aS'15840'
p258
aS'16120'
p259
aasg20
S'16120'
p260
sg22
S'ben_story_441_small_0.mov'
p261
sg24
(lp262
g245
ag249
ag253
ag257
asg26
S'Hearing person thought, "I don\'t care" and decided to join with Deaf.'
p263
sg28
S'15020'
p264
ssI10
(dp265
g2
(lp266
(lp267
S'(2h)CL:2person sitting next to each other'
p268
aS'16300'
p269
aS'16640'
p270
aa(lp271
S'part:indef'
p272
aS'16660'
p273
aS'16700'
p274
aa(lp275
S'DEAF'
p276
aS'16880'
p277
aS'17060'
p278
aa(lp279
S'DRIVE++'
p280
aS'17120'
p281
aS'17380'
p282
aasg20
S'17380'
p283
sg22
S'ben_story_441_small_0.mov'
p284
sg24
(lp285
g268
ag272
ag276
ag280
asg26
S'He sat down next to each other and then Deaf person started driving.'
p286
sg28
S'16140'
p287
ssI11
(dp288
g2
(lp289
(lp290
S'IX-3p:i'
p291
aS'17520'
p292
aS'17600'
p293
aa(lp294
S'WHERE'
p295
aS'17720'
p296
aS'17920'
p297
aa(lp298
S'UNKNOWN'
p299
aS'17960'
p300
aS'18540'
p301
aa(lp302
S'UNKNOWN'
p303
aS'18700'
p304
aS'19160'
p305
aasg20
S'19160'
p306
sg22
S'ben_story_441_small_0.mov'
p307
sg24
(lp308
g291
ag295
ag299
ag303
asg26
S'While Deaf person is driving, they both were gesturing to each other.'
p309
sg28
S'17400'
p310
ssI12
(dp311
g2
(lp312
(lp313
S'UNKNOWN'
p314
aS'19200'
p315
aS'19360'
p316
aa(lp317
S'COMMUNICATE'
p318
aS'19500'
p319
aS'19640'
p320
aa(lp321
S'GESTURE'
p322
aS'19740'
p323
aS'19980'
p324
aa(lp325
S'UNKNOWN'
p326
aS'20240'
p327
aS'20440'
p328
aa(lp329
S'FINE'
p330
aS'20540'
p331
aS'20680'
p332
aa(lp333
S'UNKNOWN'
p334
aS'20740'
p335
aS'20940'
p336
aa(lp337
S'DRIVE++'
p338
aS'21000'
p339
aS'21600'
p340
aasg20
S'21600'
p341
sg22
S'ben_story_441_small_0.mov'
p342
sg24
(lp343
g314
ag318
ag322
ag326
ag330
ag334
ag338
asg26
S'We communicated each other through gesture while driving.'
p344
sg28
S'19200'
p345
ssI13
(dp346
g2
(lp347
(lp348
S'DEAF'
p349
aS'21700'
p350
aS'21740'
p351
aa(lp352
S'DRIVE'
p353
aS'21800'
p354
aS'22000'
p355
aa(lp356
S'SPEED'
p357
aS'22060'
p358
aS'22380'
p359
aa(lp360
S'CL:1meter speeding up'
p361
aS'22440'
p362
aS'22860'
p363
aasg20
S'22860'
p364
sg22
S'ben_story_441_small_0.mov'
p365
sg24
(lp366
g349
ag353
ag357
ag361
asg26
S'Deaf is driving and start to speed up.'
p367
sg28
S'21620'
p368
ssI14
(dp369
g2
(lp370
(lp371
S'HEARING'
p372
aS'22960'
p373
aS'23000'
p374
aa(lp375
S'BCL:Feyes moving'
p376
aS'23120'
p377
aS'23380'
p378
aa(lp379
S'NERVOUS'
p380
aS'23440'
p381
aS'23660'
p382
aa(lp383
S'BCL:Feyes moving'
p384
aS'23700'
p385
aS'24120'
p386
aasg20
S'24120'
p387
sg22
S'ben_story_441_small_0.mov'
p388
sg24
(lp389
g372
ag376
ag380
ag384
asg26
S'Hearing person start to feel nervous and keep looking at the meter.'
p390
sg28
S'22880'
p391
ssI15
(dp392
g2
(lp393
(lp394
S'CL:1meter speeding up'
p395
aS'24320'
p396
aS'24520'
p397
aa(lp398
S'NINETY'
p399
aS'24640'
p400
aS'25260'
p401
aa(lp402
S'CL:Feyes moving'
p403
aS'25400'
p404
aS'25500'
p405
aa(lp406
S'WOW'
p407
aS'25640'
p408
aS'25940'
p409
aasg20
S'25940'
p410
sg22
S'ben_story_441_small_0.mov'
p411
sg24
(lp412
g395
ag399
ag403
ag407
asg26
S'The car is speeding up to 90s.  Hearing person looked at the meter and thought wow.'
p413
sg28
S'24140'
p414
ssI16
(dp415
g2
(lp416
(lp417
S'MISTAKE'
p418
aS'26360'
p419
aS'26440'
p420
aa(lp421
S'TRUE-BUSINESS'
p422
aS'26480'
p423
aS'26560'
p424
aa(lp425
S'ENOUGH'
p426
aS'26620'
p427
aS'27140'
p428
aa(lp429
S'COP'
p430
aS'27440'
p431
aS'27640'
p432
aa(lp433
S'(2h)CL:3two vehicle'
p434
aS'27740'
p435
aS'27900'
p436
aasg20
S'27900'
p437
sg22
S'ben_story_441_small_0.mov'
p438
sg24
(lp439
g418
ag422
ag426
ag430
ag434
asg26
S"A cop's car is behind our car."
p440
sg28
S'25960'
p441
ssI17
(dp442
g2
(lp443
(lp444
S'SIREN'
p445
aS'27980'
p446
aS'28320'
p447
aa(lp448
S'(2h)CL:3two vehicle'
p449
aS'28460'
p450
aS'28520'
p451
aa(lp452
S'punct'
p453
aS'28640'
p454
aa(lp455
S'HEARING'
p456
aS'28740'
p457
aS'28780'
p458
aa(lp459
S'CL:Feyes moving'
p460
aS'28840'
p461
aS'29000'
p462
aa(lp463
S'IX-3p:i'
p464
aS'29080'
p465
aS'29360'
p466
aasg20
S'29360'
p467
sg22
S'ben_story_441_small_0.mov'
p468
sg24
(lp469
g445
ag449
ag453
ag456
ag460
ag464
asg26
S'The siren came up.  Hearing person looked back and pointing to inform Deaf person that cop is behind.'
p470
sg28
S'27920'
p471
ssI18
(dp472
g2
(lp473
(lp474
S'DEAF'
p475
aS'29460'
p476
aS'29480'
p477
aa(lp478
S'part:indef'
p479
aS'29520'
p480
aS'29860'
p481
aa(lp482
S'(2h)CL:3two vehicles pulling over'
p483
aS'30020'
p484
aS'30480'
p485
aasg20
S'30480'
p486
sg22
S'ben_story_441_small_0.mov'
p487
sg24
(lp488
g475
ag479
ag483
asg26
S'Deaf person said its not a problem, and they pulled over.'
p489
sg28
S'29380'
p490
ssI19
(dp491
g2
(lp492
(lp493
S'COP'
p494
aS'30680'
p495
aS'30800'
p496
aa(lp497
S'BCL:3person walking over'
p498
aS'30880'
p499
aS'31460'
p500
aa(lp501
S'CL:5person talking'
p502
aS'32280'
p503
aS'32460'
p504
aasg20
S'32460'
p505
sg22
S'ben_story_441_small_0.mov'
p506
sg24
(lp507
g494
ag498
ag502
asg26
S'A cop walked to the car and start talking.'
p508
sg28
S'30500'
p509
ssI20
(dp510
g2
(lp511
(lp512
S'IX-3p:i'
p513
aS'32520'
p514
aS'32560'
p515
aa(lp516
S'DEAF'
p517
aS'32620'
p518
aS'32820'
p519
aa(lp520
S'IX-loc:i'
p521
aS'32880'
p522
aS'32920'
p523
aa(lp524
S'DRIVE'
p525
aS'32960'
p526
aS'33000'
p527
aa(lp528
S'part:indef'
p529
aS'33060'
p530
aS'33120'
p531
aa(lp532
S'IX-1p'
p533
aS'33200'
p534
aS'33300'
p535
aa(lp536
S'HEAR'
p537
aS'33360'
p538
aS'33520'
p539
aa(lp540
S'part:indef'
p541
aS'33560'
p542
aS'33700'
p543
aasg20
S'33700'
p544
sg22
S'ben_story_441_small_0.mov'
p545
sg24
(lp546
g513
ag517
ag521
ag525
ag529
ag533
ag537
ag541
asg26
S'Deaf person in the car said, "I can\'t hear."'
p547
sg28
S'32480'
p548
ssI21
(dp549
g2
(lp550
(lp551
S'COP'
p552
aS'33920'
p553
aS'33960'
p554
aa(lp555
S'part:indef'
p556
aS'34120'
p557
aS'34280'
p558
aa(lp559
S'HEAR'
p560
aS'34440'
p561
aS'34660'
p562
aa(lp563
S'thinking'
p564
aS'34880'
p565
aS'35180'
p566
aa(lp567
S'COMMUNICATE'
p568
aS'35400'
p569
aS'35480'
p570
aa(lp571
S'thinking'
p572
aS'35560'
p573
aS'35800'
p574
aa(lp575
g453
aS'36140'
p576
aasg20
S'36140'
p577
sg22
S'ben_story_441_small_0.mov'
p578
sg24
(lp579
g552
ag556
ag560
ag564
ag568
ag572
ag453
asg26
S'Cop said, "Oh you cant hear?"  Cop was thinking, how can I communicate him?"'
p580
sg28
S'33720'
p581
ssI22
(dp582
g2
(lp583
(lp584
S'part:indef'
p585
aS'36240'
p586
aS'36420'
p587
aa(lp588
S'NOT-CARE'
p589
aS'36520'
p590
aS'36680'
p591
aa(lp592
S'UNKNOWN'
p593
aS'36840'
p594
aS'37020'
p595
aa(lp596
S'GO-AHEAD'
p597
aS'37240'
p598
aS'37740'
p599
aasg20
S'37740'
p600
sg22
S'ben_story_441_small_0.mov'
p601
sg24
(lp602
g585
ag589
ag593
ag597
asg26
S'Cop thought, who cares and said," you can go."'
p603
sg28
S'36160'
p604
ssI23
(dp605
g2
(lp606
(lp607
S'DEAF'
p608
aS'37920'
p609
aS'38100'
p610
aa(lp611
S'sure'
p612
aS'38240'
p613
aS'38380'
p614
aa(lp615
S'DRIVE'
p616
aS'38580'
p617
aS'38920'
p618
aasg20
S'38920'
p619
sg22
S'ben_story_441_small_0.mov'
p620
sg24
(lp621
g608
ag612
ag616
asg26
S'Deaf person said,"sure thing" then drove away.'
p622
sg28
S'37760'
p623
ssI24
(dp624
g2
(lp625
(lp626
S'HEARING'
p627
aS'39020'
p628
aS'39080'
p629
aa(lp630
S'IX-loc:i'
p631
aS'39160'
p632
aS'39300'
p633
aa(lp634
S'LOOK'
p635
aS'39420'
p636
aS'39520'
p637
aa(lp638
g453
aS'40060'
p639
aasg20
S'40060'
p640
sg22
S'ben_story_441_small_0.mov'
p641
sg24
(lp642
g627
ag631
ag635
ag453
asg26
S'Hearing person was looking at him and shocked.'
p643
sg28
S'38940'
p644
ssI25
(dp645
g2
(lp646
(lp647
S'WAIVE'
p648
aS'40280'
p649
aS'40440'
p650
aa(lp651
S'THUMB-IX-3p:i'
p652
aS'40540'
p653
aS'40660'
p654
aa(lp655
S'WOW'
p656
aS'40740'
p657
aS'41340'
p658
aa(lp659
g453
aS'41400'
p660
aa(lp661
S'part:indef'
p662
aS'41420'
p663
aS'41600'
p664
aasg20
S'41600'
p665
sg22
S'ben_story_441_small_0.mov'
p666
sg24
(lp667
g648
ag652
ag656
ag453
ag662
asg26
S'Hearing person thought," wow, he is waived."'
p668
sg28
S'40080'
p669
ssI26
(dp670
g2
(lp671
(lp672
S'DEAF'
p673
aS'41700'
p674
aS'41760'
p675
aa(lp676
S'DRIVE++'
p677
aS'41840'
p678
aS'42340'
p679
aa(lp680
S'AGAIN'
p681
aS'42420'
p682
aS'42700'
p683
aa(lp684
S'SPEED'
p685
aS'42800'
p686
aS'43200'
p687
aasg20
S'43200'
p688
sg22
S'ben_story_441_small_0.mov'
p689
sg24
(lp690
g673
ag677
ag681
ag685
asg26
S'Deaf person continued driving and started to speed up again.'
p691
sg28
S'41620'
p692
ssI27
(dp693
g2
(lp694
(lp695
S'ANOTHER'
p696
aS'43300'
p697
aS'43580'
p698
aa(lp699
S'COP'
p700
aS'43680'
p701
aS'43700'
p702
aa(lp703
S'(2)CL:3two vehicles pulling over'
p704
aS'43800'
p705
aS'44300'
p706
aasg20
S'44300'
p707
sg22
S'ben_story_441_small_0.mov'
p708
sg24
(lp709
g696
ag700
ag704
asg26
S'There is another cop pull us over.'
p710
sg28
S'43220'
p711
ssI28
(dp712
g2
(lp713
(lp714
S'CL:3person walking over'
p715
aS'44380'
p716
aS'44840'
p717
aa(lp718
g453
aS'45120'
p719
aa(lp720
S'TALK'
p721
aS'45200'
p722
aS'45380'
p723
aasg20
S'45380'
p724
sg22
S'ben_story_441_small_0.mov'
p725
sg24
(lp726
g715
ag453
ag721
asg26
S'A cop walked over and start talking.'
p727
sg28
S'44320'
p728
ssI29
(dp729
g2
(lp730
(lp731
S'DEAF'
p732
aS'45480'
p733
aS'45580'
p734
aa(lp735
S'HEAR'
p736
aS'45640'
p737
aS'45780'
p738
aa(lp739
S'part:indef'
p740
aS'45820'
p741
aS'45940'
p742
aasg20
S'45960'
p743
sg22
S'ben_story_441_small_0.mov'
p744
sg24
(lp745
g732
ag736
ag740
asg26
S'Deaf person said," I can\'t hear."'
p746
sg28
S'45400'
p747
ssI30
(dp748
g2
(lp749
(lp750
S'part:indef'
p751
aS'46080'
p752
aS'46620'
p753
aa(lp754
S'NAH'
p755
aS'46700'
p756
aS'46860'
p757
aa(lp758
S'GO-AHEAD'
p759
aS'47040'
p760
aS'47260'
p761
aasg20
S'47260'
p762
sg22
S'ben_story_441_small_0.mov'
p763
sg24
(lp764
g751
ag755
ag759
asg26
S'A cop thought, nah and said, "You can go ahead."'
p765
sg28
S'45980'
p766
ssI31
(dp767
g2
(lp768
(lp769
S'IX-3p:i'
p770
aS'47340'
p771
aS'47360'
p772
aa(lp773
S'HEARING'
p774
aS'47420'
p775
aS'47440'
p776
aa(lp777
S'LOOK'
p778
aS'47480'
p779
aS'47880'
p780
aa(lp781
S'WOW'
p782
aS'48020'
p783
aS'48380'
p784
aa(lp785
S'LUCKY'
p786
aS'48440'
p787
aS'48540'
p788
aa(lp789
S'IX-3p:i'
p790
aS'48620'
p791
aS'48640'
p792
aasg20
S'48640'
p793
sg22
S'ben_story_441_small_0.mov'
p794
sg24
(lp795
g770
ag774
ag778
ag782
ag786
ag790
asg26
S'Hearing person looked and thought, "wow, he is lucky!"'
p796
sg28
S'47280'
p797
ssI32
(dp798
g2
(lp799
(lp800
S'DRIVE+'
p801
aS'48740'
p802
aS'48920'
p803
aa(lp804
S'CL:1long distance'
p805
aS'49020'
p806
aS'49760'
p807
aasg20
S'49760'
p808
sg22
S'ben_story_441_small_0.mov'
p809
sg24
(lp810
g801
ag805
asg26
S'He drove for a long time.'
p811
sg28
S'48660'
p812
ssI33
(dp813
g2
(lp814
(lp815
S'WAIVE+'
p816
aS'49880'
p817
aS'50140'
p818
aa(lp819
S'TWO'
p820
aS'50180'
p821
aS'50220'
p822
aa(lp823
S'TIME'
p824
aS'50260'
p825
aS'50360'
p826
aa(lp827
S'IX-3p:i'
p828
aS'50420'
p829
aS'50440'
p830
aa(lp831
S'HEARING'
p832
aS'50500'
p833
aS'50540'
p834
aa(lp835
S'WONDER'
p836
aS'50640'
p837
aS'50900'
p838
aasg20
S'50940'
p839
sg22
S'ben_story_441_small_0.mov'
p840
sg24
(lp841
g816
ag820
ag824
ag828
ag832
ag836
asg26
S'"He got waive two times," hearing person thought.'
p842
sg28
S'49780'
p843
ssI34
(dp844
g2
(lp845
(lp846
S'CL:1long distance'
p847
aS'51120'
p848
aS'51760'
p849
aa(lp850
g453
aS'52000'
p851
aa(lp852
S'DEAF'
p853
aS'52080'
p854
aS'52140'
p855
aa(lp856
S'TIRED'
p857
aS'52240'
p858
aS'52740'
p859
aasg20
S'52740'
p860
sg22
S'ben_story_441_small_0.mov'
p861
sg24
(lp862
g847
ag453
ag853
ag857
asg26
S'It was long drive and Deaf person got tired.'
p863
sg28
S'50960'
p864
ssI35
(dp865
g2
(lp866
(lp867
S'BCL:5tapping'
p868
aS'52820'
p869
aS'52920'
p870
aa(lp871
S'MIND'
p872
aS'53060'
p873
aS'53160'
p874
aa(lp875
S'(2h)CL:3sitting switch'
p876
aS'53280'
p877
aS'54040'
p878
aa(lp879
S'MIND'
p880
aS'54120'
p881
aS'54200'
p882
aasg20
S'54200'
p883
sg22
S'ben_story_441_small_0.mov'
p884
sg24
(lp885
g868
ag872
ag876
ag880
asg26
S"Deaf person tapped Hearing's shoulder and asked if he didn't mind to switch the seat."
p886
sg28
S'52760'
p887
ssI36
(dp888
g2
(lp889
(lp890
S'IX-3p:i'
p891
aS'54260'
p892
aS'54360'
p893
aa(lp894
S'HEARING'
p895
aS'54520'
p896
aS'54580'
p897
aa(lp898
S'#OK'
p899
aS'54660'
p900
aS'55000'
p901
aa(lp902
S'FINE'
p903
aS'55040'
p904
aS'55360'
p905
aa(lp906
S'(2h)CL:3seat switch'
p907
aS'55500'
p908
aS'56000'
p909
aasg20
S'56000'
p910
sg22
S'ben_story_441_small_0.mov'
p911
sg24
(lp912
g891
ag895
ag899
ag903
ag907
asg26
S'Hearing person said, "Ok, thats fine." They switched the seats.'
p913
sg28
S'54220'
p914
ssI37
(dp915
g2
(lp916
(lp917
S'DRIVE++'
p918
aS'56160'
p919
aS'57280'
p920
aa(lp921
S'DEAF'
p922
aS'57420'
p923
aS'58340'
p924
aa(lp925
S'PERSON'
p926
aS'58400'
p927
aS'58480'
p928
aa(lp929
S'part:indef'
p930
aS'58600'
p931
aS'58780'
p932
aa(lp933
S'FINE'
p934
aS'58920'
p935
aS'59040'
p936
aa(lp937
S'IX-1p'
p938
aS'59160'
p939
aS'59200'
p940
aa(lp941
S'SLEEP'
p942
aS'59360'
p943
aS'59660'
p944
aasg20
S'59660'
p945
sg22
S'ben_story_441_small_0.mov'
p946
sg24
(lp947
g918
ag922
ag926
ag930
ag934
ag938
ag942
asg26
S'Deaf person said,"Ok I am going to sleep."'
p948
sg28
S'56020'
p949
ssI38
(dp950
g2
(lp951
(lp952
S'HEARING'
p953
aS'59760'
p954
aS'59800'
p955
aa(lp956
S'part:indef'
p957
aS'59880'
p958
aS'60000'
p959
aa(lp960
S'SLEEP'
p961
aS'60100'
p962
aS'60420'
p963
aa(lp964
S'DRIVE++'
p965
aS'60520'
p966
aS'61340'
p967
aasg20
S'61340'
p968
sg22
S'ben_story_441_small_0.mov'
p969
sg24
(lp970
g953
ag957
ag961
ag965
asg26
S'Hearing person is driving and said, "go ahead sleep."'
p971
sg28
S'59680'
p972
ssI39
(dp973
g2
(lp974
(lp975
S'GO-AHEAD'
p976
aS'61420'
p977
aS'61580'
p978
aa(lp979
S'CL:1meter speeding up'
p980
aS'61660'
p981
aS'61980'
p982
aa(lp983
S'SPEED++'
p984
aS'62080'
p985
aS'62600'
p986
aasg20
S'62600'
p987
sg22
S'ben_story_441_small_0.mov'
p988
sg24
(lp989
g976
ag980
ag984
asg26
S'Decided to go ahead speeding up.'
p990
sg28
S'61360'
p991
ssI40
(dp992
g2
(lp993
(lp994
S'TRUE-ENOUGH'
p995
aS'62800'
p996
aS'63200'
p997
aa(lp998
S'IX-3p:i'
p999
aS'63240'
p1000
aS'63300'
p1001
aa(lp1002
S'COP'
p1003
aS'63380'
p1004
aS'63540'
p1005
aa(lp1006
S'(2h)CL:3two vehicles'
p1007
aS'63760'
p1008
aS'64000'
p1009
aasg20
S'64000'
p1010
sg22
S'ben_story_441_small_0.mov'
p1011
sg24
(lp1012
g995
ag999
ag1003
ag1007
asg26
S'A cop followed the car.'
p1013
sg28
S'62640'
p1014
ssI41
(dp1015
g2
(lp1016
(lp1017
S'SIREN'
p1018
aS'64080'
p1019
aS'64260'
p1020
aa(lp1021
S'(2h)CL:3two vehicles pulling over'
p1022
aS'64340'
p1023
aS'64780'
p1024
aasg20
S'64780'
p1025
sg22
S'ben_story_441_small_0.mov'
p1026
sg24
(lp1027
g1018
ag1022
asg26
S'Siren came up and a cop pulled the car over.'
p1028
sg28
S'64020'
p1029
ssI42
(dp1030
g2
(lp1031
(lp1032
S'HEARING'
p1033
aS'64860'
p1034
aS'64900'
p1035
aa(lp1036
S'part:indef'
p1037
aS'64960'
p1038
aS'65060'
p1039
aa(lp1040
S'DRIVE'
p1041
aS'65140'
p1042
aS'65320'
p1043
aa(lp1044
S'THINK'
p1045
aS'65420'
p1046
aS'65540'
p1047
aa(lp1048
S'COPY'
p1049
aS'65640'
p1050
aS'65860'
p1051
aa(lp1052
S'ACTION'
p1053
aS'65960'
p1054
aS'66100'
p1055
aa(lp1056
S'DEAF'
p1057
aS'66180'
p1058
aS'66260'
p1059
aa(lp1060
S'part:indef'
p1061
aS'66320'
p1062
aS'66380'
p1063
aa(lp1064
S'READY'
p1065
aS'66420'
p1066
aS'66480'
p1067
aasg20
S'66480'
p1068
sg22
S'ben_story_441_small_0.mov'
p1069
sg24
(lp1070
g1033
ag1037
ag1041
ag1045
ag1049
ag1053
ag1057
ag1061
ag1065
asg26
S'Hearing person thought, "thats okay, I can act like Deaf person."'
p1071
sg28
S'64800'
p1072
ssI43
(dp1073
g2
(lp1074
(lp1075
S'COP'
p1076
aS'66660'
p1077
aS'66800'
p1078
aa(lp1079
S'CL:1person walking over'
p1080
aS'66880'
p1081
aS'67080'
p1082
aa(lp1083
S'TALK'
p1084
aS'67180'
p1085
aS'67440'
p1086
aasg20
S'67440'
p1087
sg22
S'ben_story_441_small_0.mov'
p1088
sg24
(lp1089
g1076
ag1080
ag1084
asg26
S'A cop walked to the car and start talking.'
p1090
sg28
S'66500'
p1091
ssI44
(dp1092
g2
(lp1093
(lp1094
S'HEARING'
p1095
aS'67560'
p1096
aS'67600'
p1097
aa(lp1098
S'part:indef'
p1099
aS'67640'
p1100
aS'67720'
p1101
aa(lp1102
S'HEAR'
p1103
aS'67780'
p1104
aS'67960'
p1105
aa(lp1106
S'part:indef'
p1107
aS'68020'
p1108
aS'68260'
p1109
aa(lp1110
S'HEAR'
p1111
aS'68340'
p1112
aS'68480'
p1113
aa(lp1114
S'part:indef'
p1115
aS'68520'
p1116
aS'68700'
p1117
aasg20
S'68700'
p1118
sg22
S'ben_story_441_small_0.mov'
p1119
sg24
(lp1120
g1095
ag1099
ag1103
ag1107
ag1111
ag1115
asg26
S'Hearing person said, " I can\'t hear, I can\'t hear."'
p1121
sg28
S'67460'
p1122
ssI45
(dp1123
g2
(lp1124
(lp1125
S'COP'
p1126
aS'69000'
p1127
aS'69060'
p1128
aa(lp1129
S'ohhh'
p1130
aS'69240'
p1131
aS'69440'
p1132
aa(lp1133
S'POSS-1p'
p1134
aS'69540'
p1135
aS'69640'
p1136
aa(lp1137
S'MOTHER-FATHER'
p1138
aS'69720'
p1139
aS'69820'
p1140
aa(lp1141
S'DEAF'
p1142
aS'69940'
p1143
aS'70080'
p1144
aasg20
S'70080'
p1145
sg22
S'ben_story_441_small_0.mov'
p1146
sg24
(lp1147
g1126
ag1130
ag1134
ag1138
ag1142
asg26
S'Cop said, "ohh, my parents are Deaf."'
p1148
sg28
S'68720'
p1149
ssI46
(dp1150
g2
(lp1151
(lp1152
S'IX-1p'
p1153
aS'70120'
p1154
aS'70180'
p1155
aa(lp1156
S'EXPERT'
p1157
aS'70260'
p1158
aS'70320'
p1159
aa(lp1160
S'SIGN'
p1161
aS'70360'
p1162
aS'70500'
p1163
aa(lp1164
S'CL:Ssigning'
p1165
aS'70580'
p1166
aS'70820'
p1167
aasg20
S'70820'
p1168
sg22
S'ben_story_441_small_0.mov'
p1169
sg24
(lp1170
g1153
ag1157
ag1161
ag1165
asg26
S'"I am an expert in sign language." a cop signed. Then he started signing.'
p1171
sg28
S'70100'
p1172
ssI47
(dp1173
g2
(lp1174
(lp1175
S'HEARING'
p1176
aS'70900'
p1177
aS'70960'
p1178
aa(lp1179
S'shocking'
p1180
aS'71020'
p1181
aS'71480'
p1182
aa(lp1183
S'STUCK'
p1184
aS'71620'
p1185
aS'71980'
p1186
aasg20
S'72340'
p1187
sg22
S'ben_story_441_small_0.mov'
p1188
sg24
(lp1189
g1176
ag1180
ag1184
asg26
S'Hearing person was in shock and feel speechless.'
p1190
sg28
S'70840'
p1191
ss.