(dp0
I0
(dp1
S'Annotated'
p2
(lp3
(lp4
S'STORY'
p5
aS'540'
p6
aS'860'
p7
aa(lp8
S'ABOUT'
p9
aS'960'
p10
aS'1060'
p11
aa(lp12
S'THREE'
p13
aS'1120'
p14
aS'1280'
p15
aa(lp16
S'PIG'
p17
aS'1400'
p18
aS'2000'
p19
aa(lp20
S'punct'
p21
aS'2140'
p22
aasS'EndFrame'
p23
S'2415'
p24
sS'Video'
p25
S'ben_story_443_small_0.mov'
p26
sS'Words'
p27
(lp28
g5
ag9
ag13
ag17
ag21
asS'English'
p29
NsS'StartFrame'
p30
S'0'
p31
ssI1
(dp32
g2
(lp33
(lp34
S'THREE'
p35
aS'2800'
p36
aS'3000'
p37
aa(lp38
S'MOTHER'
p39
aS'3100'
p40
aS'3280'
p41
aa(lp42
S'CARE'
p43
aS'3480'
p44
aS'3660'
p45
aasg23
S'3660'
p46
sg25
S'ben_story_443_small_0.mov'
p47
sg27
(lp48
g35
ag39
ag43
asg29
S'A mother take care of three pigs.'
p49
sg30
S'2420'
p50
ssI2
(dp51
g2
(lp52
(lp53
S'THREE'
p54
aS'3720'
p55
aS'3760'
p56
aa(lp57
S'PIG'
p58
aS'3860'
p59
aS'3880'
p60
aa(lp61
S'GROW-UP'
p62
aS'4020'
p63
aS'4460'
p64
aa(lp65
S'FINISH'
p66
aS'4600'
p67
aS'4760'
p68
aasg23
S'4940'
p69
sg25
S'ben_story_443_small_0.mov'
p70
sg27
(lp71
g54
ag58
ag62
ag66
asg29
S'When three pigs grew up...'
p72
sg30
S'3680'
p73
ssI3
(dp74
g2
(lp75
(lp76
S'INFORMATION'
p77
aS'5080'
p78
aS'5180'
p79
aa(lp80
S'IX-3p:i'
p81
aS'5240'
p82
aS'5300'
p83
aa(lp84
S'TIME'
p85
aS'5440'
p86
aS'5580'
p87
aa(lp88
S'THREE'
p89
aS'5660'
p90
aS'5800'
p91
aa(lp92
S'GO-AWAY'
p93
aS'5920'
p94
aS'6060'
p95
aa(lp96
S'fs-OWN'
p97
aS'6140'
p98
aS'6560'
p99
aasg23
S'6560'
p100
sg25
S'ben_story_443_small_0.mov'
p101
sg27
(lp102
g77
ag81
ag85
ag89
ag93
ag97
asg29
S'She informed three pigs that its time for them to go away to be on their own.'
p103
sg30
S'4960'
p104
ssI4
(dp105
g2
(lp106
(lp107
S'GO-AWAY'
p108
aS'6640'
p109
aS'6880'
p110
aa(lp111
S'BUILD'
p112
aS'6940'
p113
aS'7060'
p114
aa(lp115
S'IX-2p-arc'
p116
aS'7120'
p117
aS'7300'
p118
aa(lp119
S'HOUSE'
p120
aS'7360'
p121
aS'7720'
p122
aa(lp123
S'part:indef'
p124
aS'7760'
p125
aS'7840'
p126
aasg23
S'7840'
p127
sg25
S'ben_story_443_small_0.mov'
p128
sg27
(lp129
g108
ag112
ag116
ag120
ag124
asg29
S'Go ahead, go and build your house.'
p130
sg30
S'6580'
p131
ssI5
(dp132
g2
(lp133
(lp134
S'IX-1p'
p135
aS'7920'
p136
aS'7960'
p137
aa(lp138
S'FUTURE'
p139
aS'8020'
p140
aS'8080'
p141
aa(lp142
S'VISIT+'
p143
aS'8140'
p144
aS'8700'
p145
aasg23
S'8700'
p146
sg25
S'ben_story_443_small_0.mov'
p147
sg27
(lp148
g135
ag139
ag143
asg29
S'I will visit often.'
p149
sg30
S'7880'
p150
ssI6
(dp151
g2
(lp152
(lp153
S'THREE'
p154
aS'8740'
p155
aS'8800'
p156
aa(lp157
S'PIG'
p158
aS'8880'
p159
aS'8940'
p160
aa(lp161
S'CL:5the height of person'
p162
aS'8980'
p163
aS'9160'
p164
aa(lp165
S'(2h)#OK'
p166
aS'9340'
p167
aS'9600'
p168
aa(lp169
S'LEAVE'
p170
aS'9820'
p171
aS'10020'
p172
aasg23
S'10060'
p173
sg25
S'ben_story_443_small_0.mov'
p174
sg27
(lp175
g154
ag158
ag162
ag166
ag170
asg29
S'Three pigs said ok and then left.'
p176
sg30
S'8720'
p177
ssI7
(dp178
g2
(lp179
(lp180
S'THREE'
p181
aS'10160'
p182
aS'10220'
p183
aa(lp184
S'CL:3people walking'
p185
aS'10260'
p186
aS'10940'
p187
aa(lp188
S'LOOK'
p189
aS'11060'
p190
aS'11380'
p191
aa(lp192
S'ONE'
p193
aS'11440'
p194
aS'11620'
p195
aa(lp196
S'CL:5location'
p197
aS'11740'
p198
aS'11940'
p199
aasg23
S'11940'
p200
sg25
S'ben_story_443_small_0.mov'
p201
sg27
(lp202
g181
ag185
ag189
ag193
ag197
asg29
S'Three pigs were walking and looking for a location.'
p203
sg30
S'10080'
p204
ssI8
(dp205
g2
(lp206
(lp207
S'FIND'
p208
aS'12060'
p209
aS'12200'
p210
aa(lp211
S'CL:5location'
p212
aS'12260'
p213
aS'12700'
p214
aa(lp215
S'LAND'
p216
aS'12800'
p217
aS'12860'
p218
aa(lp219
S'(2H)CL:5location'
p220
aS'12920'
p221
aS'13160'
p222
aa(lp223
S'SEEM'
p224
aS'13260'
p225
aS'13420'
p226
aa(lp227
S'AGREE'
p228
aS'13620'
p229
aS'14020'
p230
aa(lp231
S'IX-1p'
p232
aS'14080'
p233
aS'14100'
p234
aa(lp235
S'part:indef'
p236
aS'14140'
p237
aS'14160'
p238
aasg23
S'14160'
p239
sg25
S'ben_story_443_small_0.mov'
p240
sg27
(lp241
g208
ag212
ag216
ag220
ag224
ag228
ag232
ag236
asg29
S'We finally found a land that we all agreed to have that location.'
p242
sg30
S'11980'
p243
ssI9
(dp244
g2
(lp245
(lp246
S'IX-2p:i'
p247
aS'14240'
p248
aS'14380'
p249
aa(lp250
S'IX-1p'
p251
aS'14540'
p252
aS'14680'
p253
aa(lp254
g21
aS'14860'
p255
aa(lp256
S'HOUSE'
p257
aS'14960'
p258
aS'15080'
p259
aa(lp260
S'SET-UP-arc'
p261
aS'15280'
p262
aS'15680'
p263
aa(lp264
S'GO-AHEAD'
p265
aS'15800'
p266
aS'15900'
p267
aasg23
S'15900'
p268
sg25
S'ben_story_443_small_0.mov'
p269
sg27
(lp270
g247
ag251
ag21
ag257
ag261
ag265
asg29
S'Lets go set up our houses.'
p271
sg30
S'14180'
p272
ssI10
(dp273
g2
(lp274
(lp275
S'CL:1person walking'
p276
aS'17920'
p277
aS'18220'
p278
aa(lp279
S'IX-3p:i'
p280
aS'18360'
p281
aS'18620'
p282
aa(lp283
g21
aS'18800'
p284
aa(lp285
S'TEND'
p286
aS'18880'
p287
aS'19040'
p288
aa(lp289
S'IX-2p:i'
p290
aS'19160'
p291
aS'19320'
p292
aa(lp293
S'CHARACTER'
p294
aS'19480'
p295
aS'19820'
p296
aa(lp297
S'LAZY'
p298
aS'20040'
p299
aS'20300'
p300
aa(lp301
g21
aS'20760'
p302
aa(lp303
S'GOOD-ENOUGH++'
p304
aS'20920'
p305
aS'21520'
p306
aasg23
S'21520'
p307
sg25
S'ben_story_443_small_0.mov'
p308
sg27
(lp309
g276
ag280
ag21
ag286
ag290
ag294
ag298
ag21
ag304
asg29
S"That pig's character tend to be lazy."
p310
sg30
S'17780'
p311
ssI11
(dp312
g2
(lp313
(lp314
S'IX-3p:i'
p315
aS'21600'
p316
aS'21740'
p317
aa(lp318
S'NAH'
p319
aS'21920'
p320
aS'22100'
p321
aa(lp322
S'HOUSE'
p323
aS'22200'
p324
aS'22300'
p325
aa(lp326
S'(2h)FANCY++'
p327
aS'22480'
p328
aS'22700'
p329
aa(lp330
S'NAH'
p331
aS'22920'
p332
aS'23060'
p333
aasg23
S'23060'
p334
sg25
S'ben_story_443_small_0.mov'
p335
sg27
(lp336
g315
ag319
ag323
ag327
ag331
asg29
S'His house is not fancy.'
p337
sg30
S'21540'
p338
ssI12
(dp339
g2
(lp340
(lp341
S'ICL:1wrapping the object'
p342
aS'24440'
p343
aS'24820'
p344
aa(lp345
S'BUILD'
p346
aS'25000'
p347
aS'25320'
p348
aa(lp349
S'HOUSE'
p350
aS'25340'
p351
aS'25420'
p352
aa(lp353
S'BUILD'
p354
aS'25480'
p355
aS'25660'
p356
aa(lp357
S'HOUSE'
p358
aS'25700'
p359
aS'25780'
p360
aasg23
S'25780'
p361
sg25
S'ben_story_443_small_0.mov'
p362
sg27
(lp363
g342
ag346
ag350
ag354
ag358
asg29
S'Building a house.'
p364
sg30
S'24400'
p365
ssI13
(dp366
g2
(lp367
(lp368
S'GRASS'
p369
aS'25820'
p370
aS'26120'
p371
aa(lp372
S'HOUSE'
p373
aS'26180'
p374
aS'26300'
p375
aa(lp376
g21
aS'26520'
p377
aasg23
S'26520'
p378
sg25
S'ben_story_443_small_0.mov'
p379
sg27
(lp380
g369
ag373
ag21
asg29
S'It becomes  a grass house.'
p381
sg30
S'25800'
p382
ssI14
(dp383
g2
(lp384
(lp385
S'IX-3p:j'
p386
aS'26880'
p387
aS'27000'
p388
aa(lp389
S'PIG'
p390
aS'27100'
p391
aS'27160'
p392
aa(lp393
S'IX-loc:j'
p394
aS'27220'
p395
aS'27340'
p396
aa(lp397
S'part:indef'
p398
aS'27460'
p399
aS'27940'
p400
aa(lp401
S'LAZY'
p402
aS'28040'
p403
aS'28180'
p404
aa(lp405
g21
aS'28500'
p406
aasg23
S'28500'
p407
sg25
S'ben_story_443_small_0.mov'
p408
sg27
(lp409
g386
ag390
ag394
ag398
ag402
ag21
asg29
S'The next pig, he is not lazy.'
p410
sg30
S'26560'
p411
ssI15
(dp412
g2
(lp413
(lp414
S'BUT'
p415
aS'28580'
p416
aS'28820'
p417
aa(lp418
S'part:indef'
p419
aS'28920'
p420
aS'29220'
p421
aa(lp422
S'NOT'
p423
aS'29280'
p424
aS'29440'
p425
aa(lp426
S'DECORATE'
p427
aS'29500'
p428
aS'29840'
p429
aa(lp430
S'HARD'
p431
aS'29920'
p432
aS'30060'
p433
aa(lp434
S'AVERAGE'
p435
aS'30240'
p436
aS'30660'
p437
aa(lp438
S'IX-3p:j'
p439
aS'30700'
p440
aS'30860'
p441
aa(lp442
S'part:indef'
p443
aS'30900'
p444
aS'30920'
p445
aasg23
S'30920'
p446
sg25
S'ben_story_443_small_0.mov'
p447
sg27
(lp448
g415
ag419
ag423
ag427
ag431
ag435
ag439
ag443
asg29
S'He is an average, but not kind of person who would like to decorate a lot.'
p449
sg30
S'28540'
p450
ssI16
(dp451
g2
(lp452
(lp453
S'BUILD'
p454
aS'31180'
p455
aS'31360'
p456
aa(lp457
S'HOUSE'
p458
aS'31400'
p459
aS'31540'
p460
aa(lp461
S'part:indef'
p462
aS'31580'
p463
aS'31660'
p464
aa(lp465
S'TREE'
p466
aS'31760'
p467
aS'31880'
p468
aa(lp469
S'CUT++'
p470
aS'32000'
p471
aS'32260'
p472
aasg23
S'32260'
p473
sg25
S'ben_story_443_small_0.mov'
p474
sg27
(lp475
g454
ag458
ag462
ag466
ag470
asg29
S'Cut the tree to build a house.'
p476
sg30
S'30940'
p477
ssI17
(dp478
g2
(lp479
(lp480
S'CUT++'
p481
aS'32340'
p482
aS'32740'
p483
aa(lp484
S'BUILD'
p485
aS'32820'
p486
aS'32980'
p487
aa(lp488
S'HOUSE'
p489
aS'33020'
p490
aS'33100'
p491
aa(lp492
S'WOOD'
p493
aS'33200'
p494
aS'33380'
p495
aa(lp496
S'HOUSE'
p497
aS'33440'
p498
aS'33760'
p499
aa(lp500
g21
aS'34020'
p501
aasg23
S'34020'
p502
sg25
S'ben_story_443_small_0.mov'
p503
sg27
(lp504
g481
ag485
ag489
ag493
ag497
ag21
asg29
S'After building a house, it becomes a wood house.'
p505
sg30
S'32280'
p506
ssI18
(dp507
g2
(lp508
(lp509
S'IX-3p:k'
p510
aS'34440'
p511
aS'34640'
p512
aa(lp513
g21
aS'34860'
p514
aa(lp515
S'WORK'
p516
aS'35060'
p517
aS'35180'
p518
aa(lp519
S'HARD'
p520
aS'35240'
p521
aS'35480'
p522
aa(lp523
S'DECORATE'
p524
aS'35680'
p525
aS'36220'
p526
aasg23
S'36220'
p527
sg25
S'ben_story_443_small_0.mov'
p528
sg27
(lp529
g510
ag21
ag516
ag520
ag524
asg29
S'He is kind of person who would work hard and likes to decorate.'
p530
sg30
S'34080'
p531
ssI19
(dp532
g2
(lp533
(lp534
S'IX-3p:k'
p535
aS'37800'
p536
aS'38260'
p537
aa(lp538
S'BUILD'
p539
aS'38400'
p540
aS'38540'
p541
aa(lp542
S'HOUSE'
p543
aS'38600'
p544
aS'39000'
p545
aa(lp546
S'WOOD'
p547
aS'39140'
p548
aS'39320'
p549
aa(lp550
S'FROM'
p551
aS'39380'
p552
aS'39500'
p553
aa(lp554
S'BRICK+'
p555
aS'39600'
p556
aS'39940'
p557
aasg23
S'39940'
p558
sg25
S'ben_story_443_small_0.mov'
p559
sg27
(lp560
g535
ag539
ag543
ag547
ag551
ag555
asg29
S'He was building a house from bricks.'
p561
sg30
S'37740'
p562
ssI20
(dp563
g2
(lp564
(lp565
S'BEAUTIFUL'
p566
aS'42580'
p567
aS'42760'
p568
aa(lp569
S'BRICK'
p570
aS'42840'
p571
aS'42960'
p572
aa(lp573
S'HOUSE'
p574
aS'43000'
p575
aS'43280'
p576
aasg23
S'43280'
p577
sg25
S'ben_story_443_small_0.mov'
p578
sg27
(lp579
g566
ag570
ag574
asg29
S"It's a beautiful brick house."
p580
sg30
S'42520'
p581
ssI21
(dp582
g2
(lp583
(lp584
S'IX-3p:j'
p585
aS'43340'
p586
aS'43520'
p587
aa(lp588
S'WOOD'
p589
aS'43600'
p590
aS'43740'
p591
aa(lp592
S'HOUSE'
p593
aS'43780'
p594
aS'43940'
p595
aa(lp596
g21
aS'43960'
p597
aasg23
S'43960'
p598
sg25
S'ben_story_443_small_0.mov'
p599
sg27
(lp600
g585
ag589
ag593
ag21
asg29
S'There is a wood house.'
p601
sg30
S'43300'
p602
ssI22
(dp603
g2
(lp604
(lp605
S'GRASS'
p606
aS'44640'
p607
aS'44880'
p608
aa(lp609
S'HOUSE'
p610
aS'45000'
p611
aS'45080'
p612
aa(lp613
S'part:indef'
p614
aS'45140'
p615
aS'45320'
p616
aasg23
S'45520'
p617
sg25
S'ben_story_443_small_0.mov'
p618
sg27
(lp619
g606
ag610
ag614
asg29
S'And, there is a grass house.'
p620
sg30
S'43980'
p621
ssI23
(dp622
g2
(lp623
(lp624
S'MISTAKE'
p625
aS'45780'
p626
aS'46100'
p627
aa(lp628
S'HAPPEN'
p629
aS'46300'
p630
aS'46940'
p631
aa(lp632
S'ARRIVE'
p633
aS'47360'
p634
aS'47480'
p635
aa(lp636
S'CL:5location'
p637
aS'47640'
p638
aS'47920'
p639
aa(lp640
S'WOLF'
p641
aS'48200'
p642
aS'48860'
p643
aasg23
S'48860'
p644
sg25
S'ben_story_443_small_0.mov'
p645
sg27
(lp646
g625
ag629
ag633
ag637
ag641
asg29
S'All of sudden, a wolf arrive the location.'
p647
sg30
S'45540'
p648
ssI24
(dp649
g2
(lp650
(lp651
S'WOLF'
p652
aS'48960'
p653
aS'49080'
p654
aa(lp655
g21
aS'49420'
p656
aa(lp657
S'SMELL'
p658
aS'49640'
p659
aS'50020'
p660
aa(lp661
S'PIG'
p662
aS'50080'
p663
aS'50340'
p664
aa(lp665
S'DELICIOUS'
p666
aS'50400'
p667
aS'50580'
p668
aa(lp669
g21
aS'50660'
p670
aa(lp671
S'WHERE'
p672
aS'50740'
p673
aS'51160'
p674
aasg23
S'51160'
p675
sg25
S'ben_story_443_small_0.mov'
p676
sg27
(lp677
g652
ag21
ag658
ag662
ag666
ag21
ag672
asg29
S'A wolf could smell pigs. "Delicious! Wondering where they are?," Wolf thought.'
p678
sg30
S'48900'
p679
ssI25
(dp680
g2
(lp681
(lp682
S'SEE'
p683
aS'51280'
p684
aS'51440'
p685
aa(lp686
S'THREE'
p687
aS'51480'
p688
aS'51520'
p689
aa(lp690
S'PIG'
p691
aS'51620'
p692
aS'51640'
p693
aa(lp694
S'THREE'
p695
aS'51680'
p696
aS'51920'
p697
aa(lp698
S'ahh'
p699
aS'51980'
p700
aS'52140'
p701
aa(lp702
S'ALL'
p703
aS'52220'
p704
aS'52420'
p705
aa(lp706
S'THREE'
p707
aS'52440'
p708
aS'52500'
p709
aa(lp710
S'ahh'
p711
aS'52520'
p712
aS'52880'
p713
aa(lp714
S'HIDE'
p715
aS'53020'
p716
aS'53160'
p717
aa(lp718
S'HIDE'
p719
aS'53180'
p720
aS'53240'
p721
aa(lp722
S'HIDE'
p723
aS'53280'
p724
aS'53420'
p725
aa(lp726
g21
aS'53900'
p727
aasg23
S'53900'
p728
sg25
S'ben_story_443_small_0.mov'
p729
sg27
(lp730
g683
ag687
ag691
ag695
ag699
ag703
ag707
ag711
ag715
ag719
ag723
ag21
asg29
S'A wolf saw three pigs, they all screamed and ran away to hide.'
p731
sg30
S'51200'
p732
ssI26
(dp733
g2
(lp734
(lp735
S'WOLF'
p736
aS'53980'
p737
aS'54100'
p738
aa(lp739
S'BCL:5walking'
p740
aS'54260'
p741
aS'54640'
p742
aa(lp743
S'TO'
p744
aS'54720'
p745
aS'54740'
p746
aa(lp747
S'IX-3p:i'
p748
aS'54780'
p749
aS'55020'
p750
aa(lp751
S'HOUSE'
p752
aS'55080'
p753
aS'55220'
p754
aa(lp755
S'GRASS'
p756
aS'55340'
p757
aS'55440'
p758
aa(lp759
S'part:indef'
p760
aS'55600'
p761
aS'55760'
p762
aa(lp763
g21
aS'56140'
p764
aasg23
S'56140'
p765
sg25
S'ben_story_443_small_0.mov'
p766
sg27
(lp767
g736
ag740
ag744
ag748
ag752
ag756
ag760
ag21
asg29
S'A wolf walk to grass house.'
p768
sg30
S'53920'
p769
ssI27
(dp770
g2
(lp771
(lp772
S'WARN'
p773
aS'56200'
p774
aS'56380'
p775
aa(lp776
S'IX-2p:i'
p777
aS'56400'
p778
aS'56520'
p779
aa(lp780
S'IX-1p'
p781
aS'57060'
p782
aS'57080'
p783
aa(lp784
S'TAKE-OVER'
p785
aS'57200'
p786
aS'57280'
p787
aa(lp788
S'EAT'
p789
aS'57340'
p790
aS'57440'
p791
aa(lp792
S'CL:5eating the whole thing'
p793
aS'57520'
p794
aS'57620'
p795
aa(lp796
S'FUTURE'
p797
aS'57680'
p798
aS'58120'
p799
aasg23
S'58120'
p800
sg25
S'ben_story_443_small_0.mov'
p801
sg27
(lp802
g773
ag777
ag781
ag785
ag789
ag793
ag797
asg29
S'"I warn you, get out or else, I will take over and eat you!," Wolf said.'
p803
sg30
S'56160'
p804
ssI28
(dp805
g2
(lp806
(lp807
S'PIG'
p808
aS'58360'
p809
aS'58480'
p810
aa(lp811
S'IX-loc:i'
p812
aS'58560'
p813
aS'58600'
p814
aa(lp815
S'CL:5scaring'
p816
aS'58700'
p817
aS'58820'
p818
aa(lp819
S'REFUSE'
p820
aS'58900'
p821
aS'59020'
p822
aa(lp823
S'CLOSE'
p824
aS'59140'
p825
aS'59240'
p826
aa(lp827
g21
aS'59380'
p828
aa(lp829
S'ICL:Sfixing'
p830
aS'59500'
p831
aS'59660'
p832
aa(lp833
S'LOCK'
p834
aS'59740'
p835
aS'60020'
p836
aa(lp837
S'CHAIR'
p838
aS'60200'
p839
aS'60420'
p840
aa(lp841
S'WAIT'
p842
aS'60520'
p843
aS'60760'
p844
aasg23
S'60980'
p845
sg25
S'ben_story_443_small_0.mov'
p846
sg27
(lp847
g808
ag812
ag816
ag820
ag824
ag21
ag830
ag834
ag838
ag842
asg29
S'A pig refused and closed the door.  The door is locked, pig sat on the chair and waiting.'
p848
sg30
S'58140'
p849
ssI29
(dp850
g2
(lp851
(lp852
S'PIG'
p853
aS'61100'
p854
aS'61120'
p855
aa(lp856
S'LOOK'
p857
aS'61200'
p858
aS'61220'
p859
aa(lp860
S'#OK'
p861
aS'61280'
p862
aS'61440'
p863
aa(lp864
S'WARN'
p865
aS'61660'
p866
aS'61860'
p867
aa(lp868
S'part:indef'
p869
aS'61940'
p870
aS'62240'
p871
aa(lp872
S'ONE'
p873
aS'62700'
p874
aS'62960'
p875
aa(lp876
g21
aS'63540'
p877
aa(lp878
S'TWO'
p879
aS'63740'
p880
aS'64140'
p881
aa(lp882
g21
aS'64280'
p883
aa(lp884
S'THREE'
p885
aS'64540'
p886
aS'64580'
p887
aasg23
S'64580'
p888
sg25
S'ben_story_443_small_0.mov'
p889
sg27
(lp890
g853
ag857
ag861
ag865
ag869
ag873
ag21
ag879
ag21
ag885
asg29
S'A wolf look at pig and said, "Ok, I warned you, one... two... three..."'
p891
sg30
S'61020'
p892
ssI30
(dp893
g2
(lp894
(lp895
S'HOUSE'
p896
aS'66640'
p897
aS'66760'
p898
aa(lp899
S'CL:5the object flying out'
p900
aS'66880'
p901
aS'67700'
p902
aasg23
S'67700'
p903
sg25
S'ben_story_443_small_0.mov'
p904
sg27
(lp905
g896
ag900
asg29
S'A fox suck the air and then blow the house.'
p906
sg30
S'64620'
p907
ssI31
(dp908
g2
(lp909
(lp910
S'GRASS'
p911
aS'67860'
p912
aS'68040'
p913
aa(lp914
S'GONE'
p915
aS'68180'
p916
aS'68380'
p917
aa(lp918
S'CL:5shocking'
p919
aS'68540'
p920
aS'69220'
p921
aa(lp922
S'FINISH'
p923
aS'69480'
p924
aS'69620'
p925
aasg23
S'69620'
p926
sg25
S'ben_story_443_small_0.mov'
p927
sg27
(lp928
g911
ag915
ag919
ag923
asg29
S'A grass house is gone.'
p929
sg30
S'67740'
p930
ssI32
(dp931
g2
(lp932
(lp933
S'LOOK'
p934
aS'69700'
p935
aS'69780'
p936
aa(lp937
S'SEE'
p938
aS'69860'
p939
aS'69980'
p940
aa(lp941
S'WOLF'
p942
aS'70120'
p943
aS'70340'
p944
aasg23
S'70800'
p945
sg25
S'ben_story_443_small_0.mov'
p946
sg27
(lp947
g934
ag938
ag942
asg29
S'Looked up and saw wolf was looking down.'
p948
sg30
S'69640'
p949
ssI33
(dp950
g2
(lp951
(lp952
S'LOOK'
p953
aS'70980'
p954
aS'71100'
p955
aa(lp956
S'SCARE'
p957
aS'71380'
p958
aS'71620'
p959
aa(lp960
S'GET-UP'
p961
aS'71840'
p962
aS'71900'
p963
aa(lp964
S'RUN'
p965
aS'71960'
p966
aS'72400'
p967
aasg23
S'72400'
p968
sg25
S'ben_story_443_small_0.mov'
p969
sg27
(lp970
g953
ag957
ag961
ag965
asg29
S'He looked and got scared.  He got up and ran away.'
p971
sg30
S'70820'
p972
ssI34
(dp973
g2
(lp974
(lp975
S'ARRIVE'
p976
aS'72440'
p977
aS'72580'
p978
aa(lp979
S'IX-3p:j'
p980
aS'72620'
p981
aS'72680'
p982
aa(lp983
S'WOOD'
p984
aS'72740'
p985
aS'72880'
p986
aa(lp987
S'HOUSE'
p988
aS'72920'
p989
aS'73040'
p990
aasg23
S'73040'
p991
sg25
S'ben_story_443_small_0.mov'
p992
sg27
(lp993
g976
ag980
ag984
ag988
asg29
S'He arrived to wood house.'
p994
sg30
S'72440'
p995
ssI35
(dp996
g2
(lp997
(lp998
S'IN'
p999
aS'73240'
p1000
aS'73580'
p1001
aa(lp1002
S'BROTHER'
p1003
aS'73720'
p1004
aS'73880'
p1005
aa(lp1006
S'IX-3p-pl-2:i/j'
p1007
aS'73960'
p1008
aS'74000'
p1009
aa(lp1010
S'part:indef'
p1011
aS'74080'
p1012
aS'74100'
p1013
aa(lp1014
S'CL:5talking back and forth'
p1015
aS'74180'
p1016
aS'74600'
p1017
aa(lp1018
S'DO'
p1019
aS'74660'
p1020
aS'74740'
p1021
aa(lp1022
S'(2h)CL:3sitting down'
p1023
aS'74820'
p1024
aS'75080'
p1025
aa(lp1026
S'UNKNOWN'
p1027
aS'75260'
p1028
aS'75440'
p1029
aasg23
S'75440'
p1030
sg25
S'ben_story_443_small_0.mov'
p1031
sg27
(lp1032
g999
ag1003
ag1007
ag1011
ag1015
ag1019
ag1023
ag1027
asg29
S'Got in and discuss with his brother to see what they should do.  They were sitting  down and waiting.'
p1033
sg30
S'73080'
p1034
ssI36
(dp1035
g2
(lp1036
(lp1037
S'PIG'
p1038
aS'75560'
p1039
aS'75700'
p1040
aa(lp1041
S'WOLF'
p1042
aS'76040'
p1043
aS'76200'
p1044
aa(lp1045
S'ARRIVE'
p1046
aS'76320'
p1047
aS'76600'
p1048
aa(lp1049
S'LOOK'
p1050
aS'76720'
p1051
aS'76820'
p1052
aa(lp1053
S'BCL:Swaiting'
p1054
aS'76860'
p1055
aS'76920'
p1056
aa(lp1057
g21
aS'77580'
p1058
aasg23
S'77580'
p1059
sg25
S'ben_story_443_small_0.mov'
p1060
sg27
(lp1061
g1038
ag1042
ag1046
ag1050
ag1054
ag21
asg29
S'A Pig, I mean, Wolf arrived and stared at him.'
p1062
sg30
S'75460'
p1063
ssI37
(dp1064
g2
(lp1065
(lp1066
S'WARN'
p1067
aS'77800'
p1068
aS'78080'
p1069
aa(lp1070
S'ONE'
p1071
aS'78140'
p1072
aS'78420'
p1073
aa(lp1074
g21
aS'78700'
p1075
aa(lp1076
S'TWO'
p1077
aS'78840'
p1078
aS'78940'
p1079
aa(lp1080
g21
aS'79100'
p1081
aa(lp1082
S'THREE'
p1083
aS'79180'
p1084
aS'79200'
p1085
aa(lp1086
g21
aS'79520'
p1087
aasg23
S'79520'
p1088
sg25
S'ben_story_443_small_0.mov'
p1089
sg27
(lp1090
g1067
ag1071
ag21
ag1077
ag21
ag1083
ag21
asg29
S'Wolf said,"I warned you, ONE... TWO... THREE..."'
p1091
sg30
S'77600'
p1092
ssI38
(dp1093
g2
(lp1094
(lp1095
S'CL:5sucking the air'
p1096
aS'79720'
p1097
aS'80680'
p1098
aa(lp1099
S'BLOW'
p1100
aS'80780'
p1101
aS'81320'
p1102
aa(lp1103
S'HOUSE'
p1104
aS'81500'
p1105
aS'81620'
p1106
aa(lp1107
S'CL:5the object flying out'
p1108
aS'81680'
p1109
aS'82640'
p1110
aasg23
S'82640'
p1111
sg25
S'ben_story_443_small_0.mov'
p1112
sg27
(lp1113
g1096
ag1100
ag1104
ag1108
asg29
S'Wolf sucked the air and then blew the house away.'
p1114
sg30
S'79540'
p1115
ssI39
(dp1116
g2
(lp1117
(lp1118
S'TWO'
p1119
aS'82700'
p1120
aS'82860'
p1121
aa(lp1122
S'PIG'
p1123
aS'82940'
p1124
aS'83000'
p1125
aa(lp1126
S'LEAVE'
p1127
aS'83040'
p1128
aS'83080'
p1129
aa(lp1130
S'(2h)CL:3sitting'
p1131
aS'83140'
p1132
aS'83400'
p1133
aa(lp1134
S'LOOK-AROUND'
p1135
aS'83500'
p1136
aS'84160'
p1137
aasg23
S'84160'
p1138
sg25
S'ben_story_443_small_0.mov'
p1139
sg27
(lp1140
g1119
ag1123
ag1127
ag1131
ag1135
asg29
S'So, there are only two pigs left, they were sitting and looking around.'
p1141
sg30
S'82660'
p1142
ssI40
(dp1143
g2
(lp1144
(lp1145
S'WOLF'
p1146
aS'84280'
p1147
aS'84400'
p1148
aa(lp1149
S'LOOK'
p1150
aS'84440'
p1151
aS'84780'
p1152
aa(lp1153
S'READY'
p1154
aS'84820'
p1155
aS'84860'
p1156
aa(lp1157
S'IX-1p'
p1158
aS'84920'
p1159
aS'84980'
p1160
aa(lp1161
S'TAKE-OVER'
p1162
aS'85080'
p1163
aS'85240'
p1164
aa(lp1165
S'EAT'
p1166
aS'85320'
p1167
aS'85440'
p1168
aa(lp1169
S'CL:5eating the whole thing'
p1170
aS'85540'
p1171
aS'85680'
p1172
aasg23
S'85680'
p1173
sg25
S'ben_story_443_small_0.mov'
p1174
sg27
(lp1175
g1146
ag1150
ag1154
ag1158
ag1162
ag1166
ag1170
asg29
S'Wolf looked at them and said," I am ready to catch and eat you!"'
p1176
sg30
S'84180'
p1177
ssI41
(dp1178
g2
(lp1179
(lp1180
S'CL:5attacking'
p1181
aS'86040'
p1182
aS'86200'
p1183
aa(lp1184
S'MISTAKE'
p1185
aS'86280'
p1186
aS'86300'
p1187
aa(lp1188
S'TWO'
p1189
aS'86340'
p1190
aS'86460'
p1191
aa(lp1192
S'CL:2running'
p1193
aS'86500'
p1194
aS'86660'
p1195
aasg23
S'87040'
p1196
sg25
S'ben_story_443_small_0.mov'
p1197
sg27
(lp1198
g1181
ag1185
ag1189
ag1193
asg29
S'Wolf was about to attack, but two pigs ran away before wolf catch them.'
p1199
sg30
S'85700'
p1200
ssI42
(dp1201
g2
(lp1202
(lp1203
S'CHASE'
p1204
aS'87140'
p1205
aS'87580'
p1206
aa(lp1207
S'TWO'
p1208
aS'87660'
p1209
aS'87760'
p1210
aa(lp1211
S'IN'
p1212
aS'87860'
p1213
aS'88160'
p1214
aa(lp1215
S'BRICK'
p1216
aS'88240'
p1217
aS'88460'
p1218
aa(lp1219
S'HOUSE'
p1220
aS'88520'
p1221
aS'88640'
p1222
aa(lp1223
g21
aS'88720'
p1224
aasg23
S'88720'
p1225
sg25
S'ben_story_443_small_0.mov'
p1226
sg27
(lp1227
g1204
ag1208
ag1212
ag1216
ag1220
ag21
asg29
S'Wolf was chasing after pigs.  Two pigs got in the brick house.'
p1228
sg30
S'87060'
p1229
ssI43
(dp1230
g2
(lp1231
(lp1232
S'IN'
p1233
aS'88820'
p1234
aS'89000'
p1235
aa(lp1236
S'DO++'
p1237
aS'89060'
p1238
aS'89240'
p1239
aa(lp1240
S'CLOSE'
p1241
aS'89480'
p1242
aS'89720'
p1243
aa(lp1244
S'ICL:Sclosing the object'
p1245
aS'89800'
p1246
aS'90040'
p1247
aa(lp1248
S'LOCK'
p1249
aS'90100'
p1250
aS'90200'
p1251
aasg23
S'90200'
p1252
sg25
S'ben_story_443_small_0.mov'
p1253
sg27
(lp1254
g1233
ag1237
ag1241
ag1245
ag1249
asg29
S'Got in and discuss what to do, then closed the window and locked.'
p1255
sg30
S'88740'
p1256
ssI44
(dp1257
g2
(lp1258
(lp1259
S'part:indef'
p1260
aS'90280'
p1261
aS'90380'
p1262
aa(lp1263
S'DO++'
p1264
aS'90420'
p1265
aS'90760'
p1266
aa(lp1267
S'part:indef'
p1268
aS'90820'
p1269
aS'91140'
p1270
aa(lp1271
S'SEE'
p1272
aS'91220'
p1273
aS'91340'
p1274
aa(lp1275
S'part:indef'
p1276
aS'91400'
p1277
aS'91600'
p1278
aasg23
S'91600'
p1279
sg25
S'ben_story_443_small_0.mov'
p1280
sg27
(lp1281
g1260
ag1264
ag1268
ag1272
ag1276
asg29
S'The pigs said," What should we do?  We will wait and see."'
p1282
sg30
S'90220'
p1283
ssI45
(dp1284
g2
(lp1285
(lp1286
S'WOLF'
p1287
aS'91840'
p1288
aS'91960'
p1289
aa(lp1290
S'ARRIVE'
p1291
aS'92040'
p1292
aS'92220'
p1293
aasg23
S'92220'
p1294
sg25
S'ben_story_443_small_0.mov'
p1295
sg27
(lp1296
g1287
ag1291
asg29
S'Wolf arrived.'
p1297
sg30
S'91620'
p1298
ss.