(dp0
I0
(dp1
S'Annotated'
p2
(lp3
(lp4
S'IX-1p'
p5
aS'320'
p6
aS'440'
p7
aa(lp8
S'AFTER'
p9
aS'560'
p10
aS'920'
p11
aa(lp12
S'IX-1p'
p13
aS'1080'
p14
aS'1160'
p15
aa(lp16
S'FINISH'
p17
aS'1240'
p18
aS'1480'
p19
aa(lp20
S'fs-CSUN'
p21
aS'1600'
p22
aS'2160'
p23
aa(lp24
S'PAST'
p25
aS'2360'
p26
aS'3160'
p27
aa(lp28
S'SEMESTER'
p29
aS'3560'
p30
aS'4120'
p31
aasS'EndFrame'
p32
S'4200'
p33
sS'Video'
p34
NsS'Words'
p35
(lp36
g5
ag9
ag13
ag17
ag21
ag25
ag29
asS'English'
p37
S'I was completed last semester at CSUN.'
p38
sS'StartFrame'
p39
S'0'
p40
ssI1
(dp41
g2
(lp42
(lp43
S'IX-1p'
p44
aS'4360'
p45
aS'4520'
p46
aa(lp47
S'TWO'
p48
aS'4680'
p49
aS'4760'
p50
aa(lp51
S'FRIEND'
p52
aS'4920'
p53
aS'5160'
p54
aa(lp55
S'punct'
p56
aS'5760'
p57
aa(lp58
S'IX-1p'
p59
aS'6000'
p60
aS'6120'
p61
aa(lp62
S'DECIDE'
p63
aS'6280'
p64
aS'6440'
p65
aa(lp66
S'DRIVE'
p67
aS'6560'
p68
aS'6960'
p69
aa(lp70
S'TO'
p71
aS'7080'
p72
aS'7240'
p73
aa(lp74
S'fs-BOSTON'
p75
aS'7360'
p76
aS'8800'
p77
aa(lp78
S'ns-BOSTON'
p79
aS'8880'
p80
aS'9440'
p81
aa(lp82
S'IX-1p'
p83
aS'9600'
p84
aS'9640'
p85
aasg32
S'9640'
p86
sg34
Nsg35
(lp87
g44
ag48
ag52
ag56
ag59
ag63
ag67
ag71
ag75
ag79
ag83
asg37
S'My two friends joined and we decided to drive to Boston.'
p88
sg39
S'4200'
p89
ssI2
(dp90
g2
(lp91
(lp92
S'IX-1p'
p93
aS'9800'
p94
aS'9880'
p95
aa(lp96
S'DRIVE++'
p97
aS'10000'
p98
aS'10920'
p99
aa(lp100
S'START'
p101
aS'11040'
p102
aS'11280'
p103
aa(lp104
S'FROM'
p105
aS'11400'
p106
aS'11680'
p107
aa(lp108
g56
aS'13240'
p109
aa(lp110
S'TO'
p111
aS'13400'
p112
aS'13520'
p113
aa(lp114
S'fs-SF'
p115
aS'13640'
p116
aS'14320'
p117
aa(lp118
g56
aS'14840'
p119
aa(lp120
S'VISIT'
p121
aS'15000'
p122
aS'15240'
p123
aa(lp124
S'GOOD'
p125
aS'15320'
p126
aS'15480'
p127
aa(lp128
S'FRIEND'
p129
aS'15600'
p130
aS'15920'
p131
aa(lp132
S'fs-OF'
p133
aS'16000'
p134
aS'16080'
p135
aa(lp136
S'POSS-1p'
p137
aS'16200'
p138
aS'16840'
p139
aasg32
S'16840'
p140
sg34
Nsg35
(lp141
g93
ag97
ag101
ag105
ag56
ag111
ag115
ag56
ag121
ag125
ag129
ag133
ag137
asg37
S'I drove from LA up to SF to visit a good friend of mine.'
p142
sg39
S'9640'
p143
ssI3
(dp144
g2
(lp145
(lp146
S'ENJOY'
p147
aS'16840'
p148
aS'16920'
p149
aa(lp150
g56
aS'18040'
p151
aa(lp152
S'GREAT'
p153
aS'18200'
p154
aS'18680'
p155
aa(lp156
S'REALLY'
p157
aS'18880'
p158
aS'18960'
p159
aa(lp160
S'ENJOY++'
p161
aS'19080'
p162
aS'20040'
p163
aa(lp164
S'REALLY'
p165
aS'20160'
p166
aS'20280'
p167
aa(lp168
S'GRAB'
p169
aS'20360'
p170
aS'20800'
p171
aa(lp172
S'ns-SF'
p173
aS'20920'
p174
aS'21240'
p175
aa(lp176
S'AREA'
p177
aS'21400'
p178
aS'21720'
p179
aa(lp180
S'BEAUTIFUL'
p181
aS'22200'
p182
aS'22800'
p183
aa(lp184
S'CITY'
p185
aS'23000'
p186
aS'23520'
p187
aasg32
S'23520'
p188
sg34
Nsg35
(lp189
g147
ag56
ag153
ag157
ag161
ag165
ag169
ag173
ag177
ag181
ag185
asg37
S'We went trip to SF.  We enjoyed and SF is a beautiful city.'
p190
sg39
S'16840'
p191
ssI4
(dp192
g2
(lp193
(lp194
S'CITY'
p195
aS'23520'
p196
aS'23600'
p197
aa(lp198
S'REALLY'
p199
aS'23680'
p200
aS'23800'
p201
aa(lp202
S'IX-3p'
p203
aS'23840'
p204
aS'23920'
p205
aa(lp206
S'ADMIT'
p207
aS'24000'
p208
aS'24360'
p209
aa(lp210
S'IX-3p:j'
p211
aS'24520'
p212
aS'24720'
p213
aa(lp214
S'COPY+'
p215
aS'24840'
p216
aS'25320'
p217
aa(lp218
S'fs-BOSTON'
p219
aS'25400'
p220
aS'26640'
p221
aa(lp222
S'A-LITTLE'
p223
aS'26760'
p224
aS'27040'
p225
aa(lp226
S'BUT'
p227
aS'27160'
p228
aS'27400'
p229
aa(lp230
S'UNKNOWN'
p231
aS'27480'
p232
aS'28120'
p233
aasg32
S'28494'
p234
sg34
Nsg35
(lp235
g195
ag199
ag203
ag207
ag211
ag215
ag219
ag223
ag227
ag231
asg37
S'I admit that SF is copying Boston a little.'
p236
sg39
S'23520'
p237
ssI5
(dp238
g2
(lp239
(lp240
S'UNKNOWN'
p241
aS'28600'
p242
aS'28720'
p243
aa(lp244
S'IX-1p'
p245
aS'28800'
p246
aS'28880'
p247
aa(lp248
S'DRIVE'
p249
aS'28960'
p250
aS'29600'
p251
aa(lp252
S'FROM'
p253
aS'29640'
p254
aS'29880'
p255
aa(lp256
g56
aS'30200'
p257
aa(lp258
S'TO'
p259
aS'30360'
p260
aS'30480'
p261
aa(lp262
S'CL:Bacross the land'
p263
aS'30720'
p264
aS'31480'
p265
aasg32
S'31480'
p266
sg34
Nsg35
(lp267
g241
ag245
ag249
ag253
ag56
ag259
ag263
asg37
S'I drove from SF to across the country.'
p268
sg39
S'28494'
p269
ssI6
(dp270
g2
(lp271
(lp272
S'ON'
p273
aS'31960'
p274
aS'32120'
p275
aa(lp276
S'I-80'
p277
aS'32280'
p278
aS'33200'
p279
aa(lp280
S'ALL-THE-WAY'
p281
aS'33720'
p282
aS'34200'
p283
aa(lp284
S'CL:Bacross the land'
p285
aS'34480'
p286
aS'35040'
p287
aa(lp288
S'FUTURE'
p289
aS'35160'
p290
aS'35320'
p291
aa(lp292
S'CHANGE'
p293
aS'35440'
p294
aS'35480'
p295
aa(lp296
S'I-90'
p297
aS'35640'
p298
aS'36120'
p299
aa(lp300
S'LATER'
p301
aS'36320'
p302
aS'36480'
p303
aa(lp304
S'IX-1p'
p305
aS'36720'
p306
aS'36840'
p307
aa(lp308
S'EXPECT'
p309
aS'36960'
p310
aS'37320'
p311
aa(lp312
S'THREE-DAY'
p313
aS'37440'
p314
aS'37920'
p315
aa(lp316
S'FOUR-DAY'
p317
aS'38080'
p318
aS'38560'
p319
aa(lp320
S'REALLY'
p321
aS'38680'
p322
aS'38880'
p323
aa(lp324
S'IX-1p'
p325
aS'39040'
p326
aS'39080'
p327
aa(lp328
S'WRONG'
p329
aS'39240'
p330
aS'39800'
p331
aa(lp332
S'AWFUL'
p333
aS'39960'
p334
aS'40520'
p335
aasg32
S'40760'
p336
sg34
Nsg35
(lp337
g273
ag277
ag281
ag285
ag289
ag293
ag297
ag301
ag305
ag309
ag313
ag317
ag321
ag325
ag329
ag333
asg37
S'On I-80 road all the way across the country and it will change to I-90 eventually. I expect it would takes maybe three or four days to cross the country.  But, I am wrong!'
p338
sg39
S'31480'
p339
ssI7
(dp340
g2
(lp341
(lp342
S'AWFUL'
p343
aS'40760'
p344
aS'40840'
p345
aa(lp346
S'REALLY'
p347
aS'41040'
p348
aS'41280'
p349
aa(lp350
S'IX-1p'
p351
aS'41320'
p352
aS'41480'
p353
aa(lp354
S'DRIVE'
p355
aS'41640'
p356
aS'41880'
p357
aa(lp358
S'IX-1p'
p359
aS'41960'
p360
aS'42000'
p361
aa(lp362
S'IN'
p363
aS'42120'
p364
aS'42400'
p365
aa(lp366
S'fs-NEVADA'
p367
aS'42520'
p368
aS'43960'
p369
aa(lp370
g56
aS'44200'
p371
aa(lp372
S'REALLY'
p373
aS'44400'
p374
aS'44440'
p375
aa(lp376
g56
aS'44880'
p377
aa(lp378
S'FRIEND'
p379
aS'45360'
p380
aS'45920'
p381
aa(lp382
S'TEMPT++'
p383
aS'46000'
p384
aS'46920'
p385
aa(lp386
S'DECIDE'
p387
aS'47080'
p388
aS'47400'
p389
aa(lp390
S'CL:3car pulling over'
p391
aS'47560'
p392
aS'48200'
p393
aa(lp394
S'CASINO'
p395
aS'48240'
p396
aS'48760'
p397
aa(lp398
S'fs-CASINO'
p399
aS'48800'
p400
aS'50240'
p401
aa(lp402
S'ON'
p403
aS'50680'
p404
aS'50800'
p405
aa(lp406
S'BEGIN'
p407
aS'50880'
p408
aS'51080'
p409
aa(lp410
S'OF'
p411
aS'51160'
p412
aS'51200'
p413
aa(lp414
S'ns-NEV'
p415
aS'51240'
p416
aS'52200'
p417
aa(lp418
S'STATE'
p419
aS'52360'
p420
aS'52600'
p421
aa(lp422
S'LINE'
p423
aS'52720'
p424
aS'53000'
p425
aa(lp426
S'BETWEEN'
p427
aS'53080'
p428
aS'53360'
p429
aa(lp430
S'ns-CALIFORNIA'
p431
aS'53480'
p432
aS'54120'
p433
aa(lp434
S'AND'
p435
aS'54280'
p436
aS'54680'
p437
aa(lp438
S'IX-3p'
p439
aS'54720'
p440
aS'54800'
p441
aa(lp442
S'ns-NEV'
p443
aS'54960'
p444
aS'55520'
p445
aasg32
S'55635'
p446
sg34
Nsg35
(lp447
g343
ag347
ag351
ag355
ag359
ag363
ag367
ag56
ag373
ag56
ag379
ag383
ag387
ag391
ag395
ag399
ag403
ag407
ag411
ag415
ag419
ag423
ag427
ag431
ag435
ag439
ag443
asg37
S'My frends and I drove through Nevada.  Three of us were tempting to play gambling so we decided to pull over by casino in border between Nevada and California.'
p448
sg39
S'40760'
p449
ssI8
(dp450
g2
(lp451
(lp452
S'IX-1p'
p453
aS'55640'
p454
aS'55760'
p455
aa(lp456
S'CL:3car pulling over'
p457
aS'55880'
p458
aS'56280'
p459
aa(lp460
S'GAMBLE++'
p461
aS'56400'
p462
aS'57280'
p463
aa(lp464
S'IX-1p'
p465
aS'57440'
p466
aS'57480'
p467
aa(lp468
S'HAVE'
p469
aS'57520'
p470
aS'57560'
p471
aa(lp472
S'GOOD'
p473
aS'57680'
p474
aS'57720'
p475
aa(lp476
S'TIME'
p477
aS'57840'
p478
aS'58360'
p479
aa(lp480
S'FOR'
p481
aS'58560'
p482
aS'58880'
p483
aa(lp484
S'MAYBE'
p485
aS'59400'
p486
aS'59480'
p487
aa(lp488
S'FEW'
p489
aS'59680'
p490
aS'59760'
p491
aa(lp492
S'HOUR'
p493
aS'59960'
p494
aS'60360'
p495
aa(lp496
S'IX-1p'
p497
aS'60440'
p498
aS'60520'
p499
aa(lp500
S'GET-IN'
p501
aS'60560'
p502
aS'60920'
p503
aa(lp504
S'#CAR'
p505
aS'61320'
p506
aS'61840'
p507
aasg32
S'61920'
p508
sg34
Nsg35
(lp509
g453
ag457
ag461
ag465
ag469
ag473
ag477
ag481
ag485
ag489
ag493
ag497
ag501
ag505
asg37
S'I pulled the car over and gambling.  I had a good time for maybe few hours and then I got back into the car.'
p510
sg39
S'55635'
p511
ssI9
(dp512
g2
(lp513
(lp514
S'part:indef'
p515
aS'62080'
p516
aS'62280'
p517
aa(lp518
S'IX-1p'
p519
aS'62320'
p520
aS'62400'
p521
aa(lp522
S'DRIVE++'
p523
aS'62600'
p524
aS'63880'
p525
aa(lp526
S'HOPE'
p527
aS'64120'
p528
aS'64400'
p529
aa(lp530
S'OUT'
p531
aS'64480'
p532
aS'65000'
p533
aa(lp534
S'fs-NEVADA'
p535
aS'65200'
p536
aS'66240'
p537
aa(lp538
S'fs-SO'
p539
aS'66320'
p540
aS'66560'
p541
aa(lp542
S'NOT'
p543
aS'66680'
p544
aS'66800'
p545
aa(lp546
S'FEEL'
p547
aS'66840'
p548
aS'67080'
p549
aa(lp550
S'TEMPT++'
p551
aS'67280'
p552
aS'67680'
p553
aa(lp554
S'AGAIN'
p555
aS'67880'
p556
aS'68160'
p557
aa(lp558
S'TO'
p559
aS'68400'
p560
aS'68520'
p561
aa(lp562
S'GAMBLE'
p563
aS'68600'
p564
aS'68960'
p565
aa(lp566
S'WHY'
p567
aS'69040'
p568
aS'69120'
p569
aa(lp570
S'IX-1p-pl-arc'
p571
aS'69160'
p572
aS'69440'
p573
aa(lp574
S'LOSE'
p575
aS'69600'
p576
aS'69920'
p577
aa(lp578
S'A-LITTLE'
p579
aS'70120'
p580
aS'70320'
p581
aa(lp582
S'MONEY'
p583
aS'70360'
p584
aS'70640'
p585
aa(lp586
S'BUT'
p587
aS'70720'
p588
aS'70920'
p589
aa(lp590
S'UNKNOWN'
p591
aS'71000'
p592
aS'71480'
p593
aasg32
S'71600'
p594
sg34
Nsg35
(lp595
g515
ag519
ag523
ag527
ag531
ag535
ag539
ag543
ag547
ag551
ag555
ag559
ag563
ag567
ag571
ag575
ag579
ag583
ag587
ag591
asg37
S'I hope to get out of Nevada so that way I wont feel tempt to play gamble again.  Because, I lost a little money from gambling.'
p596
sg39
S'62080'
p597
ssI10
(dp598
g2
(lp599
(lp600
S'READY'
p601
aS'73120'
p602
aS'73200'
p603
aa(lp604
S'TO'
p605
aS'73280'
p606
aS'73360'
p607
aa(lp608
S'OUT'
p609
aS'73440'
p610
aS'73960'
p611
aa(lp612
S'fs-NEVADA'
p613
aS'74440'
p614
aS'75440'
p615
aa(lp616
S'REALLY'
p617
aS'76280'
p618
aS'76440'
p619
aa(lp620
S'part:indef'
p621
aS'76520'
p622
aS'77080'
p623
aa(lp624
S'FEEL'
p625
aS'77320'
p626
aS'77400'
p627
aa(lp628
S'SOMETHING'
p629
aS'77480'
p630
aS'78080'
p631
aa(lp632
S'POSS-1p'
p633
aS'79720'
p634
aS'79880'
p635
aa(lp636
S'#CAR'
p637
aS'80040'
p638
aS'80320'
p639
aasg32
S'82040'
p640
sg34
Nsg35
(lp641
g601
ag605
ag609
ag613
ag617
ag621
ag625
ag629
ag633
ag637
asg37
S'When we ready to get out of Nevada, I felt something in back of my car like it fell down and hit the ground.'
p642
sg39
S'71600'
p643
ssI11
(dp644
g2
(lp645
(lp646
S'CL:4back in the car fell'
p647
aS'82040'
p648
aS'82120'
p649
aa(lp650
S'IX-1p'
p651
aS'82240'
p652
aS'82440'
p653
aa(lp654
S'part:indef'
p655
aS'82520'
p656
aS'83800'
p657
aa(lp658
S'POSS-1p'
p659
aS'83840'
p660
aS'84000'
p661
aa(lp662
S'FRIEND'
p663
aS'84080'
p664
aS'84440'
p665
aa(lp666
S'IX-3p'
p667
aS'84480'
p668
aS'84600'
p669
aa(lp670
g56
aS'85400'
p671
aa(lp672
S'CL:3car following other car'
p673
aS'85440'
p674
aS'86600'
p675
aa(lp676
S'IX-1p'
p677
aS'86760'
p678
aS'87720'
p679
aa(lp680
S'wave'
p681
aS'87960'
p682
aS'88960'
p683
aa(lp684
g56
aS'89760'
p685
aa(lp686
S'CL:3cars pulling over'
p687
aS'89840'
p688
aS'90760'
p689
aasg32
S'91400'
p690
sg34
Nsg35
(lp691
g647
ag651
ag655
ag659
ag663
ag667
ag56
ag673
ag677
ag681
ag56
ag687
asg37
S'My friends were driving in front of me whom I was following.  I had to get their attention by waving to pull the car over.'
p692
sg39
S'82040'
p693
ssI12
(dp694
g2
(lp695
(lp696
S'IX-1p'
p697
aS'101880'
p698
aS'102440'
p699
aa(lp700
S'relief'
p701
aS'102520'
p702
aS'102880'
p703
aa(lp704
S'GOOD'
p705
aS'102960'
p706
aS'103080'
p707
aa(lp708
S'THING'
p709
aS'103200'
p710
aS'103320'
p711
aa(lp712
S'IX-1p'
p713
aS'103440'
p714
aS'103480'
p715
aa(lp716
S'BRING'
p717
aS'103640'
p718
aS'104200'
p719
aa(lp720
S'fs-SPARE'
p721
aS'104400'
p722
aS'105600'
p723
aa(lp724
S'TIRE'
p725
aS'105680'
p726
aS'106320'
p727
aa(lp728
S'IX-1p'
p729
aS'106440'
p730
aS'106520'
p731
aa(lp732
S'BRING'
p733
aS'106560'
p734
aS'106720'
p735
aa(lp736
S'IN'
p737
aS'106760'
p738
aS'106960'
p739
aa(lp740
S'BACK'
p741
aS'107000'
p742
aS'107200'
p743
aa(lp744
S'fs-TRUNK'
p745
aS'107360'
p746
aS'108160'
p747
aa(lp748
S'TRUNK'
p749
aS'108280'
p750
aS'108800'
p751
aasg32
S'108840'
p752
sg34
Nsg35
(lp753
g697
ag701
ag705
ag709
ag713
ag717
ag721
ag725
ag729
ag733
ag737
ag741
ag745
ag749
asg37
S'Oh, good thing that I brought spare tire back in my trunk.'
p754
sg39
S'101680'
p755
ssI13
(dp756
g2
(lp757
(lp758
S'part:indef'
p759
aS'121520'
p760
aS'121640'
p761
aa(lp762
S'IX-1p'
p763
aS'121760'
p764
aS'122000'
p765
aa(lp766
S'CHANGE'
p767
aS'122600'
p768
aS'123120'
p769
aa(lp770
S'TIRE'
p771
aS'123320'
p772
aS'123840'
p773
aa(lp774
S'UNKNOWN'
p775
aS'123880'
p776
aS'124120'
p777
aa(lp778
S'part:indef'
p779
aS'124960'
p780
aS'125560'
p781
aa(lp782
S'REALLY'
p783
aS'125640'
p784
aS'125920'
p785
aa(lp786
S'THAT'
p787
aS'126040'
p788
aS'126280'
p789
aa(lp790
S'TIRE'
p791
aS'126360'
p792
aS'126920'
p793
aa(lp794
S'DONUT'
p795
aS'127200'
p796
aS'127680'
p797
aa(lp798
S'fs-DONUT'
p799
aS'127880'
p800
aS'128800'
p801
aa(lp802
S'TIRE'
p803
aS'128880'
p804
aS'129520'
p805
aa(lp806
S'REALLY'
p807
aS'129760'
p808
aS'129960'
p809
aa(lp810
S'CONTINUE'
p811
aS'130040'
p812
aS'130360'
p813
aa(lp814
S'FOR'
p815
aS'130440'
p816
aS'130680'
p817
aa(lp818
S'ONLY'
p819
aS'130840'
p820
aS'130960'
p821
aa(lp822
S'50'
p823
aS'131160'
p824
aS'131400'
p825
aa(lp826
S'fs-MILES'
p827
aS'131560'
p828
aS'132720'
p829
aasg32
S'132800'
p830
sg34
Nsg35
(lp831
g759
ag763
ag767
ag771
ag775
ag779
ag783
ag787
ag791
ag795
ag799
ag803
ag807
ag811
ag815
ag819
ag823
ag827
asg37
S'I changed the tire.  The tire is Donut tire that only last for 50 miles.'
p832
sg39
S'121520'
p833
ssI14
(dp834
g2
(lp835
(lp836
S'AND'
p837
aS'132880'
p838
aS'133120'
p839
aa(lp840
S'SAME'
p841
aS'133320'
p842
aS'133560'
p843
aa(lp844
S'UNKNOWN'
p845
aS'133640'
p846
aS'133960'
p847
aa(lp848
S'SAME'
p849
aS'134000'
p850
aS'134360'
p851
aa(lp852
S'ELEVEN'
p853
aS'134520'
p854
aS'134840'
p855
aa(lp856
S'NIGHT'
p857
aS'134920'
p858
aS'135760'
p859
aa(lp860
S'EVERYTHING'
p861
aS'136040'
p862
aS'136400'
p863
aa(lp864
S'CLOSE'
p865
aS'136520'
p866
aS'137240'
p867
aa(lp868
S'IX-1p'
p869
aS'137440'
p870
aS'137720'
p871
aa(lp872
S'part:indef'
p873
aS'137920'
p874
aS'138400'
p875
aa(lp876
S'MUST'
p877
aS'138600'
p878
aS'138720'
p879
aa(lp880
S'FIND'
p881
aS'138800'
p882
aS'139040'
p883
aa(lp884
S'PLACE'
p885
aS'139120'
p886
aS'139560'
p887
aa(lp888
S'STAY'
p889
aS'139600'
p890
aS'140000'
p891
aa(lp892
S'AND'
p893
aS'140080'
p894
aS'140280'
p895
aa(lp896
S'FIX'
p897
aS'140400'
p898
aS'141040'
p899
aa(lp900
S'TOMORROW'
p901
aS'141120'
p902
aS'141320'
p903
aa(lp904
S'MORNING'
p905
aS'141400'
p906
aS'142040'
p907
aa(lp908
S'UNKNOWN'
p909
aS'142240'
p910
aS'142320'
p911
aasg32
S'142320'
p912
sg34
Nsg35
(lp913
g837
ag841
ag845
ag849
ag853
ag857
ag861
ag865
ag869
ag873
ag877
ag881
ag885
ag889
ag893
ag897
ag901
ag905
ag909
asg37
S"And, its like 11 o'clock at night time, every place were closed.  I have to find place to stay over and have car fixed tomorrow morning."
p914
sg39
S'132800'
p915
ssI15
(dp916
g2
(lp917
(lp918
S'UNKNOWN'
p919
aS'142280'
p920
aS'142400'
p921
aa(lp922
S'THAT'
p923
aS'142480'
p924
aS'142520'
p925
aa(lp926
S'MORNING'
p927
aS'142720'
p928
aS'143120'
p929
aa(lp930
S'UNKNOWN'
p931
aS'143160'
p932
aS'143360'
p933
aa(lp934
S'DRIVE'
p935
aS'144600'
p936
aS'145400'
p937
aa(lp938
S'FIND'
p939
aS'145480'
p940
aS'145880'
p941
aa(lp942
S'ONE'
p943
aS'145920'
p944
aS'146080'
p945
aa(lp946
S'HOTEL'
p947
aS'146120'
p948
aS'148000'
p949
aa(lp950
S'#BUT'
p951
aS'148120'
p952
aS'148560'
p953
aa(lp954
S'IX-3p'
p955
aS'148640'
p956
aS'148720'
p957
aa(lp958
S'HAVE'
p959
aS'148760'
p960
aS'149080'
p961
aa(lp962
S'fs-CASINO'
p963
aS'149200'
p964
aS'150640'
p965
aa(lp966
S'SAME'
p967
aS'150720'
p968
aS'151480'
p969
aasg32
S'151600'
p970
sg34
Nsg35
(lp971
g919
ag923
ag927
ag931
ag935
ag939
ag943
ag947
ag951
ag955
ag959
ag963
ag967
asg37
S'In the morning, I drove and found one hotel but they have casino there too.'
p972
sg39
S'142280'
p973
ssI16
(dp974
g2
(lp975
(lp976
S'SAME'
p977
aS'151600'
p978
aS'151680'
p979
aa(lp980
S'IX-1p'
p981
aS'151800'
p982
aS'152920'
p983
aa(lp984
S'UNKNOWN'
p985
aS'153200'
p986
aS'153280'
p987
aa(lp988
S'part:indef'
p989
aS'153320'
p990
aS'153840'
p991
aa(lp992
S'IX-3p-pl-arc'
p993
aS'153960'
p994
aS'154200'
p995
aa(lp996
S'FRIEND'
p997
aS'154280'
p998
aS'154760'
p999
aa(lp1000
S'IX-1p'
p1001
aS'154840'
p1002
aS'155320'
p1003
aa(lp1004
S'REALLY'
p1005
aS'155960'
p1006
aS'156160'
p1007
aa(lp1008
S'POSS-1p'
p1009
aS'156240'
p1010
aS'156400'
p1011
aa(lp1012
S'FRIEND'
p1013
aS'156480'
p1014
aS'156720'
p1015
aa(lp1016
S'DRIVE'
p1017
aS'156880'
p1018
aS'157200'
p1019
aa(lp1020
S'SAME'
p1021
aS'157320'
p1022
aS'157640'
p1023
aa(lp1024
S'CL:3car following other car'
p1025
aS'157720'
p1026
aS'158520'
p1027
aa(lp1028
S'IX-1p'
p1029
aS'158920'
p1030
aS'159160'
p1031
aa(lp1032
S'part:indef'
p1033
aS'160040'
p1034
aS'160360'
p1035
aa(lp1036
S'NEED'
p1037
aS'160480'
p1038
aS'160600'
p1039
aa(lp1040
S'STAY'
p1041
aS'160800'
p1042
aS'161000'
p1043
aa(lp1044
S'HOTEL'
p1045
aS'161120'
p1046
aS'161240'
p1047
aa(lp1048
S'ONLY'
p1049
aS'161360'
p1050
aS'161440'
p1051
aa(lp1052
S'CHOICE'
p1053
aS'161640'
p1054
aS'161760'
p1055
aa(lp1056
S'IX-1p'
p1057
aS'161880'
p1058
aS'161920'
p1059
aa(lp1060
S'HAVE'
p1061
aS'161960'
p1062
aS'162400'
p1063
aasg32
S'162480'
p1064
sg34
Nsg35
(lp1065
g977
ag981
ag985
ag989
ag993
ag997
ag1001
ag1005
ag1009
ag1013
ag1017
ag1021
ag1025
ag1029
ag1033
ag1037
ag1041
ag1045
ag1049
ag1053
ag1057
ag1061
asg37
S'Three friends were driving in front of me and I waved to get their attention.  I told them that we really need to stay over the hotel since its only our choice.'
p1066
sg39
S'151600'
p1067
ssI17
(dp1068
g2
(lp1069
(lp1070
S'part:indef'
p1071
aS'162480'
p1072
aS'162520'
p1073
aa(lp1074
S'IX-3p:i'
p1075
aS'162560'
p1076
aS'162800'
p1077
aa(lp1078
S'CONTINUE'
p1079
aS'162920'
p1080
aS'163120'
p1081
aa(lp1082
S'FOR'
p1083
aS'163240'
p1084
aS'163360'
p1085
aa(lp1086
S'50'
p1087
aS'163480'
p1088
aS'163560'
p1089
aa(lp1090
S'fs-MILES'
p1091
aS'163600'
p1092
aS'164120'
p1093
aa(lp1094
S'ALREADY'
p1095
aS'164240'
p1096
aS'164440'
p1097
aa(lp1098
S'NEAR'
p1099
aS'164640'
p1100
aS'164800'
p1101
aa(lp1102
S'SOON+'
p1103
aS'164920'
p1104
aS'165280'
p1105
aa(lp1106
S'END'
p1107
aS'165360'
p1108
aS'165640'
p1109
aa(lp1110
S'#SO'
p1111
aS'165920'
p1112
aS'166080'
p1113
aa(lp1114
S'IX-1p'
p1115
aS'166160'
p1116
aS'166320'
p1117
aa(lp1118
S'CL:3cars pulling over'
p1119
aS'166600'
p1120
aS'167560'
p1121
aa(lp1122
S'STAY'
p1123
aS'167760'
p1124
aS'168040'
p1125
aa(lp1126
S'ON'
p1127
aS'168160'
p1128
aS'168280'
p1129
aa(lp1130
S'HOTEL'
p1131
aS'168560'
p1132
aS'169000'
p1133
aa(lp1134
S'GAMBLE++'
p1135
aS'169240'
p1136
aS'170640'
p1137
aa(lp1138
S'ALL-NIGHT'
p1139
aS'171120'
p1140
aS'171480'
p1141
aa(lp1142
S'WAKE-OVER'
p1143
aS'171560'
p1144
aS'173800'
p1145
aa(lp1146
S'NOT^YET'
p1147
aS'173960'
p1148
aS'174080'
p1149
aa(lp1150
S'SLEEP'
p1151
aS'174200'
p1152
aS'174600'
p1153
aa(lp1154
S'NOTHING'
p1155
aS'174720'
p1156
aS'175240'
p1157
aasg32
S'175240'
p1158
sg34
Nsg35
(lp1159
g1071
ag1075
ag1079
ag1083
ag1087
ag1091
ag1095
ag1099
ag1103
ag1107
ag1111
ag1115
ag1119
ag1123
ag1127
ag1131
ag1135
ag1139
ag1143
ag1147
ag1151
ag1155
asg37
S'Its only last for 50 miles and its already get there soon.  So we decided to pull over and stay at the hotel.  We were gambling and stay awake all night.'
p1160
sg39
S'162480'
p1161
ssI18
(dp1162
g2
(lp1163
(lp1164
S'IX-1p'
p1165
aS'175440'
p1166
aS'175600'
p1167
aa(lp1168
S'TOLERATE'
p1169
aS'175800'
p1170
aS'176440'
p1171
aa(lp1172
S'ON'
p1173
aS'176520'
p1174
aS'176680'
p1175
aa(lp1176
S'part:indef'
p1177
aS'176800'
p1178
aS'177000'
p1179
aa(lp1180
S'SIX'
p1181
aS'177080'
p1182
aS'177440'
p1183
aa(lp1184
S'SEVEN'
p1185
aS'177520'
p1186
aS'177720'
p1187
aa(lp1188
S'MORNING'
p1189
aS'177800'
p1190
aS'178200'
p1191
aa(lp1192
S'IX-1p'
p1193
aS'178280'
p1194
aS'178360'
p1195
aa(lp1196
S'HOPE'
p1197
aS'178440'
p1198
aS'178960'
p1199
aa(lp1200
S'IX-3p'
p1201
aS'179040'
p1202
aS'179160'
p1203
aa(lp1204
S'fs-GAS'
p1205
aS'179200'
p1206
aS'179400'
p1207
aa(lp1208
S'STATION'
p1209
aS'179560'
p1210
aS'179880'
p1211
aa(lp1212
S'OPEN'
p1213
aS'180040'
p1214
aS'180240'
p1215
aa(lp1216
S'#SO'
p1217
aS'180400'
p1218
aS'180560'
p1219
aa(lp1220
S'fs-FIX'
p1221
aS'180680'
p1222
aS'180960'
p1223
aa(lp1224
S'POSS-1p'
p1225
aS'181200'
p1226
aS'181280'
p1227
aa(lp1228
g56
aS'181960'
p1229
aa(lp1230
S'BEFORE'
p1231
aS'182640'
p1232
aS'182760'
p1233
aa(lp1234
S'IX-1p'
p1235
aS'182880'
p1236
aS'183040'
p1237
aa(lp1238
S'TO'
p1239
aS'184040'
p1240
aS'184240'
p1241
aa(lp1242
S'ns-BOSTON'
p1243
aS'184400'
p1244
aS'184800'
p1245
aasg32
S'185120'
p1246
sg34
Nsg35
(lp1247
g1165
ag1169
ag1173
ag1177
ag1181
ag1185
ag1189
ag1193
ag1197
ag1201
ag1205
ag1209
ag1213
ag1217
ag1221
ag1225
ag56
ag1231
ag1235
ag1239
ag1243
asg37
S'I had to put up and stay up til six or seven in the morning.  I was hoping that gas station would be open by then, so they can fix the tire before I go to Boston.'
p1248
sg39
S'175240'
p1249
ssI19
(dp1250
g2
(lp1251
(lp1252
S'NOT'
p1253
aS'186680'
p1254
aS'186760'
p1255
aa(lp1256
S'OPEN'
p1257
aS'186840'
p1258
aS'187000'
p1259
aa(lp1260
S'UNTIL'
p1261
aS'187080'
p1262
aS'187240'
p1263
aa(lp1264
g56
aS'187680'
p1265
aa(lp1266
S'MORNING'
p1267
aS'187960'
p1268
aS'188440'
p1269
aa(lp1270
S'IX-1p'
p1271
aS'188600'
p1272
aS'188720'
p1273
aa(lp1274
S'#ALL'
p1275
aS'188800'
p1276
aS'189200'
p1277
aa(lp1278
S'part:indef'
p1279
aS'189360'
p1280
aS'189720'
p1281
aa(lp1282
S'FINE'
p1283
aS'190320'
p1284
aS'190560'
p1285
aa(lp1286
S'WAIT+'
p1287
aS'190600'
p1288
aS'191400'
p1289
aa(lp1290
S'FINALLY'
p1291
aS'191480'
p1292
aS'192000'
p1293
aa(lp1294
S'OPEN'
p1295
aS'192320'
p1296
aS'193040'
p1297
aa(lp1298
S'IX-1p'
p1299
aS'193400'
p1300
aS'193600'
p1301
aa(lp1302
S'FIX'
p1303
aS'193800'
p1304
aS'194160'
p1305
aa(lp1306
g56
aS'194520'
p1307
aa(lp1308
S'UNKNOWN'
p1309
aS'194640'
p1310
aS'195520'
p1311
aasg32
S'195520'
p1312
sg34
Nsg35
(lp1313
g1253
ag1257
ag1261
ag56
ag1267
ag1271
ag1275
ag1279
ag1283
ag1287
ag1291
ag1295
ag1299
ag1303
ag56
ag1309
asg37
S"It won't open til 9 or 10 in the morning.  We re like ok fine, and waiting for a while.  Then finally, mechanic open and fix the tire."
p1314
sg39
S'185120'
p1315
ssI20
(dp1316
g2
(lp1317
(lp1318
S'PLUS'
p1319
aS'195760'
p1320
aS'195920'
p1321
aa(lp1322
S'#OIL'
p1323
aS'196040'
p1324
aS'196440'
p1325
aa(lp1326
S'CHANGE'
p1327
aS'196560'
p1328
aS'196840'
p1329
aa(lp1330
S'SAME'
p1331
aS'196960'
p1332
aS'197120'
p1333
aa(lp1334
S'TIME'
p1335
aS'197240'
p1336
aS'197560'
p1337
aa(lp1338
S'IX-1p'
p1339
aS'197680'
p1340
aS'197840'
p1341
aa(lp1342
S'FINE'
p1343
aS'197960'
p1344
aS'198280'
p1345
aa(lp1346
S'UNKNOWN'
p1347
aS'198440'
p1348
aS'198760'
p1349
aa(lp1350
S'#OIL'
p1351
aS'199600'
p1352
aS'199640'
p1353
aa(lp1354
S'CHANGE'
p1355
aS'199800'
p1356
aS'200200'
p1357
aa(lp1358
S'PERFECT'
p1359
aS'200280'
p1360
aS'200760'
p1361
aa(lp1362
S'IX-3p'
p1363
aS'200920'
p1364
aS'201080'
p1365
aa(lp1366
S'SAY'
p1367
aS'201160'
p1368
aS'201320'
p1369
aa(lp1370
S'INFORM'
p1371
aS'201600'
p1372
aS'201880'
p1373
aa(lp1374
S'BAD'
p1375
aS'202040'
p1376
aS'202200'
p1377
aa(lp1378
S'fs-NEWS'
p1379
aS'202520'
p1380
aS'202960'
p1381
aa(lp1382
S'REALLY'
p1383
aS'203800'
p1384
aS'203960'
p1385
aa(lp1386
S'ENGINE'
p1387
aS'204120'
p1388
aS'204480'
p1389
aa(lp1390
S'IX-3p'
p1391
aS'204520'
p1392
aS'204600'
p1393
aa(lp1394
S'fs-BELT'
p1395
aS'204880'
p1396
aS'205480'
p1397
aa(lp1398
S'CRACK'
p1399
aS'205800'
p1400
aS'206280'
p1401
aa(lp1402
S'HAVE'
p1403
aS'206560'
p1404
aS'206760'
p1405
aa(lp1406
S'NEW'
p1407
aS'206960'
p1408
aS'207200'
p1409
aa(lp1410
S'ONE'
p1411
aS'207320'
p1412
aS'207520'
p1413
aa(lp1414
S'IX-1p'
p1415
aS'207720'
p1416
aS'208160'
p1417
aasg32
S'208520'
p1418
sg34
Nsg35
(lp1419
g1319
ag1323
ag1327
ag1331
ag1335
ag1339
ag1343
ag1347
ag1351
ag1355
ag1359
ag1363
ag1367
ag1371
ag1375
ag1379
ag1383
ag1387
ag1391
ag1395
ag1399
ag1403
ag1407
ag1411
ag1415
asg37
S'Plus, oil changed at same time which is fine.  After oil changed, it seem perfect til he said there is a bad news, in engine, the belt has crack.  It need to be replace new one.'
p1420
sg39
S'195480'
p1421
ssI21
(dp1422
g2
(lp1423
(lp1424
S'IX-1p'
p1425
aS'208520'
p1426
aS'208880'
p1427
aa(lp1428
S'STAY'
p1429
aS'209080'
p1430
aS'209160'
p1431
aa(lp1432
S'FOR'
p1433
aS'209320'
p1434
aS'209440'
p1435
aa(lp1436
S'OTHER'
p1437
aS'209520'
p1438
aS'209880'
p1439
aa(lp1440
S'THREE'
p1441
aS'210000'
p1442
aS'210120'
p1443
aa(lp1444
S'HOUR'
p1445
aS'210240'
p1446
aS'211640'
p1447
aa(lp1448
S'WHEN'
p1449
aS'211760'
p1450
aS'211920'
p1451
aa(lp1452
S'fs-FIX'
p1453
aS'212040'
p1454
aS'212440'
p1455
aa(lp1456
S'IX-3p'
p1457
aS'212560'
p1458
aS'212680'
p1459
aa(lp1460
S'ENGINE'
p1461
aS'212880'
p1462
aS'213120'
p1463
aa(lp1464
S'fs-BELT'
p1465
aS'213320'
p1466
aS'213800'
p1467
aa(lp1468
S'CL:1circle shape'
p1469
aS'214080'
p1470
aS'214520'
p1471
aa(lp1472
S'PLUS'
p1473
aS'214920'
p1474
aS'215040'
p1475
aa(lp1476
g56
aS'215600'
p1477
aa(lp1478
S'PLUS'
p1479
aS'215760'
p1480
aS'215840'
p1481
aa(lp1482
S'#OIL'
p1483
aS'216000'
p1484
aS'216240'
p1485
aa(lp1486
S'CHANGE'
p1487
aS'216440'
p1488
aS'216760'
p1489
aa(lp1490
S'IX-3p-arc'
p1491
aS'216960'
p1492
aS'217000'
p1493
aa(lp1494
S'WAIT+'
p1495
aS'217360'
p1496
aS'218160'
p1497
aa(lp1498
S'ALL-DAY'
p1499
aS'218400'
p1500
aS'219000'
p1501
aa(lp1502
S'FINALLY'
p1503
aS'219160'
p1504
aS'219400'
p1505
aa(lp1506
S'LEAVE'
p1507
aS'219640'
p1508
aS'220000'
p1509
aa(lp1510
S'ns-NEV'
p1511
aS'220480'
p1512
aS'221080'
p1513
aa(lp1514
S'ON'
p1515
aS'221160'
p1516
aS'221280'
p1517
aasg32
S'222480'
p1518
sg34
Nsg35
(lp1519
g1425
ag1429
ag1433
ag1437
ag1441
ag1445
ag1449
ag1453
ag1457
ag1461
ag1465
ag1469
ag1473
ag56
ag1479
ag1483
ag1487
ag1491
ag1495
ag1499
ag1503
ag1507
ag1511
ag1515
asg37
S'We stayed for another three hours while they were fixing belt in the engine, tire and plus oil changing.  I waited all day and finally left Nev. at 12.'
p1520
sg39
S'208520'
p1521
ssI22
(dp1522
g2
(lp1523
(lp1524
S'TWELVE'
p1525
aS'222480'
p1526
aS'222520'
p1527
aa(lp1528
g56
aS'222560'
p1529
aa(lp1530
S'IN'
p1531
aS'222640'
p1532
aS'222840'
p1533
aa(lp1534
S'fs-UTAH'
p1535
aS'222920'
p1536
aS'223640'
p1537
aa(lp1538
S'IX-3p-arc'
p1539
aS'223880'
p1540
aS'224120'
p1541
aa(lp1542
S'part:indef'
p1543
aS'224280'
p1544
aS'224760'
p1545
aa(lp1546
S'ALREADY'
p1547
aS'224880'
p1548
aS'225040'
p1549
aa(lp1550
S'EXHAUST'
p1551
aS'225120'
p1552
aS'225600'
p1553
aa(lp1554
S'NOT^YET'
p1555
aS'225680'
p1556
aS'225800'
p1557
aa(lp1558
S'SLEEP'
p1559
aS'225920'
p1560
aS'226400'
p1561
aa(lp1562
S'part:indef'
p1563
aS'226600'
p1564
aS'226960'
p1565
aa(lp1566
S'WAKE-ALL-NIGHT'
p1567
aS'227200'
p1568
aS'228120'
p1569
aa(lp1570
S'GAMBLE++'
p1571
aS'228240'
p1572
aS'228880'
p1573
aa(lp1574
S'AT'
p1575
aS'229040'
p1576
aS'229120'
p1577
aa(lp1578
S'fs-CASINO'
p1579
aS'229760'
p1580
aS'230400'
p1581
aa(lp1582
S'IN'
p1583
aS'230440'
p1584
aS'230600'
p1585
aa(lp1586
S'ns-NEV'
p1587
aS'230760'
p1588
aS'231200'
p1589
aa(lp1590
S'IX-1p'
p1591
aS'231480'
p1592
aS'231720'
p1593
aa(lp1594
S'part:indef'
p1595
aS'231880'
p1596
aS'232080'
p1597
aasg32
S'232080'
p1598
sg34
Nsg35
(lp1599
g1525
ag56
ag1531
ag1535
ag1539
ag1543
ag1547
ag1551
ag1555
ag1559
ag1563
ag1567
ag1571
ag1575
ag1579
ag1583
ag1587
ag1591
ag1595
asg37
S"In Utah, I already get exhausted because I haven't sleep yet.  I was stay awake all night to play gamble at Casino in NEV."
p1600
sg39
S'222480'
p1601
ssI23
(dp1602
g2
(lp1603
(lp1604
S'part:indef'
p1605
aS'232080'
p1606
aS'232160'
p1607
aa(lp1608
S'IX-1p'
p1609
aS'232520'
p1610
aS'232760'
p1611
aa(lp1612
S'DECIDE'
p1613
aS'232880'
p1614
aS'233520'
p1615
aa(lp1616
S'GO-AHEAD'
p1617
aS'233640'
p1618
aS'234040'
p1619
aa(lp1620
S'UNKNOWN'
p1621
aS'234160'
p1622
aS'234600'
p1623
aa(lp1624
S'DRIVE'
p1625
aS'234760'
p1626
aS'235680'
p1627
aa(lp1628
g56
aS'235880'
p1629
aa(lp1630
S'ARRIVE'
p1631
aS'236200'
p1632
aS'236440'
p1633
aa(lp1634
S'ns-COLORADO'
p1635
aS'236600'
p1636
aS'237640'
p1637
aa(lp1638
S'REALLY'
p1639
aS'237760'
p1640
aS'237920'
p1641
aa(lp1642
S'STAY'
p1643
aS'238000'
p1644
aS'238160'
p1645
aa(lp1646
S'SOON'
p1647
aS'238240'
p1648
aS'238480'
p1649
aa(lp1650
S'fs-TO'
p1651
aS'238720'
p1652
aS'238880'
p1653
aa(lp1654
S'OVER-NIGHT'
p1655
aS'239000'
p1656
aS'239840'
p1657
aa(lp1658
S'WAKE-UP'
p1659
aS'240600'
p1660
aS'240920'
p1661
aa(lp1662
S'fs-LATE'
p1663
aS'241040'
p1664
aS'241680'
p1665
aa(lp1666
S'WHY'
p1667
aS'241800'
p1668
aS'242080'
p1669
aa(lp1670
S'GRAB'
p1671
aS'242320'
p1672
aS'242520'
p1673
aa(lp1674
S'MISS'
p1675
aS'242600'
p1676
aS'242960'
p1677
aa(lp1678
S'SLEEP'
p1679
aS'243120'
p1680
aS'243320'
p1681
aa(lp1682
S'BEFORE'
p1683
aS'243400'
p1684
aS'243760'
p1685
aa(lp1686
S'NIGHT'
p1687
aS'243840'
p1688
aS'244240'
p1689
aasg32
S'244400'
p1690
sg34
Nsg35
(lp1691
g1605
ag1609
ag1613
ag1617
ag1621
ag1625
ag56
ag1631
ag1635
ag1639
ag1643
ag1647
ag1651
ag1655
ag1659
ag1663
ag1667
ag1671
ag1675
ag1679
ag1683
ag1687
asg37
S'I decided to continue driving and arrived Colorado.  I really want to stay overnight soon, because I was awake late so why not grab some sleep that I missed the night before.'
p1692
sg39
S'232080'
p1693
ssI24
(dp1694
g2
(lp1695
(lp1696
S'IX-1p'
p1697
aS'244520'
p1698
aS'244600'
p1699
aa(lp1700
S'WAKE-UP'
p1701
aS'244800'
p1702
aS'245120'
p1703
aa(lp1704
S'part:indef'
p1705
aS'245400'
p1706
aS'245600'
p1707
aa(lp1708
S'REALIZE'
p1709
aS'245640'
p1710
aS'246240'
p1711
aa(lp1712
S'IX-1p'
p1713
aS'246400'
p1714
aS'246560'
p1715
aa(lp1716
S'DRIVE'
p1717
aS'246640'
p1718
aS'247200'
p1719
aa(lp1720
S'TO'
p1721
aS'247480'
p1722
aS'247640'
p1723
aa(lp1724
S'ns-BOSTON'
p1725
aS'247720'
p1726
aS'247880'
p1727
aa(lp1728
S'FROM'
p1729
aS'247960'
p1730
aS'248160'
p1731
aa(lp1732
S'ns-LA'
p1733
aS'248200'
p1734
aS'248480'
p1735
aa(lp1736
S'IN'
p1737
aS'248600'
p1738
aS'248680'
p1739
aa(lp1740
S'FOUR-DAY'
p1741
aS'248720'
p1742
aS'249520'
p1743
aa(lp1744
S'REALLY'
p1745
aS'250040'
p1746
aS'250200'
p1747
aa(lp1748
S'IX-1p'
p1749
aS'250280'
p1750
aS'250360'
p1751
aa(lp1752
S'applause'
p1753
aS'250480'
p1754
aS'251080'
p1755
aa(lp1756
S'ANYONE'
p1757
aS'251360'
p1758
aS'251560'
p1759
aa(lp1760
S'WHO'
p1761
aS'251680'
p1762
aS'251760'
p1763
aa(lp1764
S'DRIVE'
p1765
aS'252000'
p1766
aS'252280'
p1767
aa(lp1768
S'TO'
p1769
aS'252840'
p1770
aS'252960'
p1771
aa(lp1772
S'ns-BOSTON'
p1773
aS'253080'
p1774
aS'253640'
p1775
aasg32
S'254034'
p1776
sg34
Nsg35
(lp1777
g1697
ag1701
ag1705
ag1709
ag1713
ag1717
ag1721
ag1725
ag1729
ag1733
ag1737
ag1741
ag1745
ag1749
ag1753
ag1757
ag1761
ag1765
ag1769
ag1773
asg37
S'I woke up and realized that I drive to Boston from LA in four days is impossible.  Really, I am proud of anyone who drove from LA to Boston.'
p1778
sg39
S'244440'
p1779
ssI25
(dp1780
g2
(lp1781
(lp1782
S'IN'
p1783
aS'254120'
p1784
aS'254200'
p1785
aa(lp1786
S'FOUR-DAY'
p1787
aS'254280'
p1788
aS'254960'
p1789
aa(lp1790
S'REALLY'
p1791
aS'255000'
p1792
aS'255280'
p1793
aa(lp1794
S'AWFUL'
p1795
aS'255640'
p1796
aS'255920'
p1797
aa(lp1798
S'MUST'
p1799
aS'256000'
p1800
aS'256200'
p1801
aa(lp1802
S'DRIVE'
p1803
aS'256280'
p1804
aS'256600'
p1805
aa(lp1806
S'FIFTEEN'
p1807
aS'256720'
p1808
aS'256800'
p1809
aa(lp1810
S'part:indef'
p1811
aS'256920'
p1812
aS'257240'
p1813
aa(lp1814
S'FIFTEEN'
p1815
aS'257360'
p1816
aS'257600'
p1817
aa(lp1818
S'fs-HOURS'
p1819
aS'257720'
p1820
aS'258200'
p1821
aa(lp1822
S'fs-A'
p1823
aS'258320'
p1824
aS'258440'
p1825
aa(lp1826
S'fs-DAY'
p1827
aS'258520'
p1828
aS'259040'
p1829
aa(lp1830
S'ARRIVE'
p1831
aS'259560'
p1832
aS'260080'
p1833
aa(lp1834
S'FOR'
p1835
aS'260160'
p1836
aS'260400'
p1837
aa(lp1838
S'SURE'
p1839
aS'260480'
p1840
aS'260600'
p1841
aa(lp1842
S'RIGHT'
p1843
aS'260800'
p1844
aS'261040'
p1845
aa(lp1846
S'fs-PACE'
p1847
aS'261280'
p1848
aS'261680'
p1849
aa(lp1850
S'PROCESS++'
p1851
aS'261840'
p1852
aS'262800'
p1853
aa(lp1854
S'UNKNOWN'
p1855
aS'263000'
p1856
aS'263120'
p1857
aasg32
S'263307'
p1858
sg34
Nsg35
(lp1859
g1783
ag1787
ag1791
ag1795
ag1799
ag1803
ag1807
ag1811
ag1815
ag1819
ag1823
ag1827
ag1831
ag1835
ag1839
ag1843
ag1847
ag1851
ag1855
asg37
S'In four days to drive would take fifteen hours a day in right pace to arrive on time.'
p1860
sg39
S'254034'
p1861
ssI26
(dp1862
g2
(lp1863
(lp1864
S'part:indef'
p1865
aS'264120'
p1866
aS'264520'
p1867
aa(lp1868
S'IX-1p'
p1869
aS'264720'
p1870
aS'264960'
p1871
aa(lp1872
S'DRIVE'
p1873
aS'265160'
p1874
aS'265200'
p1875
aa(lp1876
S'THROUGH'
p1877
aS'265400'
p1878
aS'265800'
p1879
aa(lp1880
S'fs-WYMOING'
p1881
aS'265960'
p1882
aS'266840'
p1883
aa(lp1884
S'IX-1p'
p1885
aS'267120'
p1886
aS'267280'
p1887
aa(lp1888
S'THROUGH'
p1889
aS'267400'
p1890
aS'267680'
p1891
aa(lp1892
S'ns-NEB'
p1893
aS'267760'
p1894
aS'268520'
p1895
aa(lp1896
S'CL:Bacross the land'
p1897
aS'268760'
p1898
aS'269840'
p1899
aa(lp1900
S'part:indef'
p1901
aS'269960'
p1902
aS'270360'
p1903
aa(lp1904
S'REALLY'
p1905
aS'270520'
p1906
aS'270800'
p1907
aa(lp1908
S'BORE'
p1909
aS'271000'
p1910
aS'271280'
p1911
aa(lp1912
S'STATE'
p1913
aS'271560'
p1914
aS'271960'
p1915
aa(lp1916
S'CL:BENT-B-land flat'
p1917
aS'272240'
p1918
aS'272640'
p1919
aa(lp1920
S'COW'
p1921
aS'273120'
p1922
aS'273800'
p1923
aa(lp1924
S'UNKNOWN'
p1925
aS'274000'
p1926
aS'274160'
p1927
aasg32
S'274240'
p1928
sg34
Nsg35
(lp1929
g1865
ag1869
ag1873
ag1877
ag1881
ag1885
ag1889
ag1893
ag1897
ag1901
ag1905
ag1909
ag1913
ag1917
ag1921
ag1925
asg37
S'I drove through Wymoing and I went across the boring state of Neb.  There was plain, full of cows and etc.'
p1930
sg39
S'263307'
p1931
ssI27
(dp1932
g2
(lp1933
(lp1934
S'IX-1p'
p1935
aS'274280'
p1936
aS'274360'
p1937
aa(lp1938
S'REALLY'
p1939
aS'274440'
p1940
aS'274560'
p1941
aa(lp1942
S'IX-1p'
p1943
aS'274680'
p1944
aS'274840'
p1945
aa(lp1946
S'IN'
p1947
aS'274920'
p1948
aS'275040'
p1949
aa(lp1950
S'fs-WYOMING'
p1951
aS'275120'
p1952
aS'275920'
p1953
aa(lp1954
S'IX-1p'
p1955
aS'276000'
p1956
aS'276160'
p1957
aa(lp1958
S'THINK'
p1959
aS'276320'
p1960
aS'276560'
p1961
aa(lp1962
S'POP-UP'
p1963
aS'276640'
p1964
aS'276880'
p1965
aa(lp1966
S'IX-3p'
p1967
aS'277240'
p1968
aS'277360'
p1969
aa(lp1970
S'REALLY'
p1971
aS'277440'
p1972
aS'277640'
p1973
aa(lp1974
S'ONE'
p1975
aS'277720'
p1976
aS'278200'
p1977
aa(lp1978
S'PLACE'
p1979
aS'278320'
p1980
aS'278680'
p1981
aa(lp1982
S'IX-3p:j'
p1983
aS'278800'
p1984
aS'278960'
p1985
aa(lp1986
S'TEN'
p1987
aS'279160'
p1988
aS'279400'
p1989
aa(lp1990
S'THOUSAND'
p1991
aS'279520'
p1992
aS'279720'
p1993
aa(lp1994
S'COW'
p1995
aS'279960'
p1996
aS'280280'
p1997
aa(lp1998
S'IN'
p1999
aS'280640'
p2000
aS'280880'
p2001
aa(lp2002
S'GATE'
p2003
aS'281200'
p2004
aS'281680'
p2005
aa(lp2006
S'SMALL'
p2007
aS'281920'
p2008
aS'282160'
p2009
aa(lp2010
S'CL:5round fence'
p2011
aS'282320'
p2012
aS'283680'
p2013
aasg32
S'283880'
p2014
sg34
Nsg35
(lp2015
g1935
ag1939
ag1943
ag1947
ag1951
ag1955
ag1959
ag1963
ag1967
ag1971
ag1975
ag1979
ag1983
ag1987
ag1991
ag1995
ag1999
ag2003
ag2007
ag2011
asg37
S'I tell you, when I was in Wymong, I just thought of something, theres a place with maybe up to ten thousands cows in the gate.  It is like small jail around by them.'
p2016
sg39
S'274240'
p2017
ssI28
(dp2018
g2
(lp2019
(lp2020
S'IX-1p'
p2021
aS'284040'
p2022
aS'284080'
p2023
aa(lp2024
g56
aS'285240'
p2025
aa(lp2026
S'REALLY'
p2027
aS'285360'
p2028
aS'285480'
p2029
aa(lp2030
S'SAD'
p2031
aS'285640'
p2032
aS'285680'
p2033
aa(lp2034
S'COW'
p2035
aS'285840'
p2036
aS'286040'
p2037
aa(lp2038
S'CAN^NOT'
p2039
aS'286080'
p2040
aS'286280'
p2041
aa(lp2042
S'MOVE'
p2043
aS'286400'
p2044
aS'287080'
p2045
aa(lp2046
S'REALLY'
p2047
aS'287520'
p2048
aS'287600'
p2049
aa(lp2050
S'SEE'
p2051
aS'287760'
p2052
aS'287920'
p2053
aa(lp2054
S'wow'
p2055
aS'287960'
p2056
aS'289080'
p2057
aa(lp2058
S'AWFUL'
p2059
aS'289320'
p2060
aS'289720'
p2061
aa(lp2062
S'CL:3car moving'
p2063
aS'290080'
p2064
aS'291040'
p2065
aa(lp2066
S'REALLY'
p2067
aS'291120'
p2068
aS'291280'
p2069
aa(lp2070
S'END'
p2071
aS'291600'
p2072
aS'292000'
p2073
aa(lp2074
S'OF'
p2075
aS'292080'
p2076
aS'292280'
p2077
aa(lp2078
S'THAT'
p2079
aS'292440'
p2080
aS'292640'
p2081
aa(lp2082
S'GATE'
p2083
aS'292760'
p2084
aS'293080'
p2085
aa(lp2086
S'AROUND'
p2087
aS'293120'
p2088
aS'293600'
p2089
aa(lp2090
S'IX-3p'
p2091
aS'294000'
p2092
aS'294320'
p2093
aa(lp2094
S'HAVE'
p2095
aS'294440'
p2096
aS'294600'
p2097
aa(lp2098
S'fs-BUTCHER-SHOP'
p2099
aS'294800'
p2100
aS'296560'
p2101
aa(lp2102
S'REALLY'
p2103
aS'297560'
p2104
aS'297680'
p2105
aa(lp2106
S'CUT'
p2107
aS'297840'
p2108
aS'298360'
p2109
aa(lp2110
S'SHOW'
p2111
aS'298720'
p2112
aS'299000'
p2113
aa(lp2114
S'DEAD'
p2115
aS'299280'
p2116
aS'299400'
p2117
aa(lp2118
S'COW'
p2119
aS'299640'
p2120
aS'299880'
p2121
aa(lp2122
S'HANG'
p2123
aS'300080'
p2124
aS'300920'
p2125
aasg32
S'301840'
p2126
sg34
Nsg35
(lp2127
g2021
ag56
ag2027
ag2031
ag2035
ag2039
ag2043
ag2047
ag2051
ag2055
ag2059
ag2063
ag2067
ag2071
ag2075
ag2079
ag2083
ag2087
ag2091
ag2095
ag2099
ag2103
ag2107
ag2111
ag2115
ag2119
ag2123
asg37
S'I looked at cows while I was driving and I feel sad for them because they couldnt even move.  In end of the gate, I saw butcher shop where will cut cow off and dead cows hanging near by.'
p2128
sg39
S'283880'
p2129
ssI29
(dp2130
g2
(lp2131
(lp2132
S'THAT'
p2133
aS'302040'
p2134
aS'302280'
p2135
aa(lp2136
S'fs-WYOMING'
p2137
aS'302360'
p2138
aS'303360'
p2139
aa(lp2140
S'MAYBE'
p2141
aS'303440'
p2142
aS'303720'
p2143
aa(lp2144
S'THAT'
p2145
aS'303800'
p2146
aS'303920'
p2147
aa(lp2148
S'WHERE'
p2149
aS'304000'
p2150
aS'304240'
p2151
aa(lp2152
S'IX-3p-arc'
p2153
aS'304320'
p2154
aS'304520'
p2155
aa(lp2156
S'GET'
p2157
aS'304560'
p2158
aS'304720'
p2159
aa(lp2160
S'IX-3p-arc'
p2161
aS'304800'
p2162
aS'305080'
p2163
aa(lp2164
S'MEAT'
p2165
aS'305160'
p2166
aS'305480'
p2167
aa(lp2168
S'FROM'
p2169
aS'305640'
p2170
aS'306080'
p2171
aa(lp2172
S'IX-3p'
p2173
aS'306120'
p2174
aS'306480'
p2175
aa(lp2176
S'part:indef'
p2177
aS'306520'
p2178
aS'307000'
p2179
aa(lp2180
S'GOOD'
p2181
aS'307440'
p2182
aS'307640'
p2183
aa(lp2184
S'MEAT'
p2185
aS'307720'
p2186
aS'307960'
p2187
aa(lp2188
S'SAME'
p2189
aS'308040'
p2190
aS'308240'
p2191
aa(lp2192
S'IX-1p'
p2193
aS'308400'
p2194
aS'308480'
p2195
aa(lp2196
S'EAT'
p2197
aS'308560'
p2198
aS'308720'
p2199
aa(lp2200
S'MEAT'
p2201
aS'308840'
p2202
aS'309040'
p2203
aa(lp2204
S'IN'
p2205
aS'309240'
p2206
aS'309280'
p2207
aa(lp2208
S'fs-WYOMING'
p2209
aS'309320'
p2210
aS'310160'
p2211
aa(lp2212
S'#SO'
p2213
aS'310560'
p2214
aS'310680'
p2215
aa(lp2216
S'part:indef'
p2217
aS'310800'
p2218
aS'311160'
p2219
aasg32
S'311160'
p2220
sg34
Nsg35
(lp2221
g2133
ag2137
ag2141
ag2145
ag2149
ag2153
ag2157
ag2161
ag2165
ag2169
ag2173
ag2177
ag2181
ag2185
ag2189
ag2193
ag2197
ag2201
ag2205
ag2209
ag2213
ag2217
asg37
S'Thats Wymoning.  Maybe that is where we got our meat from.  Its good meat by the way because I ate one there.'
p2222
sg39
S'301840'
p2223
ssI30
(dp2224
g2
(lp2225
(lp2226
S'IX-1p'
p2227
aS'311320'
p2228
aS'311440'
p2229
aa(lp2230
S'DRIVE'
p2231
aS'311560'
p2232
aS'311760'
p2233
aa(lp2234
S'REALLY'
p2235
aS'312760'
p2236
aS'312960'
p2237
aa(lp2238
S'VERY'
p2239
aS'313040'
p2240
aS'313400'
p2241
aa(lp2242
S'PLAIN'
p2243
aS'313480'
p2244
aS'314200'
p2245
aa(lp2246
S'ALL-THE-WAY'
p2247
aS'314280'
p2248
aS'314720'
p2249
aa(lp2250
S'THROUGH'
p2251
aS'314800'
p2252
aS'315160'
p2253
aa(lp2254
S'fs-IOWA'
p2255
aS'315240'
p2256
aS'316000'
p2257
aa(lp2258
S'fs-OHIO'
p2259
aS'316400'
p2260
aS'316960'
p2261
aa(lp2262
S'fs-ILL'
p2263
aS'317280'
p2264
aS'318040'
p2265
aa(lp2266
S'CL:Bacross the land'
p2267
aS'319120'
p2268
aS'319280'
p2269
aa(lp2270
S'ns-NEW-YORK'
p2271
aS'319320'
p2272
aS'320000'
p2273
aa(lp2274
S'FINALLY'
p2275
aS'320160'
p2276
aS'320400'
p2277
aa(lp2278
S'ARRIVE'
p2279
aS'320520'
p2280
aS'320760'
p2281
aa(lp2282
S'ns-BOSTON'
p2283
aS'320920'
p2284
aS'321520'
p2285
aasg32
S'321560'
p2286
sg34
Nsg35
(lp2287
g2227
ag2231
ag2235
ag2239
ag2243
ag2247
ag2251
ag2255
ag2259
ag2263
ag2267
ag2271
ag2275
ag2279
ag2283
asg37
S'I drove across the country.  There was plain all the way through Iowa, Ohio, Ill and across New York.  I finally arrived Boston.'
p2288
sg39
S'311120'
p2289
ssI31
(dp2290
g2
(lp2291
(lp2292
S'REALLY'
p2293
aS'322000'
p2294
aS'322120'
p2295
aa(lp2296
S'AFTER'
p2297
aS'322200'
p2298
aS'322640'
p2299
aa(lp2300
S'TOTAL'
p2301
aS'322720'
p2302
aS'323200'
p2303
aa(lp2304
S'TRIP'
p2305
aS'323280'
p2306
aS'324080'
p2307
aa(lp2308
S'YES'
p2309
aS'326200'
p2310
aS'326480'
p2311
aa(lp2312
S'TRIP'
p2313
aS'326600'
p2314
aS'327320'
p2315
aa(lp2316
S'SIX-DAY'
p2317
aS'327400'
p2318
aS'327960'
p2319
aa(lp2320
g56
aS'328520'
p2321
aa(lp2322
S'TOTAL'
p2323
aS'328640'
p2324
aS'329200'
p2325
aasg32
S'329240'
p2326
sg34
Nsg35
(lp2327
g2293
ag2297
ag2301
ag2305
ag2309
ag2313
ag2317
ag56
ag2323
asg37
S'After my trip, it was six days total.'
p2328
sg39
S'321560'
p2329
ssI32
(dp2330
g2
(lp2331
(lp2332
S'REALLY'
p2333
aS'329320'
p2334
aS'329560'
p2335
aa(lp2336
S'ENJOY++'
p2337
aS'329640'
p2338
aS'330560'
p2339
aa(lp2340
S'GOOD'
p2341
aS'330640'
p2342
aS'330880'
p2343
aa(lp2344
S'TIME'
p2345
aS'330960'
p2346
aS'331400'
p2347
aa(lp2348
S'fs-FUN'
p2349
aS'331480'
p2350
aS'332080'
p2351
aa(lp2352
S'UNKNOWN'
p2353
aS'332240'
p2354
aS'333000'
p2355
aa(lp2356
S'IX-1p'
p2357
aS'333240'
p2358
aS'333400'
p2359
aa(lp2360
S'SUGGEST'
p2361
aS'333440'
p2362
aS'333800'
p2363
aa(lp2364
S'ANYONE'
p2365
aS'333840'
p2366
aS'334160'
p2367
aa(lp2368
S'WHO'
p2369
aS'334200'
p2370
aS'334360'
p2371
aa(lp2372
S'WANT'
p2373
aS'334400'
p2374
aS'334720'
p2375
aa(lp2376
S'DRIVE'
p2377
aS'334800'
p2378
aS'335040'
p2379
aa(lp2380
S'OVER'
p2381
aS'335080'
p2382
aS'335320'
p2383
aa(lp2384
S'COUNTRY'
p2385
aS'335360'
p2386
aS'336040'
p2387
aa(lp2388
S'ASK'
p2389
aS'336360'
p2390
aS'336680'
p2391
aa(lp2392
S'IX-1p'
p2393
aS'336800'
p2394
aS'336920'
p2395
aa(lp2396
S'FOR'
p2397
aS'336960'
p2398
aS'337120'
p2399
aa(lp2400
S'ADVICE+'
p2401
aS'337240'
p2402
aS'337840'
p2403
aasg32
S'337840'
p2404
sg34
Nsg35
(lp2405
g2333
ag2337
ag2341
ag2345
ag2349
ag2353
ag2357
ag2361
ag2365
ag2369
ag2373
ag2377
ag2381
ag2385
ag2389
ag2393
ag2397
ag2401
asg37
S'I really enjoy and had good time.  It was a lot of fun and I suggest anyone who want to drive across the country, ask me for advices.'
p2406
sg39
S'329240'
p2407
ssI33
(dp2408
g2
(lp2409
(lp2410
S'AND'
p2411
aS'337920'
p2412
aS'338040'
p2413
aa(lp2414
S'MAKE'
p2415
aS'338120'
p2416
aS'338200'
p2417
aa(lp2418
S'SURE'
p2419
aS'338280'
p2420
aS'338480'
p2421
aa(lp2422
S'IX-2p'
p2423
aS'338520'
p2424
aS'338560'
p2425
aa(lp2426
S'HAVE'
p2427
aS'338640'
p2428
aS'338840'
p2429
aa(lp2430
S'EVERYTHING'
p2431
aS'338960'
p2432
aS'339200'
p2433
aa(lp2434
S'READY'
p2435
aS'339320'
p2436
aS'339880'
p2437
aa(lp2438
S'MAKE'
p2439
aS'339960'
p2440
aS'340120'
p2441
aa(lp2442
S'SURE'
p2443
aS'340200'
p2444
aS'340520'
p2445
aa(lp2446
S'POSS-3p'
p2447
aS'340600'
p2448
aS'340760'
p2449
aa(lp2450
S'#CAR'
p2451
aS'340800'
p2452
aS'341040'
p2453
aa(lp2454
S'PERFECT'
p2455
aS'341160'
p2456
aS'341240'
p2457
aa(lp2458
S'WORK-OUT'
p2459
aS'341280'
p2460
aS'341720'
p2461
aa(lp2462
S'PAST'
p2463
aS'341800'
p2464
aS'341960'
p2465
aa(lp2466
S'GO'
p2467
aS'342040'
p2468
aS'342400'
p2469
aa(lp2470
S'SAME'
p2471
aS'342480'
p2472
aS'342600'
p2473
aa(lp2474
S'IX-1p'
p2475
aS'342720'
p2476
aS'342880'
p2477
aa(lp2478
S'NOT'
p2479
aS'342920'
p2480
aS'342960'
p2481
aa(lp2482
S'DO'
p2483
aS'343040'
p2484
aS'343160'
p2485
aa(lp2486
S'PAST'
p2487
aS'343320'
p2488
aS'343640'
p2489
aasg32
S'344662'
p2490
sg34
Nsg35
(lp2491
g2411
ag2415
ag2419
ag2423
ag2427
ag2431
ag2435
ag2439
ag2443
ag2447
ag2451
ag2455
ag2459
ag2463
ag2467
ag2471
ag2475
ag2479
ag2483
ag2487
asg37
S'And, make sure you have everything ready.  Also, make sure your car is ready before you leave for trip unlike me.'
p2492
sg39
S'337800'
p2493
ss.