(dp0
I0
(dp1
S'Annotated'
p2
(lp3
(lp4
S'SUNSET'
p5
aS'1440'
p6
aS'3600'
p7
aa(lp8
S'LIGHTING'
p9
aS'3880'
p10
aS'4560'
p11
aa(lp12
S'RAIN++'
p13
aS'4720'
p14
aS'5880'
p15
aasS'EndFrame'
p16
S'5880'
p17
sS'Video'
p18
NsS'Words'
p19
(lp20
g5
ag9
ag13
asS'English'
p21
S'There is a sunset.  It start to rain and lighting.'
p22
sS'StartFrame'
p23
S'1040'
p24
ssI1
(dp25
g2
(lp26
(lp27
S'CL:5walking by the tree'
p28
aS'8280'
p29
aS'9520'
p30
aa(lp31
S'CL:5walking by the tree'
p32
aS'11280'
p33
aS'12000'
p34
aa(lp35
S'CL:5walking by the tree'
p36
aS'13120'
p37
aS'13400'
p38
aa(lp39
S'BCL:Sperson walking'
p40
aS'14240'
p41
aS'17960'
p42
aasg16
S'17960'
p43
sg18
Nsg19
(lp44
g28
ag32
ag36
ag40
asg21
S'Walking through the forest.'
p45
sg23
S'5920'
p46
ssI2
(dp47
g2
(lp48
(lp49
S'CL:5walking by the tree'
p50
aS'29120'
p51
aS'29480'
p52
aa(lp53
S'CL:5walking by the tree'
p54
aS'30400'
p55
aS'30840'
p56
aa(lp57
S'CL:5walking by the tree'
p58
aS'31320'
p59
aS'31480'
p60
aa(lp61
S'LIGHTING'
p62
aS'31600'
p63
aS'31960'
p64
aa(lp65
S'RAIN++'
p66
aS'32280'
p67
aS'32720'
p68
aa(lp69
S'LIGHTING'
p70
aS'32960'
p71
aS'33600'
p72
aa(lp73
S'(2h)CL:5walking by the forest'
p74
aS'33760'
p75
aS'34720'
p76
aasg16
S'35120'
p77
sg18
Nsg19
(lp78
g50
ag54
ag58
ag62
ag66
ag70
ag74
asg21
S'Start to raining and lighting while person was walking through the forest.'
p79
sg23
S'27920'
p80
ssI3
(dp81
g2
(lp82
(lp83
S"BCL:tapping someone's shoulder"
p84
aS'36160'
p85
aS'36840'
p86
aa(lp87
S"BCL:tapping person's shoulder"
p88
aS'37960'
p89
aS'38600'
p90
aa(lp91
S'BCL:looking back'
p92
aS'39160'
p93
aS'40200'
p94
aasg16
S'40360'
p95
sg18
Nsg19
(lp96
g84
ag88
ag92
asg21
S"Person tapped other person's shoulder and person looked back."
p97
sg23
S'35160'
p98
ssI4
(dp99
g2
(lp100
(lp101
S"ICL:grabbing someone's heart"
p102
aS'40880'
p103
aS'41320'
p104
aa(lp105
S'ICL:pulling heart out of the body'
p106
aS'41840'
p107
aS'42800'
p108
aa(lp109
S'punct'
p110
aS'45880'
p111
aasg16
S'45880'
p112
sg18
Nsg19
(lp113
g102
ag106
ag110
asg21
S"A person grabbed other person's heart and then pick person up."
p114
sg23
S'40400'
p115
ssI5
(dp116
g2
(lp117
(lp118
S'ICL:heart beating in the hand'
p119
aS'45920'
p120
aS'48440'
p121
aa(lp122
g110
aS'50560'
p123
aasg16
S'50640'
p124
sg18
Nsg19
(lp125
g119
ag110
asg21
S'A person was holding heart while carrying dead person.'
p126
sg23
S'45920'
p127
ssI6
(dp128
g2
(lp129
(lp130
S'CL:5walking by the tree'
p131
aS'51800'
p132
aS'52520'
p133
aa(lp134
S'CL:5walking by the tree'
p135
aS'53240'
p136
aS'53600'
p137
aa(lp138
S'LIGHTING'
p139
aS'54160'
p140
aS'54440'
p141
aa(lp142
S'RAIN++'
p143
aS'54720'
p144
aS'55240'
p145
aa(lp146
S'CL:5walking by the tree'
p147
aS'55440'
p148
aS'55720'
p149
aasg16
S'55840'
p150
sg18
Nsg19
(lp151
g131
ag135
ag139
ag143
ag147
asg21
S'Walking through the forest while raining and lighting.'
p152
sg23
S'50680'
p153
ssI7
(dp154
g2
(lp155
(lp156
S'ICL:heart beating in the hand'
p157
aS'55960'
p158
aS'58800'
p159
aa(lp160
S'CL:eating heart'
p161
aS'59480'
p162
aS'60800'
p163
aa(lp164
S'ICL:throwing heart away'
p165
aS'61440'
p166
aS'62000'
p167
aasg16
S'65480'
p168
sg18
Nsg19
(lp169
g157
ag161
ag165
asg21
S'While carry person, person eating the heart and then threw it away.'
p170
sg23
S'55880'
p171
ssI8
(dp172
g2
(lp173
(lp174
S'CL:5walking by the tree'
p175
aS'66480'
p176
aS'67040'
p177
aa(lp178
S'CL:5walking by the tree'
p179
aS'67480'
p180
aS'67640'
p181
aa(lp182
S'CL:5walking by the tree'
p183
aS'67800'
p184
aS'68160'
p185
aa(lp186
S'PATH'
p187
aS'68760'
p188
aS'70360'
p189
aa(lp190
S'(2h)CL:5walking into a house'
p191
aS'70960'
p192
aS'73440'
p193
aasg16
S'73440'
p194
sg18
Nsg19
(lp195
g175
ag179
ag183
ag187
ag191
asg21
S'A person walking through the forest, and there is a path to house.'
p196
sg23
S'65520'
p197
ssI9
(dp198
g2
(lp199
(lp200
S'whew'
p201
aS'78040'
p202
aS'78760'
p203
aasg16
S'78760'
p204
sg18
Nsg19
(lp205
g201
asg21
S'A person who carried person, put person down and said, "Whew."'
p206
sg23
S'73480'
p207
ssI10
(dp208
g2
(lp209
(lp210
S'ICLopening the knob'
p211
aS'79080'
p212
aS'79840'
p213
aa(lp214
S'BPCL:kicking'
p215
aS'80440'
p216
aS'80920'
p217
aa(lp218
S'BCL:picking person up'
p219
aS'83560'
p220
aS'85400'
p221
aasg16
S'85400'
p222
sg18
Nsg19
(lp223
g211
ag215
ag219
asg21
S'A person was kicking the door to open it and pick dead person up.'
p224
sg23
S'78800'
p225
ssI11
(dp226
g2
(lp227
(lp228
S'WOOD'
p229
aS'88760'
p230
aS'89560'
p231
aa(lp232
S'DCL:shape of the wood'
p233
aS'89800'
p234
aS'91360'
p235
aa(lp236
S'fs:COFFIN'
p237
aS'91680'
p238
aS'93520'
p239
aa(lp240
g110
aS'93760'
p241
aasg16
S'93800'
p242
sg18
Nsg19
(lp243
g229
ag233
ag237
ag110
asg21
S'Put person down and there is a wood coffin.'
p244
sg23
S'85440'
p245
ssI12
(dp246
g2
(lp247
(lp248
S'ICL:getting object'
p249
aS'94360'
p250
aS'94920'
p251
aa(lp252
S'ICL:removing the nail'
p253
aS'96160'
p254
aS'97000'
p255
aa(lp256
S'ICL:removing the nail'
p257
aS'98720'
p258
aS'99440'
p259
aa(lp260
S'ICL:removing the nail'
p261
aS'101120'
p262
aS'101760'
p263
aa(lp264
S'ICL:removing the nail'
p265
aS'103080'
p266
aS'104000'
p267
aasg16
S'104400'
p268
sg18
Nsg19
(lp269
g249
ag253
ag257
ag261
ag265
asg21
S'A person get hammer to remove each nail at four corners.'
p270
sg23
S'93840'
p271
ssI13
(dp272
g2
(lp273
(lp274
S'BCL:picking person up'
p275
aS'105280'
p276
aS'108080'
p277
aa(lp278
S'BCL:putting person in the coffin'
p279
aS'108600'
p280
aS'109960'
p281
aasg16
S'110760'
p282
sg18
Nsg19
(lp283
g275
ag279
asg21
S'Picked person up and put in the coffin.'
p284
sg23
S'104440'
p285
ssI14
(dp286
g2
(lp287
(lp288
S'BCL:putting the cover on'
p289
aS'111480'
p290
aS'112840'
p291
aa(lp292
S'ICL:nailing'
p293
aS'114000'
p294
aS'114560'
p295
aa(lp296
S'ICL:nailing'
p297
aS'115880'
p298
aS'116360'
p299
aa(lp300
S'ICL:nailing'
p301
aS'117880'
p302
aS'118280'
p303
aa(lp304
S'ICL:nailing'
p305
aS'119640'
p306
aS'120080'
p307
aa(lp308
S'whew'
p309
aS'121400'
p310
aS'122400'
p311
aasg16
S'122400'
p312
sg18
Nsg19
(lp313
g289
ag293
ag297
ag301
ag305
ag309
asg21
S'Put the cover back on and nailing each corner.'
p314
sg23
S'110800'
p315
ssI15
(dp316
g2
(lp317
(lp318
S'yawn'
p319
aS'123160'
p320
aS'125360'
p321
aa(lp322
S'SCL:1person walking upstair'
p323
aS'126160'
p324
aS'128000'
p325
aa(lp326
S'BCL:covering the blanket'
p327
aS'128840'
p328
aS'130280'
p329
aasg16
S'130280'
p330
sg18
Nsg19
(lp331
g319
ag323
ag327
asg21
S'A person was yawning and went upstair.  A person covering the blanket and sleep.'
p332
sg23
S'122440'
p333
ssI16
(dp334
g2
(lp335
(lp336
S'SUNSET'
p337
aS'130680'
p338
aS'131960'
p339
aa(lp340
S'SUNRISE'
p341
aS'132360'
p342
aS'133720'
p343
aa(lp344
S'SCL:house shaking'
p345
aS'133880'
p346
aS'134280'
p347
aa(lp348
S'LOUD+'
p349
aS'134480'
p350
aS'135640'
p351
aasg16
S'135640'
p352
sg18
Nsg19
(lp353
g337
ag341
ag345
ag349
asg21
S'Sunset and then sunrise.  The house start to shaking very loud.'
p354
sg23
S'130320'
p355
ssI17
(dp356
g2
(lp357
(lp358
S'part:indef'
p359
aS'136200'
p360
aS'137160'
p361
aa(lp362
S'BCL:uncovering the blanket'
p363
aS'137640'
p364
aS'137960'
p365
aa(lp366
S'SCL:1person walking downstair'
p367
aS'138320'
p368
aS'139480'
p369
aa(lp370
S'part:indef'
p371
aS'139880'
p372
aS'140360'
p373
aasg16
S'142920'
p374
sg18
Nsg19
(lp375
g359
ag363
ag367
ag371
asg21
S'A person uncover the blanket and ran downstair to find out what is going on.'
p376
sg23
S'135680'
p377
ssI18
(dp378
g2
(lp379
(lp380
S'LOUD++'
p381
aS'143080'
p382
aS'144080'
p383
aa(lp384
S'SCL:5house shaking'
p385
aS'144200'
p386
aS'145280'
p387
aasg16
S'146320'
p388
sg18
Nsg19
(lp389
g381
ag385
asg21
S"It's loud when the house was shaking."
p390
sg23
S'142960'
p391
ssI19
(dp392
g2
(lp393
(lp394
S'ICL:getting object'
p395
aS'146840'
p396
aS'147240'
p397
aa(lp398
S'ICL:removing the nail'
p399
aS'149280'
p400
aS'150160'
p401
aa(lp402
S'ICL:removing the nail'
p403
aS'151920'
p404
aS'152640'
p405
aa(lp406
S'ICL:removing the nail'
p407
aS'153720'
p408
aS'154320'
p409
aa(lp410
S'ICL:removing the nail'
p411
aS'155160'
p412
aS'155560'
p413
aasg16
S'155800'
p414
sg18
Nsg19
(lp415
g395
ag399
ag403
ag407
ag411
asg21
S'A person get hammer to remove each nail from four corners.'
p416
sg23
S'146360'
p417
ssI20
(dp418
g2
(lp419
(lp420
S'ICL:removing the cover'
p421
aS'156360'
p422
aS'159080'
p423
aasg16
S'160600'
p424
sg18
Nsg19
(lp425
g421
asg21
S'A person got cover off the coffin.'
p426
sg23
S'155840'
p427
ssI21
(dp428
g2
(lp429
(lp430
S'BCL:looking at dead person'
p431
aS'160640'
p432
aS'160960'
p433
aa(lp434
S'BCL:dead person'
p435
aS'161320'
p436
aS'162600'
p437
aa(lp438
S'BCL:looking at dead person'
p439
aS'163080'
p440
aS'164120'
p441
aa(lp442
S'BCL:dead person'
p443
aS'164600'
p444
aS'165240'
p445
aa(lp446
S'BCL:looking at dead person'
p447
aS'165760'
p448
aS'167600'
p449
aasg16
S'167600'
p450
sg18
Nsg19
(lp451
g431
ag435
ag439
ag443
ag447
asg21
S'A person looking at dead person.'
p452
sg23
S'160640'
p453
ssI22
(dp454
g2
(lp455
(lp456
S'ICL:putting cover on the coffin'
p457
aS'168960'
p458
aS'170280'
p459
aa(lp460
S'ICL:nailing'
p461
aS'171240'
p462
aS'171640'
p463
aa(lp464
S'ICL:nailing'
p465
aS'173040'
p466
aS'173400'
p467
aa(lp468
S'ICL:nailing'
p469
aS'174440'
p470
aS'174840'
p471
aa(lp472
S'ICL:nailing'
p473
aS'175640'
p474
aS'176120'
p475
aasg16
S'176320'
p476
sg18
Nsg19
(lp477
g457
ag461
ag465
ag469
ag473
asg21
S'Put the cover back on and nailing each corner again.'
p478
sg23
S'167640'
p479
ssI23
(dp480
g2
(lp481
(lp482
S'part:indef'
p483
aS'178480'
p484
aS'178640'
p485
aa(lp486
S'NAH'
p487
aS'179680'
p488
aS'179800'
p489
aa(lp490
S'IX-1p'
p491
aS'180040'
p492
aS'180120'
p493
aa(lp494
S'FINE'
p495
aS'180240'
p496
aS'180480'
p497
aa(lp498
S'NAH'
p499
aS'180640'
p500
aS'180840'
p501
aasg16
S'182593'
p502
sg18
Nsg19
(lp503
g483
ag487
ag491
ag495
ag499
asg21
S'"Nah, I am fine," a person said.'
p504
sg23
S'176360'
p505
ssI24
(dp506
g2
(lp507
(lp508
S'SUNRISE'
p509
aS'182600'
p510
aS'184600'
p511
aa(lp512
S'WHAT'
p513
aS'185440'
p514
aS'185760'
p515
aa(lp516
S'THAT'
p517
aS'185960'
p518
aS'186320'
p519
aa(lp520
S'SCL:5house shaking'
p521
aS'186600'
p522
aS'187560'
p523
aasg16
S'187560'
p524
sg18
Nsg19
(lp525
g509
ag513
ag517
ag521
asg21
S'When Sunrise comes, "what was that when house shaked?" a person wondering.'
p526
sg23
S'182600'
p527
ssI25
(dp528
g2
(lp529
(lp530
S'AWAKE'
p531
aS'242840'
p532
aS'245320'
p533
aa(lp534
g110
aS'246360'
p535
aa(lp536
S'FALL-ASLEEP'
p537
aS'246760'
p538
aS'247120'
p539
aa(lp540
g110
aS'248200'
p541
aasg16
S'248400'
p542
sg18
Nsg19
(lp543
g531
ag110
ag537
ag110
asg21
Nsg23
S'242600'
p544
ss.