(dp0
I0
(dp1
S'Annotated'
p2
(lp3
(lp4
S'fs-JOHN'
p5
aS'120'
p6
aS'280'
p7
aa(lp8
S'KNOW'
p9
aS'400'
p10
aS'440'
p11
aa(lp12
S'IX-3p:i'
p13
aS'520'
p14
aS'560'
p15
aa(lp16
S'MAN'
p17
aS'640'
p18
aS'780'
p19
aa(lp20
S'IX-loc:i'
p21
aS'880'
p22
aS'1020'
p23
aasS'EndFrame'
p24
S'1440'
p25
sS'Video'
p26
S'b-881_698_master_small.mov'
p27
sS'Words'
p28
(lp29
g5
ag9
ag13
ag17
ag21
asS'English'
p30
S'John knows that man over there.'
p31
sS'StartFrame'
p32
S'0'
p33
ssI1
(dp34
g2
(lp35
(lp36
S'fs-JOHN'
p37
ag33
aS'260'
p38
aa(lp39
S'KNOW'
p40
aS'320'
p41
aS'420'
p42
aa(lp43
S'IX-3p:i'
p44
aS'500'
p45
aS'540'
p46
aa(lp47
S'MAN'
p48
aS'620'
p49
aS'780'
p50
aa(lp51
S'IX-loc:i'
p52
aS'840'
p53
aS'1000'
p54
aasg24
S'1318'
p55
sg26
S'b-882_699_master_small.mov'
p56
sg28
(lp57
g37
ag40
ag44
ag48
ag52
asg30
S'John knows the man over there.'
p58
sg32
g33
ssI2
(dp59
g2
(lp60
(lp61
S'fs-JOHN'
p62
aS'260'
p63
aS'400'
p64
aa(lp65
S'KNOW'
p66
aS'520'
p67
aS'560'
p68
aa(lp69
S'IX-3p:i'
p70
aS'660'
p71
aS'720'
p72
aa(lp73
S'MAN'
p74
aS'840'
p75
aS'960'
p76
aa(lp77
S'IX-loc:i'
p78
aS'1080'
p79
aS'1140'
p80
aasg24
S'1454'
p81
sg26
S'b-883_700_master_small.mov'
p82
sg28
(lp83
g62
ag66
ag70
ag74
ag78
asg30
S'John knows the man over there.'
p84
sg32
g33
ssI3
(dp85
g2
(lp86
(lp87
S'fs-JOHN'
p88
aS'300'
p89
aS'440'
p90
aa(lp91
S'KNOW'
p92
aS'580'
p93
aS'600'
p94
aa(lp95
S'IX-3p:i'
p96
aS'700'
p97
aS'760'
p98
aa(lp99
S'MAN'
p100
aS'860'
p101
aS'960'
p102
aa(lp103
S'IX-loc:i'
p104
aS'1100'
p105
aS'1200'
p106
aasg24
S'1814'
p107
sg26
S'b-884_701_master_small.mov'
p108
sg28
(lp109
g88
ag92
ag96
ag100
ag104
asg30
S'John knows the man over there.'
p110
sg32
g33
ssI4
(dp111
g2
(lp112
(lp113
S'fs-JOHN'
p114
aS'440'
p115
aS'540'
p116
aa(lp117
S'KNOW'
p118
aS'680'
p119
aS'700'
p120
aa(lp121
S'IX-3p:i'
p122
aS'760'
p123
aS'840'
p124
aa(lp125
S'MAN'
p126
aS'880'
p127
aS'960'
p128
aa(lp129
S'IX-loc:i'
p130
aS'1040'
p131
aS'1240'
p132
aasg24
S'1538'
p133
sg26
S'b-885_702_master_small.mov'
p134
sg28
(lp135
g114
ag118
ag122
ag126
ag130
asg30
S'John knows the man over there.'
p136
sg32
g33
ssI5
(dp137
g2
(lp138
(lp139
S'fs-JOHN'
p140
aS'300'
p141
aS'460'
p142
aa(lp143
S'punct'
p144
aS'980'
p145
aa(lp146
S'fs-MARY'
p147
aS'1060'
p148
aS'1160'
p149
aa(lp150
S'LOVE'
p151
aS'1300'
p152
aS'1380'
p153
aa(lp154
S'IX-3p:j'
p155
aS'1420'
p156
aS'1660'
p157
aasg24
S'2095'
p158
sg26
S'b-886_703_master_small.mov'
p159
sg28
(lp160
g140
ag144
ag147
ag151
ag155
asg30
S'John, Mary loves him.'
p161
sg32
g33
ssI6
(dp162
g2
(lp163
(lp164
S'fs-JOHN'
p165
aS'400'
p166
aS'660'
p167
aa(lp168
g144
aS'920'
p169
aa(lp170
S'fs-MARY'
p171
aS'1140'
p172
aS'1420'
p173
aa(lp174
S'IX-3p:i'
p175
aS'1480'
p176
aS'1560'
p177
aa(lp178
S'LOVE'
p179
aS'1660'
p180
aS'1720'
p181
aa(lp182
S'IX-3p:j'
p183
aS'1780'
p184
aS'1940'
p185
aasg24
S'2178'
p186
sg26
S'b-887_704_master_small.mov'
p187
sg28
(lp188
g165
ag144
ag171
ag175
ag179
ag183
asg30
S'You know John, he loves Mary.'
p189
sg32
g33
ssI7
(dp190
g2
(lp191
(lp192
S'fs-JOHN'
p193
aS'240'
p194
aS'420'
p195
aa(lp196
g144
aS'820'
p197
aa(lp198
S'fs-MARY'
p199
aS'900'
p200
aS'1140'
p201
aa(lp202
S'IX-3p:i'
p203
aS'1220'
p204
aS'1240'
p205
aa(lp206
S'LOVE'
p207
aS'1340'
p208
aS'1380'
p209
aa(lp210
g144
aS'1620'
p211
aasg24
S'1940'
p212
sg26
S'b-888_705_master_small.mov'
p213
sg28
(lp214
g193
ag144
ag199
ag203
ag207
ag144
asg30
S'You know John? He loves Mary.'
p215
sg32
g33
ssI8
(dp216
g2
(lp217
(lp218
S'fs-JOHN'
p219
aS'240'
p220
aS'360'
p221
aa(lp222
g144
aS'780'
p223
aa(lp224
S'fs-MARY'
p225
aS'860'
p226
aS'1180'
p227
aa(lp228
S'IX-3p:i'
p229
aS'1220'
p230
aS'1260'
p231
aa(lp232
S'LOVE'
p233
aS'1400'
p234
aS'1420'
p235
aa(lp236
g144
aS'1640'
p237
aasg24
S'1946'
p238
sg26
Nsg28
(lp239
g219
ag144
ag225
ag229
ag233
ag144
asg30
S'It is Mary whom John loves.'
p240
sg32
g33
ssI9
(dp241
g2
(lp242
(lp243
S'fs-JOHN'
p244
aS'80'
p245
aS'260'
p246
aa(lp247
g144
aS'480'
p248
aa(lp249
S'fs-MARY'
p250
aS'600'
p251
aS'700'
p252
aa(lp253
S'IX-loc:j'
p254
aS'800'
p255
aS'840'
p256
aa(lp257
S'IX-3p:i'
p258
aS'1060'
p259
aS'1080'
p260
aa(lp261
S'LOVE'
p262
aS'1160'
p263
aS'1340'
p264
aa(lp265
S'IX-3p:j'
p266
aS'1520'
p267
aS'1520'
p268
aasg24
S'1789'
p269
sg26
Nsg28
(lp270
g244
ag144
ag250
ag254
ag258
ag262
ag266
asg30
S'It is Mary whom John loves.'
p271
sg32
g33
ssI10
(dp272
g2
(lp273
(lp274
S'CHINA'
p275
aS'320'
p276
aS'660'
p277
aa(lp278
S'VEGETABLE'
p279
aS'880'
p280
aS'1120'
p281
aa(lp282
S'PEOPLE'
p283
aS'1200'
p284
aS'1320'
p285
aa(lp286
S'PREFER'
p287
aS'1380'
p288
aS'1520'
p289
aa(lp290
S'BROCCOLI'
p291
aS'1600'
p292
aS'2100'
p293
aasg24
S'2334'
p294
sg26
Nsg28
(lp295
g275
ag279
ag283
ag287
ag291
asg30
S'In China, people prefer broccoli over other vegetables.'
p296
sg32
g33
ssI11
(dp297
g2
(lp298
(lp299
S'POSS-3p:i'
p300
aS'280'
p301
aS'380'
p302
aa(lp303
S'NEW'
p304
aS'460'
p305
aS'580'
p306
aa(lp307
S'CAR'
p308
aS'640'
p309
aS'820'
p310
aasg24
S'971'
p311
sg26
Nsg28
(lp312
g300
ag304
ag308
asg30
S'His/her new car.'
p313
sg32
S'160'
p314
ssI12
(dp315
g2
(lp316
(lp317
S'IX-3p:i'
p318
aS'160'
p319
aS'360'
p320
aa(lp321
S'POSS-3p:j'
p322
aS'420'
p323
aS'540'
p324
aa(lp325
S'fs-JOHN'
p326
aS'600'
p327
aS'700'
p328
aa(lp329
S'CAR'
p330
aS'780'
p331
aS'1020'
p332
aasg24
S'1202'
p333
sg26
Nsg28
(lp334
g318
ag322
ag326
ag330
asg30
S"That is John's car."
p335
sg32
g33
ssI13
(dp336
g2
(lp337
(lp338
S'IX-3p:i'
p339
aS'240'
p340
aS'440'
p341
aa(lp342
S'THAT'
p343
aS'480'
p344
aS'580'
p345
aa(lp346
S'fs-JOHN'
p347
aS'600'
p348
aS'720'
p349
aa(lp350
S'POSS-3p:j'
p351
aS'800'
p352
aS'900'
p353
aa(lp354
S'FATHER'
p355
aS'1000'
p356
aS'1060'
p357
aa(lp358
S'CAR'
p359
aS'1140'
p360
aS'1300'
p361
aasg24
S'1530'
p362
sg26
Nsg28
(lp363
g339
ag343
ag347
ag351
ag355
ag359
asg30
S"That is John's father's car."
p364
sg32
g33
ssI14
(dp365
g2
(lp366
(lp367
S'IX-3p:i'
p368
aS'200'
p369
aS'320'
p370
aa(lp371
S'POSS-3p:j'
p372
aS'400'
p373
aS'440'
p374
aa(lp375
S'FATHER'
p376
aS'580'
p377
aS'620'
p378
aa(lp379
S'CAR'
p380
aS'680'
p381
aS'760'
p382
aa(lp383
S'QMwg'
p384
aS'780'
p385
aS'880'
p386
aasg24
S'1215'
p387
sg26
Nsg28
(lp388
g368
ag372
ag376
ag380
ag384
asg30
S"Is that John's father's car?"
p389
sg32
g33
ssI15
(dp390
g2
(lp391
(lp392
S'IX-3p:i'
p393
aS'280'
p394
aS'360'
p395
aa(lp396
S'POSS-3p:j'
p397
aS'400'
p398
aS'520'
p399
aa(lp400
S'JOHN'
p401
aS'580'
p402
aS'660'
p403
aa(lp404
S'FATHER'
p405
aS'780'
p406
aS'840'
p407
aa(lp408
S'CAR'
p409
aS'900'
p410
aS'1040'
p411
aasg24
S'1261'
p412
sg26
Nsg28
(lp413
g393
ag397
ag401
ag405
ag409
asg30
S"Is that John's father's car?"
p414
sg32
g33
ssI16
(dp415
g2
(lp416
(lp417
S'IX-3p:i'
p418
aS'200'
p419
aS'340'
p420
aa(lp421
S'WHO'
p422
aS'440'
p423
aS'520'
p424
aa(lp425
S'POSS-3p:j'
p426
aS'560'
p427
aS'680'
p428
aa(lp429
S'CAR'
p430
aS'760'
p431
aS'900'
p432
aasg24
S'1220'
p433
sg26
S'b-961_778_master_small.mov'
p434
sg28
(lp435
g418
ag422
ag426
ag430
asg30
S'Who does that car belong to?'
p436
sg32
g33
ssI17
(dp437
g2
(lp438
(lp439
S'IX-3p:i'
p440
aS'260'
p441
aS'320'
p442
aa(lp443
S'WHO'
p444
aS'440'
p445
aS'480'
p446
aa(lp447
S'POSS-3p:j'
p448
aS'520'
p449
aS'580'
p450
aa(lp451
S'CAR'
p452
aS'640'
p453
aS'760'
p454
aa(lp455
S'part:indef'
p456
aS'800'
p457
aS'920'
p458
aasg24
S'1156'
p459
sg26
S'b-962_779_master_small.mov'
p460
sg28
(lp461
g440
ag444
ag448
ag452
ag456
asg30
S"Who's car is that?"
p462
sg32
g33
ssI18
(dp463
g2
(lp464
(lp465
S'IX-3p:i'
p466
aS'140'
p467
aS'180'
p468
aa(lp469
S'PAST'
p470
aS'220'
p471
aS'400'
p472
aa(lp473
S'POSS-3p:j'
p474
aS'460'
p475
aS'540'
p476
aa(lp477
S'fs-JOHN'
p478
aS'580'
p479
aS'660'
p480
aa(lp481
S'CAR'
p482
aS'720'
p483
aS'880'
p484
aasg24
S'1113'
p485
sg26
S'b-963_780_master_small.mov'
p486
sg28
(lp487
g466
ag470
ag474
ag478
ag482
asg30
S"That used to be John's car."
p488
sg32
g33
ssI19
(dp489
g2
(lp490
(lp491
S'POSS-3p:i'
p492
aS'240'
p493
aS'320'
p494
aa(lp495
S'#EX'
p496
aS'380'
p497
aS'440'
p498
aa(lp499
S'CAR'
p500
aS'580'
p501
aS'780'
p502
aasg24
S'940'
p503
sg26
S'b-965_782_master_small.mov'
p504
sg28
(lp505
g492
ag496
ag500
asg30
S'That is his/her old car.'
p506
sg32
g33
ss.