(dp0
I0
(dp1
S'Annotated'
p2
(lp3
(lp4
S'TEACHER'
p5
aS'240'
p6
aS'340'
p7
aa(lp8
S'NOW'
p9
aS'360'
p10
aS'420'
p11
aa(lp12
S'IX-loc:i'
p13
aS'440'
p14
aS'620'
p15
aa(lp16
S'IN'
p17
aS'720'
p18
aS'800'
p19
aa(lp20
S'MOVIE'
p21
aS'900'
p22
aS'1080'
p23
aasS'EndFrame'
p24
S'1120'
p25
sS'Video'
p26
S'641_master_small.mov'
p27
sS'Words'
p28
(lp29
g5
ag9
ag13
ag17
ag21
asS'English'
p30
S'The teacher is in the movie theatre.'
p31
sS'StartFrame'
p32
S'0'
p33
ssI1
(dp34
g2
(lp35
(lp36
S'IX-3p:i'
p37
aS'1160'
p38
aS'1240'
p39
aa(lp40
S'END'
p41
aS'1340'
p42
aS'1520'
p43
aa(lp44
S'WATCH'
p45
aS'1600'
p46
aS'1620'
p47
aa(lp48
S'MOVIE'
p49
aS'1720'
p50
aS'1840'
p51
aa(lp52
S'BUY'
p53
aS'1920'
p54
aS'2040'
p55
aa(lp56
S'BOOK+'
p57
aS'2160'
p58
aS'2400'
p59
aasg24
S'2500'
p60
sg26
S'641_master_small.mov'
p61
sg28
(lp62
g37
ag41
ag45
ag49
ag53
ag57
asg30
S'After the teacher watches the movie he/she will buy a book.'
p63
sg32
S'1120'
p64
ssI2
(dp65
g2
(lp66
(lp67
S'BOOK'
p68
aS'2660'
p69
aS'2820'
p70
aa(lp71
S'FUTURE'
p72
aS'2920'
p73
aS'2940'
p74
aa(lp75
S'GIFT:j'
p76
aS'3100'
p77
aS'3220'
p78
aa(lp79
S'STUDENT'
p80
aS'3380'
p81
aS'3660'
p82
aasg24
S'4220'
p83
sg26
S'641_master_small.mov'
p84
sg28
(lp85
g68
ag72
ag76
ag80
asg30
S'The teacher will give the book to a student.'
p86
sg32
S'2500'
p87
ss.