(dp0
I0
(dp1
S'Annotated'
p2
(lp3
(lp4
S'IX-1p:i'
p5
aS'140'
p6
aS'160'
p7
aa(lp8
S'FIND'
p9
aS'220'
p10
aS'260'
p11
aa(lp12
S'SOMETHING/ONE:j'
p13
aS'340'
p14
aS'460'
p15
aa(lp16
S'POSS-3p:j'
p17
aS'600'
p18
aS'660'
p19
aa(lp20
S'BOOK'
p21
aS'820'
p22
aS'880'
p23
aasS'EndFrame'
p24
S'1240'
p25
sS'Video'
p26
S'ch6-395_43_small_0.mov'
p27
sS'Words'
p28
(lp29
g5
ag9
ag13
ag17
ag21
asS'English'
p30
S"I found someone's book."
p31
sS'StartFrame'
p32
S'20'
p33
ssI1
(dp34
g2
(lp35
(lp36
S'fs-JOHN'
p37
aS'240'
p38
aS'320'
p39
aa(lp40
S'BROTHER'
p41
aS'500'
p42
aS'620'
p43
aa(lp44
S'ARRIVE'
p45
aS'740'
p46
aS'880'
p47
aa(lp48
S'punct'
p49
aS'960'
p50
aasg24
S'1160'
p51
sg26
S'ch6-498_45_small_0.mov'
p52
sg28
(lp53
g37
ag41
ag45
ag49
asg30
S"John's brother arrives."
p54
sg32
S'0'
p55
ssI2
(dp56
g2
(lp57
(lp58
S'SOMETHING/ONE'
p59
aS'180'
p60
aS'200'
p61
aa(lp62
S'ARRIVE'
p63
aS'300'
p64
aS'460'
p65
aa(lp66
S'HERE'
p67
aS'540'
p68
aS'640'
p69
aasg24
S'760'
p70
sg26
S'ch6-525_37_small_0.mov'
p71
sg28
(lp72
g59
ag63
ag67
asg30
S'Someone arrives here.'
p73
sg32
S'80'
p74
ssI3
(dp75
g2
(lp76
(lp77
S'fs-JOHN:i'
p78
aS'240'
p79
aS'360'
p80
aa(lp81
S'i:GIFT:j'
p82
aS'600'
p83
aS'720'
p84
aa(lp85
S'IX-3p:j'
p86
aS'840'
p87
aS'940'
p88
aa(lp89
S'MAN'
p90
aS'1100'
p91
aS'1220'
p92
aa(lp93
S'NEW'
p94
aS'1380'
p95
aS'1500'
p96
aa(lp97
S'COAT'
p98
aS'1600'
p99
aS'1760'
p100
aasg24
S'1960'
p101
sg26
S'ch6-526_343_small_0.mov'
p102
sg28
(lp103
g78
ag82
ag86
ag90
ag94
ag98
asg30
S'John gave that man a new coat.'
p104
sg32
S'60'
p105
ssI4
(dp106
g2
(lp107
(lp108
S'fs-JOHN'
p109
aS'60'
p110
aS'180'
p111
aa(lp112
S'IX-3p:i'
p113
aS'320'
p114
aS'360'
p115
aa(lp116
S'i:GIFT:j'
p117
aS'480'
p118
aS'600'
p119
aa(lp120
S'IX-3p:j'
p121
aS'620'
p122
aS'660'
p123
aa(lp124
S'MAN'
p125
aS'820'
p126
aS'1000'
p127
aa(lp128
S'IX-loc:j'
p129
aS'1200'
p130
aS'1380'
p131
aa(lp132
S'NEW'
p133
aS'1680'
p134
aS'1780'
p135
aa(lp136
S'COAT'
p137
aS'1880'
p138
aS'2020'
p139
aasg24
S'2260'
p140
sg26
S'ch6-527_347_small_0.mov'
p141
sg28
(lp142
g109
ag113
ag117
ag121
ag125
ag129
ag133
ag137
asg30
S'John, he gave the man over there a new coat.'
p143
sg32
g55
ssI5
(dp144
g2
(lp145
(lp146
S'fs-JOHN'
p147
aS'300'
p148
aS'400'
p149
aa(lp150
S'neu:GIFT:j'
p151
aS'540'
p152
aS'640'
p153
aa(lp154
S'IX-3p:j'
p155
aS'720'
p156
aS'820'
p157
aa(lp158
S'MAN'
p159
aS'960'
p160
aS'1060'
p161
aa(lp162
S'IX-loc:j'
p163
aS'1220'
p164
aS'1440'
p165
aa(lp166
S'NEW'
p167
aS'1840'
p168
aS'1920'
p169
aa(lp170
S'COAT'
p171
aS'2040'
p172
aS'2220'
p173
aasg24
S'2460'
p174
sg26
S'ch6-528_344_small_0.mov'
p175
sg28
(lp176
g147
ag151
ag155
ag159
ag163
ag167
ag171
asg30
S'John gave the man way over there a new coat.'
p177
sg32
S'20'
p178
ssI6
(dp179
g2
(lp180
(lp181
S'fs-JOHN'
p182
aS'120'
p183
aS'160'
p184
aa(lp185
S'IX-3p:i'
p186
aS'260'
p187
aS'380'
p188
aa(lp189
S'i:GIFT:j'
p190
aS'420'
p191
aS'740'
p192
aa(lp193
S'IX-3p:j'
p194
aS'820'
p195
aS'880'
p196
aa(lp197
S'MAN'
p198
aS'1060'
p199
aS'1220'
p200
aa(lp201
S'IX-loc:j'
p202
aS'1480'
p203
aS'1720'
p204
aa(lp205
S'BOOK'
p206
aS'2020'
p207
aS'2080'
p208
aasg24
S'2340'
p209
sg26
S'ch6-529_346_small_0.mov'
p210
sg28
(lp211
g182
ag186
ag190
ag194
ag198
ag202
ag206
asg30
S'John, he, gave a man over there a book.'
p212
sg32
S'20'
p213
ssI7
(dp214
g2
(lp215
(lp216
S'fs-JOHN'
p217
aS'280'
p218
aS'380'
p219
aa(lp220
S'neu:GIVE-indef:j'
p221
aS'520'
p222
aS'660'
p223
aa(lp224
S'IX-loc:j'
p225
aS'960'
p226
aS'1360'
p227
aa(lp228
S'SOMETHING/ONE'
p229
aS'1480'
p230
aS'1600'
p231
aa(lp232
S'WOMAN'
p233
aS'1680'
p234
aS'1780'
p235
aa(lp236
S'BOOK'
p237
aS'1920'
p238
aS'2000'
p239
aasg24
S'2140'
p240
sg26
S'ch6-530_348_small_0.mov'
p241
sg28
(lp242
g217
ag221
ag225
ag229
ag233
ag237
asg30
S'John gave a woman over there a book.'
p243
sg32
S'100'
p244
ssI8
(dp245
g2
(lp246
(lp247
S'fs-JOHN'
p248
aS'360'
p249
aS'740'
p250
aa(lp251
S'neu:GIVE-indef:j'
p252
aS'860'
p253
aS'1000'
p254
aa(lp255
S'IX-loc:j'
p256
aS'1220'
p257
aS'1420'
p258
aa(lp259
S'SOMETHING/ONE'
p260
aS'1660'
p261
aS'1700'
p262
aa(lp263
S'WOMAN'
p264
aS'1800'
p265
aS'1900'
p266
aa(lp267
S'BOOK'
p268
aS'2040'
p269
aS'2200'
p270
aasg24
S'2700'
p271
sg26
S'ch6-531_169_small_0.mov'
p272
sg28
(lp273
g248
ag252
ag256
ag260
ag264
ag268
asg30
S'John gave some woman over there a book.'
p274
sg32
S'120'
p275
ssI9
(dp276
g2
(lp277
(lp278
S'fs-JOHN'
p279
aS'180'
p280
aS'280'
p281
aa(lp282
S'neu:GIVE-indef:j'
p283
aS'420'
p284
aS'540'
p285
aa(lp286
S'IX-loc:j'
p287
aS'720'
p288
aS'980'
p289
aa(lp290
S'SOMETHING/ONE'
p291
aS'1100'
p292
aS'1160'
p293
aa(lp294
S'WOMAN'
p295
aS'1280'
p296
aS'1380'
p297
aa(lp298
S'BOOK'
p299
aS'1580'
p300
aS'1660'
p301
aasg24
S'1840'
p302
sg26
S'ch6-532_349_small_0.mov'
p303
sg28
(lp304
g279
ag283
ag287
ag291
ag295
ag299
asg30
S'John gave some woman over there a book.'
p305
sg32
S'40'
p306
ssI10
(dp307
g2
(lp308
(lp309
S'fs-JOHN'
p310
aS'400'
p311
aS'740'
p312
aa(lp313
S'neu:GIVE-indef:j'
p314
aS'900'
p315
aS'1100'
p316
aa(lp317
S'IX-loc:j'
p318
aS'1380'
p319
aS'1580'
p320
aa(lp321
S'SOMETHING/ONE'
p322
aS'1760'
p323
aS'1900'
p324
aa(lp325
S'WOMAN'
p326
aS'2020'
p327
aS'2160'
p328
aa(lp329
S'BOOK'
p330
aS'2360'
p331
aS'2500'
p332
aasg24
S'2680'
p333
sg26
S'ch6-533_168_small_0.mov'
p334
sg28
(lp335
g310
ag314
ag318
ag322
ag326
ag330
asg30
S'John gave some woman over there a book.'
p336
sg32
S'80'
p337
ssI11
(dp338
g2
(lp339
(lp340
S'IX-3p:i'
p341
aS'320'
p342
aS'560'
p343
aa(lp344
S'WOMAN'
p345
aS'780'
p346
aS'900'
p347
aa(lp348
S'HAVE'
p349
aS'1080'
p350
aS'1140'
p351
aa(lp352
S'BOOK'
p353
aS'1240'
p354
aS'1300'
p355
aasg24
S'1520'
p356
sg26
S'ch6-534_178_small_0.mov'
p357
sg28
(lp358
g341
ag345
ag349
ag353
asg30
S'That woman way over there has a book.'
p359
sg32
S'20'
p360
ssI12
(dp361
g2
(lp362
(lp363
S'IX-3p:i'
p364
aS'340'
p365
aS'500'
p366
aa(lp367
S'HAVE'
p368
aS'680'
p369
aS'720'
p370
aa(lp371
S'BOOK'
p372
aS'800'
p373
aS'880'
p374
aasg24
S'1060'
p375
sg26
S'ch6-535_179_small_0.mov'
p376
sg28
(lp377
g364
ag368
ag372
asg30
S'He/she over there has a book.'
p378
sg32
S'100'
p379
ssI13
(dp380
g2
(lp381
(lp382
S'fs-FRANK'
p383
aS'160'
p384
aS'460'
p385
aa(lp386
S'POSS-3p:i'
p387
aS'540'
p388
aS'600'
p389
aa(lp390
S'NEW'
p391
aS'740'
p392
aS'820'
p393
aa(lp394
S'CAR'
p395
aS'920'
p396
aS'960'
p397
aa(lp398
S'BREAK-DOWN'
p399
aS'1060'
p400
aS'1220'
p401
aasg24
S'1380'
p402
sg26
S'ch6-536_350_small_0.mov'
p403
sg28
(lp404
g383
ag387
ag391
ag395
ag399
asg30
S"Frank's new car broke down."
p405
sg32
S'40'
p406
ssI14
(dp407
g2
(lp408
(lp409
S'POSS-3p:i'
p410
aS'380'
p411
aS'400'
p412
aa(lp413
S'fs-FRANK'
p414
aS'480'
p415
aS'680'
p416
aa(lp417
S'NEW'
p418
aS'840'
p419
aS'920'
p420
aa(lp421
S'CAR'
p422
aS'1020'
p423
aS'1180'
p424
aa(lp425
S'BREAK-DOWN'
p426
aS'1280'
p427
aS'1460'
p428
aasg24
S'1640'
p429
sg26
Nsg28
(lp430
g410
ag414
ag418
ag422
ag426
asg30
S"Frank's new car broke down."
p431
sg32
S'240'
p432
ssI15
(dp433
g2
(lp434
(lp435
S'fs-FRANK'
p436
aS'280'
p437
aS'440'
p438
aa(lp439
S'POSS-3p:i'
p440
aS'520'
p441
aS'640'
p442
aa(lp443
S'CAR'
p444
aS'800'
p445
aS'880'
p446
aa(lp447
S'BREAK-DOWN'
p448
aS'980'
p449
aS'1260'
p450
aasg24
S'1460'
p451
sg26
S'ch6-538_39_small_0.mov'
p452
sg28
(lp453
g436
ag440
ag444
ag448
asg30
S"Frank's car broke down."
p454
sg32
S'180'
p455
ssI16
(dp456
g2
(lp457
(lp458
S'POSS-3p:i'
p459
aS'480'
p460
aS'580'
p461
aa(lp462
S'NEW'
p463
aS'760'
p464
aS'880'
p465
aa(lp466
S'CAR'
p467
aS'980'
p468
aS'1060'
p469
aa(lp470
S'BREAK-DOWN'
p471
aS'1140'
p472
aS'1400'
p473
aasg24
S'1500'
p474
sg26
S'ch6-540_41_small_0.mov'
p475
sg28
(lp476
g459
ag463
ag467
ag471
asg30
S'His/her new car broke down.'
p477
sg32
S'300'
p478
ssI17
(dp479
g2
(lp480
(lp481
S'IX:i'
p482
aS'400'
p483
aS'480'
p484
aa(lp485
S'BOOK'
p486
aS'580'
p487
aS'640'
p488
aa(lp489
S'POSS:j'
p490
aS'760'
p491
aS'1020'
p492
aasg24
S'1200'
p493
sg26
Nsg28
(lp494
g482
ag486
ag490
asg30
S'That book is his/hers.'
p495
sg32
S'140'
p496
ssI18
(dp497
g2
(lp498
(lp499
S'IX-1p'
p500
aS'80'
p501
aS'100'
p502
aa(lp503
S'FIND'
p504
aS'220'
p505
aS'320'
p506
aa(lp507
S'SOMETHING/ONE'
p508
aS'380'
p509
aS'540'
p510
aa(lp511
S'BOOK'
p512
aS'700'
p513
aS'920'
p514
aasg24
S'1100'
p515
sg26
S'ch6-542_42_small_0.mov'
p516
sg28
(lp517
g500
ag504
ag508
ag512
asg30
S"I found someone's book."
p518
sg32
g55
ssI19
(dp519
g2
(lp520
(lp521
S'fs-FRANK'
p522
aS'140'
p523
aS'320'
p524
aa(lp525
S'SEARCH-FOR'
p526
aS'400'
p527
aS'620'
p528
aa(lp529
S'WHO'
p530
aS'720'
p531
aS'820'
p532
aa(lp533
S'POSS-3p:i'
p534
aS'880'
p535
aS'940'
p536
aa(lp537
S'BOOK'
p538
aS'1060'
p539
aS'1160'
p540
aa(lp541
S'WHAT'
p542
aS'1220'
p543
aS'1520'
p544
aasg24
S'1800'
p545
sg26
S'ch6-543_351_small_0.mov'
p546
sg28
(lp547
g522
ag526
ag530
ag534
ag538
ag542
asg30
S'Frank is looking for whose book?'
p548
sg32
S'60'
p549
ssI20
(dp550
g2
(lp551
(lp552
S'fs-JOHN'
p553
aS'140'
p554
aS'260'
p555
aa(lp556
S'POSS-3p:i'
p557
aS'320'
p558
aS'400'
p559
aa(lp560
S'BROTHER'
p561
aS'560'
p562
aS'700'
p563
aa(lp564
S'ARRIVE'
p565
aS'820'
p566
aS'1040'
p567
aasg24
S'1220'
p568
sg26
S'ch6-544_44_small_0.mov'
p569
sg28
(lp570
g553
ag557
ag561
ag565
asg30
S"John's brother arrives."
p571
sg32
S'40'
p572
ssI21
(dp573
g2
(lp574
(lp575
S'fs-JOHN'
p576
aS'180'
p577
aS'300'
p578
aa(lp579
S'POSS-3p:i'
p580
aS'380'
p581
aS'480'
p582
aa(lp583
S'fs-LEG'
p584
aS'560'
p585
aS'680'
p586
aa(lp587
S'HURT'
p588
aS'820'
p589
aS'1200'
p590
aasg24
S'1360'
p591
sg26
S'ch6-545_46_small_0.mov'
p592
sg28
(lp593
g576
ag580
ag584
ag588
asg30
S"John's leg hurts."
p594
sg32
g55
ssI22
(dp595
g2
(lp596
(lp597
S'fs-JOHN'
p598
aS'500'
p599
aS'620'
p600
aa(lp601
S'fs-LEG'
p602
aS'720'
p603
aS'920'
p604
aa(lp605
S'HURT'
p606
aS'1040'
p607
aS'1440'
p608
aasg24
S'1640'
p609
sg26
S'ch6-546_47_small_0.mov'
p610
sg28
(lp611
g598
ag602
ag606
asg30
S"John's leg hurts."
p612
sg32
S'300'
p613
ssI23
(dp614
g2
(lp615
(lp616
S'fs-JOHN:i'
p617
aS'400'
p618
aS'720'
p619
aa(lp620
S'POSS-3p:i'
p621
aS'800'
p622
aS'880'
p623
aa(lp624
S'FRIEND:j'
p625
aS'1000'
p626
aS'1180'
p627
aa(lp628
S'(1h)HAVE'
p629
aS'1320'
p630
aS'1380'
p631
aa(lp632
S'CANDY'
p633
aS'1500'
p634
aS'1680'
p635
aasg24
S'1860'
p636
sg26
S'ch6-547_181_small_0.mov'
p637
sg28
(lp638
g617
ag621
ag625
ag629
ag633
asg30
S"John's friend has candy."
p639
sg32
S'260'
p640
ssI24
(dp641
g2
(lp642
(lp643
S'fs-JOHN:i'
p644
aS'480'
p645
aS'700'
p646
aa(lp647
S'POSS-3p:i'
p648
aS'880'
p649
aS'920'
p650
aa(lp651
S'FRIEND:j'
p652
aS'1020'
p653
aS'1200'
p654
aa(lp655
S'HAVE'
p656
aS'1340'
p657
aS'1400'
p658
aa(lp659
S'CANDY'
p660
aS'1500'
p661
aS'1700'
p662
aasg24
S'1860'
p663
sg26
S'ch6-548_182_small_0.mov'
p664
sg28
(lp665
g644
ag648
ag652
ag656
ag660
asg30
S"John's friend has candy."
p666
sg32
S'200'
p667
ssI25
(dp668
g2
(lp669
(lp670
S'part:indef'
p671
aS'240'
p672
aS'340'
p673
aa(lp674
S'SOMETHING/ONE'
p675
aS'440'
p676
aS'540'
p677
aa(lp678
S'part:indef'
p679
aS'660'
p680
aS'740'
p681
aa(lp682
S'WOMAN'
p683
aS'860'
p684
aS'980'
p685
aa(lp686
S'ARRIVE'
p687
aS'1080'
p688
aS'1160'
p689
aa(lp690
S'HERE'
p691
aS'1320'
p692
aS'1400'
p693
aasg24
S'1640'
p694
sg26
S'ch6-549_352_small_0.mov'
p695
sg28
(lp696
g671
ag675
ag679
ag683
ag687
ag691
asg30
S"I don't know.  Some woman arrived here."
p697
sg32
S'60'
p698
ssI26
(dp699
g2
(lp700
(lp701
S'part:indef'
p702
aS'240'
p703
aS'380'
p704
aa(lp705
S'WOMAN'
p706
aS'540'
p707
aS'660'
p708
aa(lp709
S'part:indef'
p710
aS'780'
p711
aS'920'
p712
aa(lp713
S'ARRIVE'
p714
aS'1040'
p715
aS'1220'
p716
aa(lp717
S'HERE'
p718
aS'1320'
p719
aS'1380'
p720
aasg24
S'1480'
p721
sg26
S'ch6-550_353_small_0.mov'
p722
sg28
(lp723
g702
ag706
ag710
ag714
ag718
asg30
S'Well, some woman arrived.'
p724
sg32
S'140'
p725
ssI27
(dp726
g2
(lp727
(lp728
S'WOMAN'
p729
aS'380'
p730
aS'500'
p731
aa(lp732
S'ARRIVE'
p733
aS'520'
p734
aS'680'
p735
aa(lp736
S'HERE'
p737
aS'800'
p738
aS'840'
p739
aasg24
S'1020'
p740
sg26
S'ch6-552_355_small_0.mov'
p741
sg28
(lp742
g729
ag733
ag737
asg30
S'Some woman arrived here.'
p743
sg32
S'20'
p744
ssI28
(dp745
g2
(lp746
(lp747
S'IX-3p:i'
p748
aS'420'
p749
aS'460'
p750
aa(lp751
S'CAR'
p752
aS'560'
p753
aS'660'
p754
aa(lp755
S'BLUE'
p756
aS'800'
p757
aS'1060'
p758
aa(lp759
S'fs-SUE'
p760
aS'1140'
p761
aS'1180'
p762
aa(lp763
S'BUY'
p764
aS'1360'
p765
aS'1540'
p766
aasg24
S'1840'
p767
sg26
S'ch6-554_183_small_0.mov'
p768
sg28
(lp769
g748
ag752
ag756
ag760
ag764
asg30
S'Sue bought (is buying) that blue car.'
p770
sg32
S'100'
p771
ssI29
(dp772
g2
(lp773
(lp774
S'IX-3p:i'
p775
aS'300'
p776
aS'380'
p777
aa(lp778
S'CAR'
p779
aS'460'
p780
aS'540'
p781
aa(lp782
S'BLUE'
p783
aS'620'
p784
aS'740'
p785
aa(lp786
S'fs-SUE'
p787
aS'860'
p788
aS'1000'
p789
aa(lp790
S'BUY:i'
p791
aS'1080'
p792
aS'1260'
p793
aasg24
S'1400'
p794
sg26
S'ch6-555_184_small_0.mov'
p795
sg28
(lp796
g775
ag779
ag783
ag787
ag791
asg30
S'Sue buought (is buying) that blue car.'
p797
sg32
S'20'
p798
ssI30
(dp799
g2
(lp800
(lp801
S'SOMETHING/ONE'
p802
aS'180'
p803
aS'320'
p804
aa(lp805
S'CAR'
p806
aS'440'
p807
aS'480'
p808
aa(lp809
S'STOLE'
p810
aS'740'
p811
aS'840'
p812
aasg24
S'1140'
p813
sg26
S'ch6-556_357_small_0.mov'
p814
sg28
(lp815
g802
ag806
ag810
asg30
S"Someone's car was stolen."
p816
sg32
g55
ssI31
(dp817
g2
(lp818
(lp819
S'SOMETHING/ONE'
p820
aS'360'
p821
aS'520'
p822
aa(lp823
S'POSS-3p:i'
p824
aS'620'
p825
aS'660'
p826
aa(lp827
S'CAR'
p828
aS'760'
p829
aS'880'
p830
aa(lp831
S'STOLE'
p832
aS'1080'
p833
aS'1320'
p834
aa(lp835
g49
aS'1540'
p836
aasg24
S'1760'
p837
sg26
S'ch6-557_170_small_0.mov'
p838
sg28
(lp839
g820
ag824
ag828
ag832
ag49
asg30
S"Someone's car was stolen."
p840
sg32
S'80'
p841
ssI32
(dp842
g2
(lp843
(lp844
S'fs-JOHN'
p845
ag55
aS'260'
p846
aa(lp847
S'POSS-3p:i'
p848
aS'340'
p849
aS'400'
p850
aa(lp851
S'OLD'
p852
aS'520'
p853
aS'580'
p854
aa(lp855
S'HOUSE'
p856
aS'680'
p857
aS'780'
p858
aa(lp859
S'SOLD'
p860
aS'920'
p861
aS'980'
p862
aa(lp863
S'YESTERDAY'
p864
aS'1120'
p865
aS'1300'
p866
aasg24
S'1560'
p867
sg26
S'ch6-558_172_small_0.mov'
p868
sg28
(lp869
g845
ag848
ag852
ag856
ag860
ag864
asg30
S"John's old house was sold yesterday."
p870
sg32
g55
ssI33
(dp871
g2
(lp872
(lp873
S'fs-SUE'
p874
aS'280'
p875
aS'480'
p876
aa(lp877
S'BUY'
p878
aS'680'
p879
aS'840'
p880
aa(lp881
S'IX-3p:i'
p882
aS'940'
p883
aS'1000'
p884
aa(lp885
S'CAR'
p886
aS'1120'
p887
aS'1260'
p888
aa(lp889
S'BLUE'
p890
aS'1340'
p891
aS'1400'
p892
aasg24
S'1660'
p893
sg26
S'ch6-559_173_small_0.mov'
p894
sg28
(lp895
g874
ag878
ag882
ag886
ag890
asg30
S'Sue bought that blue car.'
p896
sg32
g55
ssI34
(dp897
g2
(lp898
(lp899
S'fs-SUE'
p900
aS'300'
p901
aS'420'
p902
aa(lp903
S'BUY'
p904
aS'580'
p905
aS'640'
p906
aa(lp907
S'IX-3p:i'
p908
aS'700'
p909
aS'740'
p910
aa(lp911
S'CAR'
p912
aS'820'
p913
aS'880'
p914
aa(lp915
S'BLUE'
p916
aS'960'
p917
aS'1060'
p918
aasg24
S'1240'
p919
sg26
S'ch6-560_175_small_0.mov'
p920
sg28
(lp921
g900
ag904
ag908
ag912
ag916
asg30
S'Sueis buying that blue car.'
p922
sg32
S'80'
p923
ssI35
(dp924
g2
(lp925
(lp926
S'fs-SUE'
p927
aS'480'
p928
aS'620'
p929
aa(lp930
S'BUY'
p931
aS'740'
p932
aS'800'
p933
aa(lp934
S'IX-3p:i'
p935
aS'880'
p936
aS'940'
p937
aa(lp938
S'CAR'
p939
aS'1060'
p940
aS'1180'
p941
aa(lp942
S'BLUE'
p943
aS'1260'
p944
aS'1320'
p945
aasg24
S'1560'
p946
sg26
S'ch6-561_174_small_0.mov'
p947
sg28
(lp948
g927
ag931
ag935
ag939
ag943
asg30
S'Sue is buying that blue car.'
p949
sg32
S'160'
p950
ssI36
(dp951
g2
(lp952
(lp953
S'fs-SUE'
p954
aS'180'
p955
aS'320'
p956
aa(lp957
S'BUY'
p958
aS'460'
p959
aS'560'
p960
aa(lp961
S'CAR'
p962
aS'680'
p963
aS'740'
p964
aa(lp965
S'BLUE'
p966
aS'800'
p967
aS'880'
p968
aasg24
S'1180'
p969
sg26
S'ch6-562_176_small_0.mov'
p970
sg28
(lp971
g954
ag958
ag962
ag966
asg30
S'Sue is buying the blue car.'
p972
sg32
S'60'
p973
ssI37
(dp974
g2
(lp975
(lp976
S'fs-JOHN'
p977
aS'140'
p978
aS'260'
p979
aa(lp980
S'READ+'
p981
aS'360'
p982
aS'480'
p983
aa(lp984
S'BOOK'
p985
aS'620'
p986
aS'680'
p987
aasg24
S'860'
p988
sg26
S'ch6-563_342_small_0.mov'
p989
sg28
(lp990
g977
ag981
ag985
asg30
S'John read a/the book.'
p991
sg32
S'40'
p992
ssI38
(dp993
g2
(lp994
(lp995
S'fs-JOHN'
p996
aS'180'
p997
aS'320'
p998
aa(lp999
S'READ'
p1000
aS'440'
p1001
aS'520'
p1002
aa(lp1003
S'BOOK'
p1004
aS'660'
p1005
aS'760'
p1006
aasg24
S'900'
p1007
sg26
S'ch6-564_345_small_0.mov'
p1008
sg28
(lp1009
g996
ag1000
ag1004
asg30
S'John read a/the book.'
p1010
sg32
S'20'
p1011
ssI39
(dp1012
g2
(lp1013
(lp1014
S'ONE'
p1015
aS'500'
p1016
aS'580'
p1017
aa(lp1018
S'STUDENT'
p1019
aS'700'
p1020
aS'800'
p1021
aa(lp1022
g49
aS'900'
p1023
aa(lp1024
S'SOMETHING/ONE'
p1025
aS'1000'
p1026
aS'1200'
p1027
aa(lp1028
S'BORROW'
p1029
aS'1400'
p1030
aS'1480'
p1031
aa(lp1032
S'VIDEOTAPE'
p1033
aS'1540'
p1034
aS'1800'
p1035
aa(lp1036
g49
aS'1900'
p1037
aasg24
S'1900'
p1038
sg26
S'ch6-566_177_small_0.mov'
p1039
sg28
(lp1040
g1015
ag1019
ag49
ag1025
ag1029
ag1033
ag49
asg30
S'A student, someone, borrowed a videotape.'
p1041
sg32
S'300'
p1042
ssI40
(dp1043
g2
(lp1044
(lp1045
S'fs-JOHN'
p1046
aS'160'
p1047
aS'240'
p1048
aa(lp1049
S'POSS-3p:i'
p1050
aS'300'
p1051
aS'320'
p1052
aa(lp1053
S'MOTHER'
p1054
aS'400'
p1055
aS'420'
p1056
aa(lp1057
S'ARRIVE'
p1058
aS'520'
p1059
aS'720'
p1060
aa(lp1061
S'WHO'
p1062
aS'900'
p1063
aS'1000'
p1064
aa(lp1065
S'MOTHER'
p1066
aS'1080'
p1067
aS'1160'
p1068
aa(lp1069
S'ARRIVE'
p1070
aS'1300'
p1071
aS'1520'
p1072
aasg24
S'1880'
p1073
sg26
S'ch6-568_48_small_0.mov'
p1074
sg28
(lp1075
g1046
ag1050
ag1054
ag1058
ag1062
ag1066
ag1070
asg30
S"John's mother arrived.  Whose mother arrived?"
p1076
sg32
S'60'
p1077
ssI41
(dp1078
g2
(lp1079
(lp1080
S'POSS-3p:i'
p1081
aS'480'
p1082
aS'580'
p1083
aa(lp1084
S'NEW'
p1085
aS'800'
p1086
aS'880'
p1087
aa(lp1088
S'CAR'
p1089
aS'960'
p1090
aS'1040'
p1091
aa(lp1092
S'BREAK-DOWN'
p1093
aS'1120'
p1094
aS'1320'
p1095
aasg24
S'1620'
p1096
sg26
S'ch6-662_40_small_0.mov'
p1097
sg28
(lp1098
g1081
ag1085
ag1089
ag1093
asg30
S'His/her new car broke down.'
p1099
sg32
S'300'
p1100
ssI42
(dp1101
g2
(lp1102
(lp1103
S'fs-JOHN'
p1104
aS'140'
p1105
aS'200'
p1106
aa(lp1107
S'BUY'
p1108
aS'400'
p1109
aS'460'
p1110
aa(lp1111
S'WHAT'
p1112
aS'520'
p1113
aS'620'
p1114
aa(lp1115
S'YESTERDAY'
p1116
aS'780'
p1117
aS'1000'
p1118
aa(lp1119
S'BOOK+'
p1120
aS'1220'
p1121
aS'1460'
p1122
aasg24
S'1540'
p1123
sg26
S'ch7-396_53_small_0.mov'
p1124
sg28
(lp1125
g1104
ag1108
ag1112
ag1116
ag1120
asg30
S'What did John buy yesterday?  Some books.'
p1126
sg32
S'20'
p1127
ssI43
(dp1128
g2
(lp1129
(lp1130
S'fs-JOHN'
p1131
aS'560'
p1132
aS'740'
p1133
aa(lp1134
S'SEE'
p1135
aS'820'
p1136
aS'920'
p1137
aa(lp1138
S'WHO'
p1139
aS'980'
p1140
aS'1060'
p1141
aa(lp1142
S'WHAT'
p1143
aS'1160'
p1144
aS'1400'
p1145
aasg24
S'1580'
p1146
sg26
S'ch7-569_200_small_0.mov'
p1147
sg28
(lp1148
g1131
ag1135
ag1139
ag1143
asg30
S'Who did John see, who?'
p1149
sg32
g55
ssI44
(dp1150
g2
(lp1151
(lp1152
S'IX-3p:i'
p1153
aS'120'
p1154
aS'200'
p1155
aa(lp1156
S'fs-JOHN'
p1157
aS'280'
p1158
aS'340'
p1159
aa(lp1160
S'SEE'
p1161
aS'480'
p1162
aS'520'
p1163
aa(lp1164
S'WHO'
p1165
aS'600'
p1166
aS'720'
p1167
aa(lp1168
S'IX-3p:i'
p1169
aS'780'
p1170
aS'800'
p1171
aa(lp1172
S'WHO'
p1173
aS'920'
p1174
aS'960'
p1175
aa(lp1176
g49
aS'1220'
p1177
aasg24
S'1380'
p1178
sg26
S'ch7-571_85_small_0.mov'
p1179
sg28
(lp1180
g1153
ag1157
ag1161
ag1165
ag1169
ag1173
ag49
asg30
S'Who did John see, him, who?'
p1181
sg32
S'40'
p1182
ssI45
(dp1183
g2
(lp1184
(lp1185
S'WHAT'
p1186
aS'460'
p1187
aS'600'
p1188
aa(lp1189
S'fs-MARY'
p1190
aS'720'
p1191
aS'880'
p1192
aa(lp1193
S'REFUSE'
p1194
aS'960'
p1195
aS'1080'
p1196
aa(lp1197
S'EAT'
p1198
aS'1200'
p1199
aS'1220'
p1200
aa(lp1201
S'WHAT'
p1202
aS'1340'
p1203
aS'1520'
p1204
aasg24
S'1620'
p1205
sg26
Nsg28
(lp1206
g1186
ag1190
ag1194
ag1198
ag1202
asg30
S"What won't Mary eat?"
p1207
sg32
g55
ssI46
(dp1208
g2
(lp1209
(lp1210
S'fs-JOHN:i'
p1211
aS'460'
p1212
aS'700'
p1213
aa(lp1214
S'fs-MARY'
p1215
aS'880'
p1216
aS'1000'
p1217
aa(lp1218
S'LOVE'
p1219
aS'1120'
p1220
aS'1160'
p1221
aa(lp1222
S'IX-3p:i'
p1223
aS'1240'
p1224
aS'1280'
p1225
aasg24
S'1580'
p1226
sg26
S'ch7-573_203_small_0.mov'
p1227
sg28
(lp1228
g1211
ag1215
ag1219
ag1223
asg30
S'As for John, Mary loves him.'
p1229
sg32
S'80'
p1230
ssI47
(dp1231
g2
(lp1232
(lp1233
S'fs-JOHN'
p1234
aS'560'
p1235
aS'920'
p1236
aa(lp1237
S'IX-3p:i'
p1238
aS'1000'
p1239
aS'1060'
p1240
aa(lp1241
S'LIKE'
p1242
aS'1180'
p1243
aS'1260'
p1244
aa(lp1245
S'fs-MARY'
p1246
aS'1360'
p1247
aS'1580'
p1248
aasg24
S'1860'
p1249
sg26
S'ch7-574_185_small_0.mov'
p1250
sg28
(lp1251
g1234
ag1238
ag1242
ag1246
asg30
S'As for John, he likes Mary.'
p1252
sg32
g55
ssI48
(dp1253
g2
(lp1254
(lp1255
S'WHO'
p1256
aS'480'
p1257
aS'660'
p1258
aa(lp1259
S'VEGETABLE'
p1260
aS'840'
p1261
aS'980'
p1262
aa(lp1263
S'PREFER'
p1264
aS'1120'
p1265
aS'1180'
p1266
aa(lp1267
S'POTATO'
p1268
aS'1300'
p1269
aS'1460'
p1270
aa(lp1271
S'WHAT'
p1272
aS'1600'
p1273
aS'1620'
p1274
aa(lp1275
g49
aS'1860'
p1276
aasg24
S'2080'
p1277
sg26
S'ch7-575_204_small_0.mov'
p1278
sg28
(lp1279
g1256
ag1260
ag1264
ag1268
ag1272
ag49
asg30
S'Who, as for vegetables, prefers potatoes?'
p1280
sg32
S'20'
p1281
ssI49
(dp1282
g2
(lp1283
(lp1284
S'WHAT'
p1285
aS'380'
p1286
aS'500'
p1287
aa(lp1288
S'fs-JOHN'
p1289
aS'580'
p1290
aS'700'
p1291
aa(lp1292
S'LOVE'
p1293
aS'760'
p1294
aS'820'
p1295
aa(lp1296
S'WHAT'
p1297
aS'980'
p1298
aS'1060'
p1299
aa(lp1300
g49
aS'1160'
p1301
aasg24
S'1360'
p1302
sg26
S'ch7-576_186_small_0.mov'
p1303
sg28
(lp1304
g1285
ag1289
ag1293
ag1297
ag49
asg30
S'What, what does John love?'
p1305
sg32
S'40'
p1306
ssI50
(dp1307
g2
(lp1308
(lp1309
S'WHAT'
p1310
aS'260'
p1311
aS'300'
p1312
aa(lp1313
S'fs-JOHN'
p1314
aS'400'
p1315
aS'500'
p1316
aa(lp1317
S'LOVE'
p1318
aS'620'
p1319
aS'680'
p1320
aa(lp1321
S'WHAT'
p1322
aS'820'
p1323
aS'840'
p1324
aa(lp1325
g49
aS'1060'
p1326
aasg24
S'1340'
p1327
sg26
S'ch7-578_49_small_0.mov'
p1328
sg28
(lp1329
g1310
ag1314
ag1318
ag1322
ag49
asg30
S'What, what does John love?'
p1330
sg32
S'120'
p1331
ssI51
(dp1332
g2
(lp1333
(lp1334
S'WHAT'
p1335
aS'140'
p1336
aS'160'
p1337
aa(lp1338
S'fs-JOHN'
p1339
aS'260'
p1340
aS'360'
p1341
aa(lp1342
S'LOVE'
p1343
aS'480'
p1344
aS'500'
p1345
aa(lp1346
S'WHAT'
p1347
aS'620'
p1348
aS'660'
p1349
aa(lp1350
g49
aS'800'
p1351
aasg24
S'1080'
p1352
sg26
S'ch7-579_50_small_0.mov'
p1353
sg28
(lp1354
g1335
ag1339
ag1343
ag1347
ag49
asg30
S'What, what does John love?'
p1355
sg32
g55
ssI52
(dp1356
g2
(lp1357
(lp1358
S'WHO'
p1359
aS'340'
p1360
aS'360'
p1361
aa(lp1362
S'TELL'
p1363
aS'440'
p1364
aS'520'
p1365
aa(lp1366
S'fs-BILL'
p1367
aS'620'
p1368
aS'760'
p1369
aa(lp1370
S'fs-MARY'
p1371
aS'960'
p1372
aS'1140'
p1373
aa(lp1374
g49
aS'1260'
p1375
aasg24
S'1440'
p1376
sg26
S'ch7-580_51_small_0.mov'
p1377
sg28
(lp1378
g1359
ag1363
ag1367
ag1371
ag49
asg30
S'Who told Bill?  Mary.'
p1379
sg32
S'140'
p1380
ssI53
(dp1381
g2
(lp1382
(lp1383
S'fs-JOHN'
p1384
aS'120'
p1385
aS'220'
p1386
aa(lp1387
S'BUY'
p1388
aS'340'
p1389
aS'420'
p1390
aa(lp1391
S'WHAT'
p1392
aS'480'
p1393
aS'540'
p1394
aa(lp1395
S'YESTERDAY'
p1396
aS'680'
p1397
aS'780'
p1398
aa(lp1399
S'BOOK+'
p1400
aS'980'
p1401
aS'1240'
p1402
aasg24
S'1380'
p1403
sg26
S'ch7-581_189_small_0.mov'
p1404
sg28
(lp1405
g1384
ag1388
ag1392
ag1396
ag1400
asg30
S'What did John buy yesterday?  Books.'
p1406
sg32
g55
ssI54
(dp1407
g2
(lp1408
(lp1409
S'fs-JOHN'
p1410
aS'140'
p1411
aS'180'
p1412
aa(lp1413
S'BUY'
p1414
aS'260'
p1415
aS'340'
p1416
aa(lp1417
S'YESTERDAY'
p1418
aS'460'
p1419
aS'580'
p1420
aa(lp1421
S'WHAT'
p1422
aS'740'
p1423
aS'980'
p1424
aa(lp1425
S'BOOK+'
p1426
aS'1120'
p1427
aS'1320'
p1428
aasg24
S'1640'
p1429
sg26
S'ch7-583_57_small_0.mov'
p1430
sg28
(lp1431
g1410
ag1414
ag1418
ag1422
ag1426
asg30
S'What did John buy yesterday?  Books.'
p1432
sg32
g55
ssI55
(dp1433
g2
(lp1434
(lp1435
S'fs-JOHN'
p1436
aS'280'
p1437
aS'440'
p1438
aa(lp1439
S'BUY'
p1440
aS'520'
p1441
aS'600'
p1442
aa(lp1443
S'WHAT'
p1444
aS'660'
p1445
aS'760'
p1446
aa(lp1447
S'YESTERDAY'
p1448
aS'900'
p1449
aS'1040'
p1450
aa(lp1451
S'BOOK+'
p1452
aS'1260'
p1453
aS'1460'
p1454
aasg24
S'1700'
p1455
sg26
S'ch7-585_188_small_0.mov'
p1456
sg28
(lp1457
g1436
ag1440
ag1444
ag1448
ag1452
asg30
S'What did John buy yesterday?  Books.'
p1458
sg32
S'60'
p1459
ssI56
(dp1460
g2
(lp1461
(lp1462
S'fs-JOHN'
p1463
aS'80'
p1464
aS'180'
p1465
aa(lp1466
S'BUY'
p1467
aS'320'
p1468
aS'500'
p1469
aa(lp1470
S'WHAT'
p1471
aS'600'
p1472
aS'820'
p1473
aa(lp1474
S'BOOK+'
p1475
aS'1000'
p1476
aS'1220'
p1477
aasg24
S'1540'
p1478
sg26
S'ch7-586_52_small_0.mov'
p1479
sg28
(lp1480
g1463
ag1467
ag1471
ag1475
asg30
S'What did John buy?  Books.'
p1481
sg32
g55
ssI57
(dp1482
g2
(lp1483
(lp1484
S'TELL'
p1485
aS'180'
p1486
aS'280'
p1487
aa(lp1488
S'fs-BILL'
p1489
aS'340'
p1490
aS'440'
p1491
aa(lp1492
S'YESTERDAY'
p1493
aS'580'
p1494
aS'660'
p1495
aa(lp1496
S'WHO'
p1497
aS'740'
p1498
aS'900'
p1499
aa(lp1500
S'fs-MARY'
p1501
aS'1020'
p1502
aS'1240'
p1503
aasg24
S'1500'
p1504
sg26
S'ch7-587_190_small_0.mov'
p1505
sg28
(lp1506
g1485
ag1489
ag1493
ag1497
ag1501
asg30
S'Who told Bill yesterday?  Mary (did).'
p1507
sg32
g55
ssI58
(dp1508
g2
(lp1509
(lp1510
S'TELL'
p1511
aS'240'
p1512
aS'280'
p1513
aa(lp1514
S'fs-BILL'
p1515
aS'360'
p1516
aS'440'
p1517
aa(lp1518
S'YESTERDAY'
p1519
aS'600'
p1520
aS'740'
p1521
aa(lp1522
S'WHO'
p1523
aS'880'
p1524
aS'1040'
p1525
aa(lp1526
g49
aS'1120'
p1527
aa(lp1528
S'fs-MARY'
p1529
aS'1260'
p1530
aS'1480'
p1531
aasg24
S'1720'
p1532
sg26
S'ch7-588_54_small_0.mov'
p1533
sg28
(lp1534
g1511
ag1515
ag1519
ag1523
ag49
ag1529
asg30
S'Who told Bill yesterday?  Mary (did).'
p1535
sg32
S'60'
p1536
ssI59
(dp1537
g2
(lp1538
(lp1539
S'fs-JOHN'
p1540
aS'240'
p1541
aS'380'
p1542
aa(lp1543
S'SEE'
p1544
aS'480'
p1545
aS'560'
p1546
aa(lp1547
g49
aS'680'
p1548
aa(lp1549
S'THROW'
p1550
aS'760'
p1551
aS'940'
p1552
aa(lp1553
S'APPLE'
p1554
aS'1040'
p1555
aS'1120'
p1556
aa(lp1557
S'WHO'
p1558
aS'1180'
p1559
aS'1340'
p1560
aa(lp1561
S'fs-MARY'
p1562
aS'1580'
p1563
aS'1720'
p1564
aasg24
S'1940'
p1565
sg26
S'ch7-597_193_small_0.mov'
p1566
sg28
(lp1567
g1540
ag1544
ag49
ag1550
ag1554
ag1558
ag1562
asg30
S'Who did John see throw the apple?  Mary.'
p1568
sg32
S'80'
p1569
ssI60
(dp1570
g2
(lp1571
(lp1572
S'ARRIVE'
p1573
aS'220'
p1574
aS'380'
p1575
aa(lp1576
S'WHO'
p1577
aS'580'
p1578
aS'640'
p1579
aa(lp1580
g49
aS'760'
p1581
aasg24
S'1020'
p1582
sg26
S'ch7-599_199_small_0.mov'
p1583
sg28
(lp1584
g1573
ag1577
ag49
asg30
S'Who arrived?'
p1585
sg32
S'20'
p1586
ssI61
(dp1587
g2
(lp1588
(lp1589
S'LOVE'
p1590
aS'320'
p1591
aS'360'
p1592
aa(lp1593
S'fs-JOHN'
p1594
aS'460'
p1595
aS'580'
p1596
aa(lp1597
S'WHO'
p1598
aS'680'
p1599
aS'880'
p1600
aasg24
S'1160'
p1601
sg26
S'ch7-608_198_small_0.mov'
p1602
sg28
(lp1603
g1590
ag1594
ag1598
asg30
S'Who loves John?'
p1604
sg32
S'140'
p1605
ssI62
(dp1606
g2
(lp1607
(lp1608
S'LOVE'
p1609
aS'220'
p1610
aS'300'
p1611
aa(lp1612
S'fs-JOHN'
p1613
aS'380'
p1614
aS'520'
p1615
aa(lp1616
S'WHO'
p1617
aS'700'
p1618
aS'860'
p1619
aa(lp1620
g49
aS'920'
p1621
aasg24
S'1240'
p1622
sg26
S'ch7-609_80_small_0.mov'
p1623
sg28
(lp1624
g1609
ag1613
ag1617
ag49
asg30
S'Who loves John?'
p1625
sg32
S'100'
p1626
ssI63
(dp1627
g2
(lp1628
(lp1629
S'fs-JOHN'
p1630
aS'160'
p1631
aS'220'
p1632
aa(lp1633
S'SEE'
p1634
aS'360'
p1635
aS'400'
p1636
aa(lp1637
S'WHO'
p1638
aS'480'
p1639
aS'680'
p1640
aa(lp1641
S'WHAT'
p1642
aS'800'
p1643
aS'960'
p1644
aa(lp1645
g49
aS'1060'
p1646
aasg24
S'1300'
p1647
sg26
S'ch7-610_84_small_0.mov'
p1648
sg28
(lp1649
g1630
ag1634
ag1638
ag1642
ag49
asg30
S'Who did John see, who?'
p1650
sg32
S'60'
p1651
ssI64
(dp1652
g2
(lp1653
(lp1654
S'WHO'
p1655
aS'320'
p1656
aS'340'
p1657
aa(lp1658
S'fs-JOHN'
p1659
aS'400'
p1660
aS'500'
p1661
aa(lp1662
S'LOVE'
p1663
aS'600'
p1664
aS'660'
p1665
aa(lp1666
S'WHO'
p1667
aS'820'
p1668
aS'880'
p1669
aa(lp1670
g49
aS'1020'
p1671
aasg24
S'1320'
p1672
sg26
S'ch7-611_86_small_0.mov'
p1673
sg28
(lp1674
g1655
ag1659
ag1663
ag1667
ag49
asg30
S'Who, who does John love?'
p1675
sg32
S'120'
p1676
ssI65
(dp1677
g2
(lp1678
(lp1679
S'WHAT'
p1680
aS'180'
p1681
aS'200'
p1682
aa(lp1683
S'fs-JOHN'
p1684
aS'320'
p1685
aS'380'
p1686
aa(lp1687
S'LIKE'
p1688
aS'480'
p1689
aS'580'
p1690
aa(lp1691
g49
aS'880'
p1692
aasg24
S'1080'
p1693
sg26
S'ch7-612_87_small_0.mov'
p1694
sg28
(lp1695
g1680
ag1684
ag1688
ag49
asg30
S'What is it that John likes?'
p1696
sg32
S'80'
p1697
ssI66
(dp1698
g2
(lp1699
(lp1700
S'WHO'
p1701
aS'460'
p1702
aS'500'
p1703
aa(lp1704
S'ARRIVE'
p1705
aS'580'
p1706
aS'740'
p1707
aa(lp1708
g49
aS'920'
p1709
aasg24
S'1400'
p1710
sg26
S'ch7-614_81_small_0.mov'
p1711
sg28
(lp1712
g1701
ag1705
ag49
asg30
S'Who arrived?'
p1713
sg32
S'260'
p1714
ssI67
(dp1715
g2
(lp1716
(lp1717
S'ARRIVE'
p1718
aS'220'
p1719
aS'380'
p1720
aa(lp1721
S'WHO'
p1722
aS'560'
p1723
aS'600'
p1724
aa(lp1725
g49
aS'800'
p1726
aasg24
S'1000'
p1727
sg26
S'ch7-615_82_small_0.mov'
p1728
sg28
(lp1729
g1718
ag1722
ag49
asg30
S'Who arrived?'
p1730
sg32
S'60'
p1731
ssI68
(dp1732
g2
(lp1733
(lp1734
S'NAME'
p1735
aS'280'
p1736
aS'440'
p1737
aa(lp1738
g49
aS'600'
p1739
aasg24
S'920'
p1740
sg26
S'ch7-616_88_small_0.mov'
p1741
sg28
(lp1742
g1735
ag49
asg30
S'Name?'
p1743
sg32
S'100'
p1744
ss.