(dp0
I0
(dp1
S'Annotated'
p2
(lp3
(lp4
S'fs-JOHN'
p5
aS'220'
p6
aS'400'
p7
aa(lp8
S'IX-3p:i'
p9
aS'440'
p10
aS'580'
p11
aa(lp12
S'HOUSE'
p13
aS'660'
p14
aS'800'
p15
aa(lp16
S'NOW'
p17
aS'840'
p18
aS'1000'
p19
aa(lp20
S'READ+'
p21
aS'1060'
p22
aS'1240'
p23
aa(lp24
S'BOOK+'
p25
aS'1300'
p26
aS'1440'
p27
aasS'EndFrame'
p28
S'1460'
p29
sS'Video'
p30
S'640_master_small.mov'
p31
sS'Words'
p32
(lp33
g5
ag9
ag13
ag17
ag21
ag25
asS'English'
p34
S'John is in the house right now reading a book.'
p35
sS'StartFrame'
p36
S'0'
p37
ssI1
(dp38
g2
(lp39
(lp40
S'IX-3p:i'
p41
aS'1520'
p42
aS'1620'
p43
aa(lp44
S'KISS-FIST'
p45
aS'1760'
p46
aS'1800'
p47
aa(lp48
S'READ+'
p49
aS'1840'
p50
aS'2020'
p51
aa(lp52
S'ABOUT'
p53
aS'2040'
p54
aS'2120'
p55
aa(lp56
S'#CAR'
p57
aS'2200'
p58
aS'2460'
p59
aa(lp60
S'READ+++'
p61
aS'2500'
p62
aS'2920'
p63
aasg28
S'3020'
p64
sg30
S'640_master_small.mov'
p65
sg32
(lp66
g41
ag45
ag49
ag53
ag57
ag61
asg34
S'He loves to read about cars.'
p67
sg36
S'1460'
p68
ssI2
(dp69
g2
(lp70
(lp71
S'IX-3p:i'
p72
aS'3380'
p73
aS'3460'
p74
aa(lp75
S"CAN'T"
p76
aS'3500'
p77
aS'3580'
p78
aa(lp79
S'END'
p80
aS'3620'
p81
aS'3840'
p82
aa(lp83
S'READ'
p84
aS'3900'
p85
aS'4000'
p86
aa(lp87
S'BOOK'
p88
aS'4040'
p89
aS'4220'
p90
aa(lp91
S'i:GIFT:j'
p92
aS'4320'
p93
aS'4580'
p94
aa(lp95
S'#BACK'
p96
aS'4700'
p97
aS'4780'
p98
aa(lp99
S'IX-3p:j'
p100
aS'4800'
p101
aS'5060'
p102
aa(lp103
S'TEACHER'
p104
aS'5140'
p105
aS'5380'
p106
aa(lp107
S'IX-loc:j'
p108
aS'5560'
p109
aS'5620'
p110
aasg28
S'5700'
p111
sg30
S'640_master_small.mov'
p112
sg32
(lp113
g72
ag76
ag80
ag84
ag88
ag92
ag96
ag100
ag104
ag108
asg34
S"If he can't finish reading the book, then he will give it back to the teacher."
p114
sg36
S'3020'
p115
ssI3
(dp116
g2
(lp117
(lp118
S'FINISH'
p119
aS'5820'
p120
aS'6040'
p121
aa(lp122
S'FUTURE'
p123
aS'6120'
p124
aS'6220'
p125
aa(lp126
S'BUY'
p127
aS'6360'
p128
aS'6460'
p129
aa(lp130
S'OTHER'
p131
aS'6520'
p132
aS'6600'
p133
aa(lp134
S'BOOK'
p135
aS'6680'
p136
aS'6920'
p137
aasg28
S'7000'
p138
sg30
S'640_master_small.mov'
p139
sg32
(lp140
g119
ag123
ag127
ag131
ag135
asg34
S'After finishing the book, (he) will buy another book.'
p141
sg36
S'5700'
p142
ssI4
(dp143
g2
(lp144
(lp145
S'MOTHER-FATHER'
p146
aS'7200'
p147
aS'7320'
p148
aa(lp149
S'(2h)alt:GIVE++:i'
p150
aS'7400'
p151
aS'7660'
p152
aa(lp153
S'MANY'
p154
aS'7740'
p155
aS'7880'
p156
aa(lp157
S'BOOK'
p158
aS'7960'
p159
aS'8080'
p160
aa(lp161
S'(2h)alt:GIVE++:i'
p162
aS'8120'
p163
aS'8320'
p164
aa(lp165
S'READ+'
p166
aS'8420'
p167
aS'8600'
p168
aa(lp169
S'EVERYDAY++'
p170
aS'8680'
p171
aS'9260'
p172
aasg28
S'9400'
p173
sg30
S'640_master_small.mov'
p174
sg32
(lp175
g146
ag150
ag154
ag158
ag162
ag166
ag170
asg34
S'His parents give him many books and he reads them everyday.'
p176
sg36
S'7000'
p177
ssI5
(dp178
g2
(lp179
(lp180
S'TEACHER'
p181
aS'9660'
p182
aS'9720'
p183
aa(lp184
S'WANT'
p185
aS'9780'
p186
aS'9900'
p187
aa(lp188
S'IX-3p:i'
p189
aS'9920'
p190
aS'9960'
p191
aa(lp192
S'READ'
p193
aS'10020'
p194
aS'10100'
p195
aa(lp196
S'A-LOT'
p197
aS'10180'
p198
aS'10340'
p199
aa(lp200
S'BOOK+'
p201
aS'10460'
p202
aS'10640'
p203
aasg28
S'11040'
p204
sg30
S'640_master_small.mov'
p205
sg32
(lp206
g181
ag185
ag189
ag193
ag197
ag201
asg34
S'The teacher wants him to read a lot of books.'
p207
sg36
S'9400'
p208
ss.