(dp0
I0
(dp1
S'Annotated'
p2
(lp3
(lp4
S'fs:JOHN'
p5
aS'340'
p6
aS'560'
p7
aa(lp8
S'IN'
p9
aS'740'
p10
aS'800'
p11
aa(lp12
S'IX-3p:i'
p13
aS'900'
p14
aS'920'
p15
aa(lp16
S'HOUSE'
p17
aS'1020'
p18
aS'1100'
p19
aa(lp20
S'IX-loc:i'
p21
aS'1160'
p22
aS'1300'
p23
aa(lp24
S'NOW'
p25
aS'1440'
p26
aS'1480'
p27
aa(lp28
S'IX-3p:i'
p29
aS'1580'
p30
aS'1800'
p31
aa(lp32
S'READ+'
p33
aS'1900'
p34
aS'2120'
p35
aa(lp36
S'BOOK'
p37
aS'2160'
p38
aS'2260'
p39
aa(lp40
S'IX-3p:i'
p41
aS'2360'
p42
aS'2540'
p43
aasS'EndFrame'
p44
S'2760'
p45
sS'Video'
p46
S'548_master_small.mov'
p47
sS'Words'
p48
(lp49
g5
ag9
ag13
ag17
ag21
ag25
ag29
ag33
ag37
ag41
asS'English'
p50
S'John is in the house right now reading a book.'
p51
sS'StartFrame'
p52
S'0'
p53
ssI1
(dp54
g2
(lp55
(lp56
S'IX-3p:i'
p57
aS'3200'
p58
aS'3240'
p59
aa(lp60
S'LIKE'
p61
aS'3400'
p62
aS'3480'
p63
aa(lp64
S'CRAZY'
p65
aS'3700'
p66
aS'3760'
p67
aa(lp68
S'READ'
p69
aS'3860'
p70
aS'3880'
p71
aa(lp72
S'ABOUT'
p73
aS'3960'
p74
aS'4080'
p75
aa(lp76
S'CAR'
p77
aS'4280'
p78
aS'4920'
p79
aasg44
S'5160'
p80
sg46
S'548_master_small.mov'
p81
sg48
(lp82
g57
ag61
ag65
ag69
ag73
ag77
asg50
S'He is crazy about reading about cars.'
p83
sg52
S'2760'
p84
ssI2
(dp85
g2
(lp86
(lp87
S'FINISH'
p88
aS'5580'
p89
aS'5740'
p90
aa(lp91
S'BOOK'
p92
aS'5960'
p93
aS'6140'
p94
aa(lp95
S'READ+'
p96
aS'6300'
p97
aS'6460'
p98
aa(lp99
S'FINISH'
p100
aS'6540'
p101
aS'6580'
p102
aa(lp103
S'FUTURE'
p104
aS'6700'
p105
aS'6720'
p106
aa(lp107
S'TEACHER:k'
p108
aS'7140'
p109
aS'7440'
p110
aasg44
S'7520'
p111
sg46
S'548_master_small.mov'
p112
sg48
(lp113
g88
ag92
ag96
ag100
ag104
ag108
asg50
S'After he finishes reading the book, he will give it to the teacher.'
p114
sg52
S'5160'
p115
ssI3
(dp116
g2
(lp117
(lp118
S'GO'
p119
aS'7700'
p120
aS'7800'
p121
aa(lp122
S'BUY'
p123
aS'7860'
p124
aS'8020'
p125
aa(lp126
S'OTHER'
p127
aS'8160'
p128
aS'8260'
p129
aa(lp130
S'BOOK'
p131
aS'8320'
p132
aS'8580'
p133
aasg44
S'8680'
p134
sg46
S'548_master_small.mov'
p135
sg48
(lp136
g119
ag123
ag127
ag131
asg50
S'Then he will go and buy another book.'
p137
sg52
S'7520'
p138
ssI4
(dp139
g2
(lp140
(lp141
S'MOTHER-FATHER'
p142
aS'8980'
p143
aS'9300'
p144
aa(lp145
S'(2h)alt.GIVE+++:i'
p146
aS'9600'
p147
aS'10120'
p148
aa(lp149
S'BUY++'
p150
aS'10160'
p151
aS'10340'
p152
aa(lp153
S'BOOK'
p154
aS'10360'
p155
aS'10420'
p156
aa(lp157
S'(2h)alt.GIVE+:i'
p158
aS'10480'
p159
aS'10660'
p160
aa(lp161
S'UP-TO-NOW'
p162
aS'10780'
p163
aS'11240'
p164
aasg44
S'11360'
p165
sg46
S'548_master_small.mov'
p166
sg48
(lp167
g142
ag146
ag150
ag154
ag158
ag162
asg50
S'His parents have been giving and buying him books for a while now.'
p168
sg52
S'8680'
p169
ssI5
(dp170
g2
(lp171
(lp172
S'TEACHER'
p173
aS'11820'
p174
aS'11940'
p175
aa(lp176
S'EXPECT'
p177
aS'12100'
p178
aS'12340'
p179
aa(lp180
S'fs-JOHN'
p181
aS'12420'
p182
aS'12500'
p183
aa(lp184
S'READ++'
p185
aS'12540'
p186
aS'12700'
p187
aa(lp188
S'A-LOT'
p189
aS'12760'
p190
aS'13160'
p191
aasg44
S'13160'
p192
sg46
S'548_master_small.mov'
p193
sg48
(lp194
g173
ag177
ag181
ag185
ag189
asg50
S'The teacher expects John to read a lot.'
p195
sg52
S'11360'
p196
ssI6
(dp197
g2
(lp198
(lp199
S'WATCH+'
p200
aS'13360'
p201
aS'13560'
p202
aa(lp203
S'COME-ON+'
p204
aS'13600'
p205
aS'13880'
p206
aa(lp207
S'READ+'
p208
aS'13920'
p209
aS'14120'
p210
aa(lp211
S'part:indef'
p212
aS'14280'
p213
aS'14320'
p214
aasg44
S'14680'
p215
sg46
S'548_master_small.mov'
p216
sg48
(lp217
g200
ag204
ag208
ag212
asg50
S'(The teacher) is continuously watching and encouraging him to read.'
p218
sg52
S'13160'
p219
ss.