(dp0
I0
(dp1
S'Annotated'
p2
(lp3
(lp4
S'fs-JOHN'
p5
aS'220'
p6
aS'520'
p7
aa(lp8
S'ARRIVE'
p9
aS'660'
p10
aS'800'
p11
aa(lp12
S'punct'
p13
aS'920'
p14
aasS'EndFrame'
p15
S'1200'
p16
sS'Video'
p17
S'539_219_small_0.mov'
p18
sS'Words'
p19
(lp20
g5
ag9
ag13
asS'English'
p21
S'John is arriving there.'
p22
sS'StartFrame'
p23
S'0'
p24
ssI1
(dp25
g2
(lp26
(lp27
S'SHOOT'
p28
aS'700'
p29
aS'800'
p30
aa(lp31
S'fs-FRANK'
p32
aS'960'
p33
aS'1140'
p34
aasg15
S'1360'
p35
sg17
S'633_208_small_0.mov'
p36
sg19
(lp37
g28
ag32
asg21
S'(He/She) shoots Frank.'
p38
sg23
S'440'
p39
ssI2
(dp40
g2
(lp41
(lp42
S'fs-JOHN'
p43
aS'300'
p44
aS'460'
p45
aa(lp46
g13
aS'540'
p47
aa(lp48
S'IX-3p:i'
p49
aS'600'
p50
aS'640'
p51
aa(lp52
S'SAY'
p53
aS'740'
p54
aS'780'
p55
aa(lp56
S'LOVE'
p57
aS'900'
p58
aS'1060'
p59
aa(lp60
S'fs-MARY'
p61
aS'1200'
p62
aS'1360'
p63
aasg15
S'1580'
p64
sg17
S'634_209_small_0.mov'
p65
sg19
(lp66
g43
ag13
ag49
ag53
ag57
ag61
asg21
S'As for John, he says (he/John) loves Mary.'
p67
sg23
g24
ssI3
(dp68
g2
(lp69
(lp70
S'fs-JOHN'
p71
aS'240'
p72
aS'440'
p73
aa(lp74
g13
aS'500'
p75
aa(lp76
S'IX-3p:i'
p77
aS'580'
p78
aS'620'
p79
aa(lp80
S'SAY'
p81
aS'700'
p82
aS'740'
p83
aa(lp84
S'LOVE'
p85
aS'840'
p86
aS'1020'
p87
aa(lp88
S'fs-MARY'
p89
aS'1160'
p90
aS'1300'
p91
aasg15
S'1420'
p92
sg17
S'635_210_small_0.mov'
p93
sg19
(lp94
g71
ag13
ag77
ag81
ag85
ag89
asg21
S'As for John, he says (he/John) loves Mary.'
p95
sg23
g24
ssI4
(dp96
g2
(lp97
(lp98
S'fs-JOHN'
p99
aS'440'
p100
aS'700'
p101
aa(lp102
S'i:BLAME:j'
p103
aS'840'
p104
aS'1000'
p105
aa(lp106
g13
aS'1160'
p107
aasg15
S'1420'
p108
sg17
S'636_211_small_0.mov'
p109
sg19
(lp110
g99
ag103
ag13
asg21
S'John blames (him/her).'
p111
sg23
S'140'
p112
ssI5
(dp113
g2
(lp114
(lp115
S'fs-MARY'
p116
aS'440'
p117
aS'620'
p118
aa(lp119
g13
aS'660'
p120
aa(lp121
S'fs-BILL'
p122
aS'780'
p123
aS'880'
p124
aa(lp125
S'SAY'
p126
aS'1040'
p127
aS'1080'
p128
aa(lp129
S'fs-JOHN'
p130
aS'1140'
p131
aS'1320'
p132
aa(lp133
S'LOVE:j'
p134
aS'1460'
p135
aS'1580'
p136
aa(lp137
g13
aS'1680'
p138
aasg15
S'1940'
p139
sg17
S'637_212_small_0.mov'
p140
sg19
(lp141
g116
ag13
ag122
ag126
ag130
ag134
ag13
asg21
S'As for Mary, Bill says John loves (her).'
p142
sg23
S'100'
p143
ssI6
(dp144
g2
(lp145
(lp146
S'fs-JOHN'
p147
aS'200'
p148
aS'400'
p149
aa(lp150
g13
aS'440'
p151
aa(lp152
S'fs-MARY'
p153
aS'520'
p154
aS'680'
p155
aa(lp156
S'i:BLAME:j'
p157
aS'800'
p158
aS'960'
p159
aa(lp160
g13
aS'980'
p161
aasg15
S'1280'
p162
sg17
S'638_213_small_0.mov'
p163
sg19
(lp164
g147
ag13
ag153
ag157
ag13
asg21
S'It is John Mary blames.'
p165
sg23
g24
ssI7
(dp166
g2
(lp167
(lp168
S'fs-JOHN'
p169
aS'340'
p170
aS'540'
p171
aa(lp172
g13
aS'640'
p173
aa(lp174
S'fs-MARY'
p175
aS'740'
p176
aS'900'
p177
aa(lp178
S'i:BLAME:j'
p179
aS'980'
p180
aS'1140'
p181
aasg15
S'1380'
p182
sg17
S'639_214_small_0.mov'
p183
sg19
(lp184
g169
ag13
ag175
ag179
asg21
S'As for John, Mary blames (him).'
p185
sg23
g24
ssI8
(dp186
g2
(lp187
(lp188
S'fs-MARY'
p189
aS'480'
p190
aS'780'
p191
aa(lp192
S'SELF-3p:i'
p193
aS'860'
p194
aS'920'
p195
aa(lp196
S'PREFER'
p197
aS'1020'
p198
aS'1120'
p199
aa(lp200
S'CORN'
p201
aS'1220'
p202
aS'1480'
p203
aasg15
S'1700'
p204
sg17
S'640_206_small_0.mov'
p205
sg19
(lp206
g189
ag193
ag197
ag201
asg21
S'Mary herself prefers corn.'
p207
sg23
S'120'
p208
ssI9
(dp209
g2
(lp210
(lp211
S'fs-MARY'
p212
aS'220'
p213
aS'400'
p214
aa(lp215
S'SELF-3p:i'
p216
aS'500'
p217
aS'560'
p218
aa(lp219
S'PREFER'
p220
aS'680'
p221
aS'720'
p222
aa(lp223
S'CORN'
p224
aS'820'
p225
aS'1100'
p226
aasg15
S'1180'
p227
sg17
S'641_207_small_0.mov'
p228
sg19
(lp229
g212
ag216
ag220
ag224
asg21
S'Mary herself prefers corn.'
p230
sg23
g24
ssI10
(dp231
g2
(lp232
(lp233
S'PEOPLE'
p234
aS'400'
p235
aS'600'
p236
aa(lp237
S'CLASS:i'
p238
aS'720'
p239
aS'820'
p240
aa(lp241
S'(2h)alt.i:GIFT+:j'
p242
aS'900'
p243
aS'1420'
p244
aa(lp245
S'fs-JANA'
p246
aS'1500'
p247
aS'1880'
p248
aa(lp249
S'fs-TOY'
p250
aS'2100'
p251
aS'2220'
p252
aasg15
S'2420'
p253
sg17
S'642_215_small_0.mov'
p254
sg19
(lp255
g234
ag238
ag242
ag246
ag250
asg21
S'People are giving Jana toys.'
p256
sg23
S'100'
p257
ssI11
(dp258
g2
(lp259
(lp260
S'PEOPLE'
p261
aS'180'
p262
aS'380'
p263
aa(lp264
S'CLASS:i'
p265
aS'500'
p266
aS'600'
p267
aa(lp268
S'(2h)alt.i:GIFT++:j'
p269
aS'800'
p270
aS'1360'
p271
aa(lp272
S'fs-JANA'
p273
aS'1460'
p274
aS'1820'
p275
aa(lp276
S'TOY'
p277
aS'1920'
p278
aS'2080'
p279
aasg15
S'2200'
p280
sg17
S'643_216_small_0.mov'
p281
sg19
(lp282
g261
ag265
ag269
ag273
ag277
asg21
S'People are giving Jana toys.'
p283
sg23
g24
ssI12
(dp284
g2
(lp285
(lp286
S'MANY'
p287
aS'420'
p288
aS'620'
p289
aa(lp290
S'PEOPLE'
p291
aS'740'
p292
aS'880'
p293
aa(lp294
S'(2h)alt.GIFT+:j'
p295
aS'1000'
p296
aS'1420'
p297
aa(lp298
S'fs-JANA:j'
p299
aS'1520'
p300
aS'1780'
p301
aa(lp302
S'TOY'
p303
aS'1920'
p304
aS'2060'
p305
aasg15
S'2240'
p306
sg17
S'644_217_small_0.mov'
p307
sg19
(lp308
g287
ag291
ag295
ag299
ag303
asg21
S'Many people are giving Jana toys.'
p309
sg23
S'220'
p310
ssI13
(dp311
g2
(lp312
(lp313
S'fs-JOHN'
p314
aS'260'
p315
aS'680'
p316
aa(lp317
S'LOVE'
p318
aS'920'
p319
aS'1040'
p320
aa(lp321
S'fs-MARY'
p322
aS'1120'
p323
aS'1300'
p324
aasg15
S'1520'
p325
sg17
S'645_218_small_0.mov'
p326
sg19
(lp327
g314
ag318
ag322
asg21
S'John loves Mary.'
p328
sg23
S'40'
p329
ssI14
(dp330
g2
(lp331
(lp332
S'fs-JOHN'
p333
aS'180'
p334
aS'380'
p335
aa(lp336
S'ARRIVE'
p337
aS'460'
p338
aS'660'
p339
aa(lp340
g13
aS'780'
p341
aasg15
S'1120'
p342
sg17
S'646_222_small_0.mov'
p343
sg19
(lp344
g333
ag337
ag13
asg21
S'John is arriving.'
p345
sg23
S'20'
p346
ssI15
(dp347
g2
(lp348
(lp349
S'fs-JOHN'
p350
aS'200'
p351
aS'480'
p352
aa(lp353
S'ARRIVE'
p354
aS'540'
p355
aS'960'
p356
aasg15
S'1320'
p357
sg17
S'647_221_small_0.mov'
p358
sg19
(lp359
g350
ag354
asg21
S'John is arriving.'
p360
sg23
S'40'
p361
ssI16
(dp362
g2
(lp363
(lp364
S'fs-JOHN'
p365
aS'340'
p366
aS'840'
p367
aa(lp368
S'ARRIVE'
p369
aS'960'
p370
aS'1140'
p371
aasg15
S'1460'
p372
sg17
S'648_220_small_0.mov'
p373
sg19
(lp374
g365
ag369
asg21
S'John is arriving.'
p375
sg23
S'120'
p376
ssI17
(dp377
g2
(lp378
(lp379
S'#ALL'
p380
aS'460'
p381
aS'980'
p382
aa(lp383
S'BOY'
p384
aS'1100'
p385
aS'1120'
p386
aa(lp387
S'CLASS:i'
p388
aS'1220'
p389
aS'1340'
p390
aa(lp391
S'(2h)alt.i:GIVE++:j'
p392
aS'1440'
p393
aS'1860'
p394
aa(lp395
S'TEACHER'
p396
aS'2040'
p397
aS'2160'
p398
aa(lp399
S'APPLE'
p400
aS'2280'
p401
aS'2420'
p402
aasg15
S'2600'
p403
sg17
S'649_225_small_0.mov'
p404
sg19
(lp405
g380
ag384
ag388
ag392
ag396
ag400
asg21
S'All the boys in the class each gave the teacher an apple.'
p406
sg23
S'80'
p407
ssI18
(dp408
g2
(lp409
(lp410
S'#ALL'
p411
aS'300'
p412
aS'440'
p413
aa(lp414
S'BOY'
p415
aS'560'
p416
aS'660'
p417
aa(lp418
S'(2h)alt.GIFT++:j'
p419
aS'780'
p420
aS'1320'
p421
aa(lp422
S'TEACHER'
p423
aS'1500'
p424
aS'1600'
p425
aa(lp426
S'APPLE'
p427
aS'1720'
p428
aS'1880'
p429
aasg15
S'2080'
p430
sg17
S'650_224_small_0.mov'
p431
sg19
(lp432
g411
ag415
ag419
ag423
ag427
asg21
S'All the boys each give the teacher an apple.'
p433
sg23
g24
ssI19
(dp434
g2
(lp435
(lp436
S'#ALL'
p437
aS'300'
p438
aS'420'
p439
aa(lp440
S'BOY'
p441
aS'560'
p442
aS'640'
p443
aa(lp444
S'(2h)alt.GIFT++:j'
p445
aS'760'
p446
aS'1320'
p447
aa(lp448
S'TEACHER'
p449
aS'1480'
p450
aS'1600'
p451
aa(lp452
S'APPLE'
p453
aS'1740'
p454
aS'1880'
p455
aasg15
S'2040'
p456
sg17
S'651_223_small_0.mov'
p457
sg19
(lp458
g437
ag441
ag445
ag449
ag453
asg21
S'All the boys each give the teacher an apple.'
p459
sg23
S'40'
p460
ssI20
(dp461
g2
(lp462
(lp463
S'IX-3p:i'
p464
aS'280'
p465
aS'320'
p466
aa(lp467
S'GIRL'
p468
aS'480'
p469
aS'540'
p470
aa(lp471
S'i:GIFT:j'
p472
aS'640'
p473
aS'860'
p474
aa(lp475
S'fs-JOHN'
p476
aS'1000'
p477
aS'1120'
p478
aa(lp479
S'BOX++'
p480
aS'1220'
p481
aS'1500'
p482
aasg15
S'1680'
p483
sg17
S'652_228_small_0.mov'
p484
sg19
(lp485
g464
ag468
ag472
ag476
ag480
asg21
S'The girl is giving John boxes.'
p486
sg23
S'60'
p487
ssI21
(dp488
g2
(lp489
(lp490
S'TEACHER'
p491
aS'300'
p492
aS'420'
p493
aa(lp494
S'i:GIFT++:j'
p495
aS'480'
p496
aS'1060'
p497
aa(lp498
S'BOY'
p499
aS'1240'
p500
aS'1280'
p501
aa(lp502
S'BOOK'
p503
aS'1420'
p504
aS'1480'
p505
aasg15
S'1640'
p506
sg17
S'653_227_small_0.mov'
p507
sg19
(lp508
g491
ag495
ag499
ag503
asg21
S'The teacher gives the boy a book repeatedly.'
p509
sg23
S'40'
p510
ssI22
(dp511
g2
(lp512
(lp513
S'TEACHER'
p514
aS'540'
p515
aS'800'
p516
aa(lp517
g13
aS'1020'
p518
aa(lp519
S'(2h)GIFT-pl-arc:j'
p520
aS'1160'
p521
aS'1520'
p522
aa(lp523
S'BOY'
p524
aS'1720'
p525
aS'1780'
p526
aa(lp527
S'BOOK'
p528
aS'1900'
p529
aS'2040'
p530
aasg15
S'2240'
p531
sg17
S'654_226_small_0.mov'
p532
sg19
(lp533
g514
ag13
ag520
ag524
ag528
asg21
S'The teacher gives the boys each a book.'
p534
sg23
S'60'
p535
ssI23
(dp536
g2
(lp537
(lp538
S'fs-JOHN'
p539
aS'340'
p540
aS'580'
p541
aa(lp542
S'neu:GIFT:j'
p543
aS'660'
p544
aS'720'
p545
aa(lp546
S'GIRL'
p547
aS'880'
p548
aS'960'
p549
aa(lp550
S'BOX'
p551
aS'1060'
p552
aS'1240'
p553
aasg15
S'1460'
p554
sg17
S'655_231_small_0.mov'
p555
sg19
(lp556
g539
ag543
ag547
ag551
asg21
S'John is giving the girl a box.'
p557
sg23
S'20'
p558
ssI24
(dp559
g2
(lp560
(lp561
S'IX-3p-pl-arc:i'
p562
aS'200'
p563
aS'340'
p564
aa(lp565
S'GIRL'
p566
aS'440'
p567
aS'460'
p568
aa(lp569
S'neu:GIVE:j'
p570
aS'580'
p571
aS'700'
p572
aa(lp573
S'fs-JOHN:j'
p574
aS'800'
p575
aS'960'
p576
aa(lp577
S'BOX++'
p578
aS'1040'
p579
aS'1260'
p580
aasg15
S'1400'
p581
sg17
S'656_230_small_0.mov'
p582
sg19
(lp583
g562
ag566
ag570
ag574
ag578
asg21
S'The girls are giving John boxes.'
p584
sg23
S'40'
p585
ssI25
(dp586
g2
(lp587
(lp588
S'IX-3p-pl-arc:i'
p589
aS'180'
p590
aS'280'
p591
aa(lp592
S'GIRL'
p593
aS'440'
p594
aS'480'
p595
aa(lp596
S'neu:GIFT:j'
p597
aS'600'
p598
aS'720'
p599
aa(lp600
S'fs-JOHN'
p601
aS'800'
p602
aS'980'
p603
aa(lp604
S'BOX++'
p605
aS'1060'
p606
aS'1300'
p607
aasg15
S'1500'
p608
sg17
S'657_229_small_0.mov'
p609
sg19
(lp610
g589
ag593
ag597
ag601
ag605
asg21
S'The girls are giving John boxes.'
p611
sg23
g24
ssI26
(dp612
g2
(lp613
(lp614
S'fs-JOHN'
p615
aS'60'
p616
aS'160'
p617
aa(lp618
S'neu:GIFT-pl-arc'
p619
aS'240'
p620
aS'480'
p621
aa(lp622
S'GIRL'
p623
aS'640'
p624
aS'680'
p625
aa(lp626
S'BOX++'
p627
aS'820'
p628
aS'960'
p629
aasg15
S'1240'
p630
sg17
S'658_234_small_0.mov'
p631
sg19
(lp632
g615
ag619
ag623
ag627
asg21
S'John is giving the girls boxes.'
p633
sg23
S'20'
p634
ssI27
(dp635
g2
(lp636
(lp637
S'fs-JOHN'
p638
aS'540'
p639
aS'800'
p640
aa(lp641
S'neu:GIFT+++:i/j/k'
p642
aS'920'
p643
aS'1160'
p644
aa(lp645
S'GIRL'
p646
aS'1360'
p647
aS'1440'
p648
aa(lp649
S'BOX++'
p650
aS'1540'
p651
aS'1760'
p652
aasg15
S'1960'
p653
sg17
S'660_233_small_0.mov'
p654
sg19
(lp655
g638
ag642
ag646
ag650
asg21
S'John is giving the girls boxes.'
p656
sg23
S'260'
p657
ssI28
(dp658
g2
(lp659
(lp660
S'fs-JOHN'
p661
aS'260'
p662
aS'500'
p663
aa(lp664
S'neu:GIFT:j'
p665
aS'540'
p666
aS'620'
p667
aa(lp668
S'GIRL'
p669
aS'740'
p670
aS'800'
p671
aa(lp672
S'BOX++'
p673
aS'880'
p674
aS'1120'
p675
aasg15
S'1360'
p676
sg17
S'661_232_small_0.mov'
p677
sg19
(lp678
g661
ag665
ag669
ag673
asg21
S'John is giving the girl boxes.'
p679
sg23
S'80'
p680
ssI29
(dp681
g2
(lp682
(lp683
S'fs-JOHN'
p684
aS'200'
p685
aS'260'
p686
aa(lp687
S'TELL:j'
p688
aS'380'
p689
aS'400'
p690
aa(lp691
S'fs-MARY'
p692
aS'460'
p693
aS'560'
p694
aa(lp695
S'IX-1p:i'
p696
aS'720'
p697
aS'740'
p698
aa(lp699
S'BUY'
p700
aS'840'
p701
aS'880'
p702
aa(lp703
S'HOUSE'
p704
aS'1000'
p705
aS'1200'
p706
aasg15
S'1400'
p707
sg17
S'ch5-446_321_small_0.mov'
p708
sg19
(lp709
g684
ag688
ag692
ag696
ag700
ag704
asg21
S'John told Mary, "I am buying a house."'
p710
sg23
S'20'
p711
ssI30
(dp712
g2
(lp713
(lp714
S'fs-JOHN'
p715
aS'160'
p716
aS'220'
p717
aa(lp718
S'i:TELL:j'
p719
aS'340'
p720
aS'360'
p721
aa(lp722
S'fs-MARY'
p723
aS'420'
p724
aS'600'
p725
aa(lp726
S'IX-1p'
p727
aS'760'
p728
aS'800'
p729
aa(lp730
S'BUY'
p731
aS'920'
p732
aS'980'
p733
aa(lp734
S'HOUSE'
p735
aS'1060'
p736
aS'1320'
p737
aasg15
S'1640'
p738
sg17
S'ch5-448_323_small_0.mov'
p739
sg19
(lp740
g715
ag719
ag723
ag727
ag731
ag735
asg21
S'John told Mary, "I am buying a house."'
p741
sg23
S'20'
p742
ssI31
(dp743
g2
(lp744
(lp745
S'fs-MARY'
p746
aS'380'
p747
aS'520'
p748
aa(lp749
g13
aS'720'
p750
aa(lp751
S'VEGETABLE'
p752
aS'1040'
p753
aS'1200'
p754
aa(lp755
g13
aS'1280'
p756
aa(lp757
S'KNOW'
p758
aS'1440'
p759
aS'1480'
p760
aa(lp761
S'IX-3p:i'
p762
aS'1600'
p763
aS'1640'
p764
aa(lp765
S'LIKE'
p766
aS'1740'
p767
aS'1800'
p768
aa(lp769
S'fs-CORN'
p770
aS'1940'
p771
aS'2180'
p772
aasg15
S'2480'
p773
sg17
S'ch5-449_154_small_0.mov'
p774
sg19
(lp775
g746
ag13
ag752
ag13
ag758
ag762
ag766
ag770
asg21
S'As for Mary and vegetables, (he) knows she likes corn.'
p776
sg23
g24
ssI32
(dp777
g2
(lp778
(lp779
S'fs-MARY:i'
p780
aS'180'
p781
aS'320'
p782
aa(lp783
g13
aS'360'
p784
aa(lp785
S'VEGETABLE'
p786
aS'560'
p787
aS'700'
p788
aa(lp789
g13
aS'760'
p790
aa(lp791
S'IX-1p'
p792
aS'860'
p793
aS'900'
p794
aa(lp795
S'KNOW'
p796
aS'1040'
p797
aS'1060'
p798
aa(lp799
S'IX-3p:i'
p800
aS'1140'
p801
aS'1160'
p802
aa(lp803
S'LIKE'
p804
aS'1280'
p805
aS'1340'
p806
aa(lp807
S'fs-CORN'
p808
aS'1440'
p809
aS'1680'
p810
aa(lp811
g13
aS'1740'
p812
aasg15
S'1980'
p813
sg17
S'ch5-450_274_small_0.mov'
p814
sg19
(lp815
g780
ag13
ag786
ag13
ag792
ag796
ag800
ag804
ag808
ag13
asg21
S'As for Mary and vegetables, I know she likes corn.'
p816
sg23
S'20'
p817
ssI33
(dp818
g2
(lp819
(lp820
S'fs-MARY:i'
p821
aS'140'
p822
aS'260'
p823
aa(lp824
g13
aS'420'
p825
aa(lp826
S'VEGETABLE'
p827
aS'600'
p828
aS'740'
p829
aa(lp830
g13
aS'800'
p831
aa(lp832
S'KNOW'
p833
aS'940'
p834
aS'1000'
p835
aa(lp836
S'IX-3p:i'
p837
aS'1060'
p838
aS'1080'
p839
aa(lp840
S'LIKE'
p841
aS'1200'
p842
aS'1260'
p843
aa(lp844
S'fs-CORN'
p845
aS'1380'
p846
aS'1580'
p847
aa(lp848
g13
aS'1680'
p849
aasg15
S'1880'
p850
sg17
S'ch5-451_282_small_0.mov'
p851
sg19
(lp852
g821
ag13
ag827
ag13
ag833
ag837
ag841
ag845
ag13
asg21
S'As for Mary and\x7f\x7f vegetables, (I) know she likes corn.'
p853
sg23
g24
ssI34
(dp854
g2
(lp855
(lp856
S'fs-MARY:i'
p857
aS'440'
p858
aS'640'
p859
aa(lp860
g13
aS'800'
p861
aa(lp862
S'VEGETABLE'
p863
aS'1080'
p864
aS'1180'
p865
aa(lp866
g13
aS'1240'
p867
aa(lp868
S'KNOW'
p869
aS'1420'
p870
aS'1460'
p871
aa(lp872
S'IX-3p:i'
p873
aS'1520'
p874
aS'1540'
p875
aa(lp876
S'LIKE'
p877
aS'1600'
p878
aS'1660'
p879
aa(lp880
S'CORN'
p881
aS'1800'
p882
aS'2020'
p883
aasg15
S'2420'
p884
sg17
S'ch5-452_155_small_0.mov'
p885
sg19
(lp886
g857
ag13
ag863
ag13
ag869
ag873
ag877
ag881
asg21
S'As for Mary, as for vegetables, (I) knows she likes corn.'
p887
sg23
S'40'
p888
ssI35
(dp889
g2
(lp890
(lp891
S'fs-JOHN:i'
p892
aS'200'
p893
aS'500'
p894
aa(lp895
S'IX-3p:i'
p896
aS'600'
p897
aS'640'
p898
aa(lp899
S'THINK'
p900
aS'800'
p901
aS'860'
p902
aa(lp903
S'fs-MARY'
p904
aS'980'
p905
aS'1220'
p906
aa(lp907
S'LOVE'
p908
aS'1300'
p909
aS'1380'
p910
aa(lp911
g13
aS'1520'
p912
aasg15
S'1800'
p913
sg17
S'ch5-454_156_small_0.mov'
p914
sg19
(lp915
g892
ag896
ag900
ag904
ag908
ag13
asg21
S'John thinks Mary loves (him).'
p916
sg23
S'100'
p917
ssI36
(dp918
g2
(lp919
(lp920
S'fs-JOHN:i'
p921
aS'300'
p922
aS'560'
p923
aa(lp924
g13
aS'720'
p925
aa(lp926
S'IX-3p:i'
p927
aS'840'
p928
aS'880'
p929
aa(lp930
S'THINK'
p931
aS'1040'
p932
aS'1100'
p933
aa(lp934
S'fs-MARY:j'
p935
aS'1240'
p936
aS'1460'
p937
aa(lp938
S'j:LOVE:i'
p939
aS'1580'
p940
aS'1700'
p941
aasg15
S'2000'
p942
sg17
S'ch5-457_157_small_0.mov'
p943
sg19
(lp944
g921
ag13
ag927
ag931
ag935
ag939
asg21
S'John thinks Mary loves (him).'
p945
sg23
g24
ssI37
(dp946
g2
(lp947
(lp948
S'fs-JOHN:i'
p949
aS'140'
p950
aS'240'
p951
aa(lp952
S'IX-3p:i'
p953
aS'320'
p954
aS'380'
p955
aa(lp956
S'THINK'
p957
aS'560'
p958
aS'600'
p959
aa(lp960
S'fs-MARY:j'
p961
aS'680'
p962
aS'800'
p963
aa(lp964
S'j:(1h)LOVE:i'
p965
aS'940'
p966
aS'1100'
p967
aa(lp968
g13
aS'1160'
p969
aasg15
S'1420'
p970
sg17
S'ch5-458_285_small_0.mov'
p971
sg19
(lp972
g949
ag953
ag957
ag961
ag965
ag13
asg21
S'John thinks Mary loves (him).'
p973
sg23
S'60'
p974
ssI38
(dp975
g2
(lp976
(lp977
S'fs-JOHN'
p978
aS'180'
p979
aS'280'
p980
aa(lp981
S'CAN'
p982
aS'380'
p983
aS'400'
p984
aa(lp985
S'BUY'
p986
aS'500'
p987
aS'580'
p988
aa(lp989
S'HOUSE'
p990
aS'680'
p991
aS'900'
p992
aasg15
S'1180'
p993
sg17
S'ch5-459_93_small_0.mov'
p994
sg19
(lp995
g978
ag982
ag986
ag990
asg21
S'John can buy a house.'
p996
sg23
S'40'
p997
ssI39
(dp998
g2
(lp999
(lp1000
S'fs-JOHN'
p1001
aS'200'
p1002
aS'280'
p1003
aa(lp1004
S'#EX'
p1005
aS'360'
p1006
aS'440'
p1007
aa(lp1008
S'NOT'
p1009
aS'560'
p1010
aS'580'
p1011
aa(lp1012
S'LIKE'
p1013
aS'660'
p1014
aS'720'
p1015
aa(lp1016
S'CHOCOLATE'
p1017
aS'840'
p1018
aS'1000'
p1019
aasg15
S'1240'
p1020
sg17
S'ch5-461_92_small_0.mov'
p1021
sg19
(lp1022
g1001
ag1005
ag1009
ag1013
ag1017
asg21
S'John used to not like chocolate.'
p1023
sg23
S'100'
p1024
ssI40
(dp1025
g2
(lp1026
(lp1027
S'fs-JOHN'
p1028
aS'100'
p1029
aS'180'
p1030
aa(lp1031
S'MUST'
p1032
aS'260'
p1033
aS'340'
p1034
aa(lp1035
S'BUY'
p1036
aS'480'
p1037
aS'520'
p1038
aa(lp1039
S'HOUSE'
p1040
aS'640'
p1041
aS'860'
p1042
aasg15
S'1240'
p1043
sg17
S'ch5-462_94_small_0.mov'
p1044
sg19
(lp1045
g1028
ag1032
ag1036
ag1040
asg21
S'John must buy a house.'
p1046
sg23
g24
ssI41
(dp1047
g2
(lp1048
(lp1049
S'fs-JOHN'
p1050
aS'160'
p1051
aS'240'
p1052
aa(lp1053
S'FUTURE'
p1054
aS'400'
p1055
aS'440'
p1056
aa(lp1057
S'BUY'
p1058
aS'520'
p1059
aS'580'
p1060
aa(lp1061
S'HOUSE'
p1062
aS'680'
p1063
aS'860'
p1064
aasg15
S'1000'
p1065
sg17
S'ch5-463_286_small_0.mov'
p1066
sg19
(lp1067
g1050
ag1054
ag1058
ag1062
asg21
S'John will buy a house.'
p1068
sg23
g24
ssI42
(dp1069
g2
(lp1070
(lp1071
S'fs-JOHN'
p1072
aS'280'
p1073
aS'360'
p1074
aa(lp1075
S'FUTURE^NOT'
p1076
aS'480'
p1077
aS'620'
p1078
aa(lp1079
S'BUY'
p1080
aS'740'
p1081
aS'780'
p1082
aa(lp1083
S'HOUSE'
p1084
aS'860'
p1085
aS'1020'
p1086
aa(lp1087
g13
aS'1160'
p1088
aasg15
S'1440'
p1089
sg17
S'ch5-464_98_small_0.mov'
p1090
sg19
(lp1091
g1072
ag1076
ag1080
ag1084
ag13
asg21
S"John won't buy a house."
p1092
sg23
S'100'
p1093
ssI43
(dp1094
g2
(lp1095
(lp1096
S'fs-JOHN'
p1097
aS'220'
p1098
aS'260'
p1099
aa(lp1100
S'PAST'
p1101
aS'360'
p1102
aS'500'
p1103
aa(lp1104
S'LIVE'
p1105
aS'680'
p1106
aS'740'
p1107
aa(lp1108
S'CHICAGO'
p1109
aS'820'
p1110
aS'1020'
p1111
aasg15
S'1360'
p1112
sg17
S'ch5-465_95_small_0.mov'
p1113
sg19
(lp1114
g1097
ag1101
ag1105
ag1109
asg21
S'John lived in Chicago.'
p1115
sg23
S'120'
p1116
ssI44
(dp1117
g2
(lp1118
(lp1119
S'fs-JOHN'
p1120
aS'140'
p1121
aS'200'
p1122
aa(lp1123
S'BUY'
p1124
aS'340'
p1125
aS'400'
p1126
aa(lp1127
S'CAR'
p1128
aS'480'
p1129
aS'560'
p1130
aa(lp1131
S'FUTURE'
p1132
aS'680'
p1133
aS'800'
p1134
aasg15
S'1000'
p1135
sg17
S'ch5-466_324_small_0.mov'
p1136
sg19
(lp1137
g1120
ag1124
ag1128
ag1132
asg21
S'John will buy a car.'
p1138
sg23
S'40'
p1139
ssI45
(dp1140
g2
(lp1141
(lp1142
S'fs-JOHN'
p1143
aS'120'
p1144
aS'220'
p1145
aa(lp1146
S'SHOULD'
p1147
aS'320'
p1148
aS'400'
p1149
aa(lp1150
S'NOT'
p1151
aS'480'
p1152
aS'560'
p1153
aa(lp1154
S'BUY'
p1155
aS'680'
p1156
aS'740'
p1157
aa(lp1158
S'HOUSE'
p1159
aS'840'
p1160
aS'1120'
p1161
aasg15
S'1320'
p1162
sg17
S'ch5-468_96_small_0.mov'
p1163
sg19
(lp1164
g1143
ag1147
ag1151
ag1155
ag1159
asg21
S'John should not buy a house.'
p1165
sg23
g24
ssI46
(dp1166
g2
(lp1167
(lp1168
S'fs-JOHN'
p1169
aS'120'
p1170
aS'240'
p1171
aa(lp1172
S'SHOULD'
p1173
aS'320'
p1174
aS'380'
p1175
aa(lp1176
S'NOT'
p1177
aS'460'
p1178
aS'480'
p1179
aa(lp1180
S'BUY'
p1181
aS'600'
p1182
aS'640'
p1183
aa(lp1184
S'HOUSE'
p1185
aS'760'
p1186
aS'980'
p1187
aasg15
S'1280'
p1188
sg17
S'ch5-469_287_small_0.mov'
p1189
sg19
(lp1190
g1169
ag1173
ag1177
ag1181
ag1185
asg21
S'John should not buy a house.'
p1191
sg23
S'40'
p1192
ssI47
(dp1193
g2
(lp1194
(lp1195
S'fs-JOHN'
p1196
aS'80'
p1197
aS'180'
p1198
aa(lp1199
S'SHOULD^NOT'
p1200
aS'240'
p1201
aS'480'
p1202
aa(lp1203
S'BUY'
p1204
aS'620'
p1205
aS'640'
p1206
aa(lp1207
S'HOUSE'
p1208
aS'740'
p1209
aS'900'
p1210
aasg15
S'1120'
p1211
sg17
S'ch5-471_289_small_0.mov'
p1212
sg19
(lp1213
g1196
ag1200
ag1204
ag1208
asg21
S"John shouldn't buy a house."
p1214
sg23
S'20'
p1215
ssI48
(dp1216
g2
(lp1217
(lp1218
S'fs-JOHN'
p1219
aS'120'
p1220
aS'240'
p1221
aa(lp1222
S'NOT^HAVE-TO'
p1223
aS'360'
p1224
aS'480'
p1225
aa(lp1226
S'BUY'
p1227
aS'600'
p1228
aS'660'
p1229
aa(lp1230
S'HOUSE'
p1231
aS'740'
p1232
aS'940'
p1233
aasg15
S'1140'
p1234
sg17
S'ch5-473_291_small_0.mov'
p1235
sg19
(lp1236
g1219
ag1223
ag1227
ag1231
asg21
S"John doesn't have to buy a house."
p1237
sg23
S'40'
p1238
ssI49
(dp1239
g2
(lp1240
(lp1241
S'fs-JOHN'
p1242
aS'60'
p1243
aS'280'
p1244
aa(lp1245
S'FUTURE'
p1246
aS'420'
p1247
aS'440'
p1248
aa(lp1249
S'FINISH'
p1250
aS'480'
p1251
aS'540'
p1252
aa(lp1253
S'SEE'
p1254
aS'640'
p1255
aS'740'
p1256
aa(lp1257
S'fs-MARY'
p1258
aS'780'
p1259
aS'940'
p1260
aasg15
S'1160'
p1261
sg17
S'ch5-474_167_small_0.mov'
p1262
sg19
(lp1263
g1242
ag1246
ag1250
ag1254
ag1258
asg21
S'John will have seen Mary.'
p1264
sg23
g24
ssI50
(dp1265
g2
(lp1266
(lp1267
S'fs-JOHN'
p1268
aS'220'
p1269
aS'400'
p1270
aa(lp1271
S'DECIDE'
p1272
aS'600'
p1273
aS'700'
p1274
aa(lp1275
S'VISIT'
p1276
aS'800'
p1277
aS'880'
p1278
aa(lp1279
S'fs-MARY'
p1280
aS'940'
p1281
aS'1100'
p1282
aasg15
S'1280'
p1283
sg17
S'ch5-477_165_small_0.mov'
p1284
sg19
(lp1285
g1268
ag1272
ag1276
ag1280
asg21
S'John decided to visit Mary.'
p1286
sg23
S'140'
p1287
ssI51
(dp1288
g2
(lp1289
(lp1290
S'fs-JOHN'
p1291
aS'220'
p1292
aS'660'
p1293
aa(lp1294
S'FUTURE'
p1295
aS'780'
p1296
aS'800'
p1297
aa(lp1298
S'FINISH'
p1299
aS'840'
p1300
aS'900'
p1301
aa(lp1302
S'SEE'
p1303
aS'1000'
p1304
aS'1080'
p1305
aa(lp1306
S'fs-MARY'
p1307
aS'1180'
p1308
aS'1300'
p1309
aasg15
S'1500'
p1310
sg17
S'ch5-481_166_small_0.mov'
p1311
sg19
(lp1312
g1291
ag1295
ag1299
ag1303
ag1307
asg21
S'John will have seen Mary.'
p1313
sg23
S'120'
p1314
ssI52
(dp1315
g2
(lp1316
(lp1317
S'fs-JOHN'
p1318
aS'100'
p1319
aS'140'
p1320
aa(lp1321
S'FUTURE'
p1322
aS'240'
p1323
aS'280'
p1324
aa(lp1325
S'NOT'
p1326
aS'420'
p1327
aS'460'
p1328
aa(lp1329
S'BUY'
p1330
aS'560'
p1331
aS'620'
p1332
aa(lp1333
S'HOUSE'
p1334
aS'680'
p1335
aS'960'
p1336
aasg15
S'1220'
p1337
sg17
S'ch5-483_99_small_0.mov'
p1338
sg19
(lp1339
g1318
ag1322
ag1326
ag1330
ag1334
asg21
S'John will not buy a house.'
p1340
sg23
g24
ssI53
(dp1341
g2
(lp1342
(lp1343
S'fs-JOHN'
p1344
aS'120'
p1345
aS'200'
p1346
aa(lp1347
S'PREFER'
p1348
aS'320'
p1349
aS'380'
p1350
aa(lp1351
S'GO'
p1352
aS'500'
p1353
aS'580'
p1354
aa(lp1355
S'MOVIE'
p1356
aS'680'
p1357
aS'900'
p1358
aasg15
S'1060'
p1359
sg17
Nsg19
(lp1360
g1344
ag1348
ag1352
ag1356
asg21
S'John prefers to go to a movie'
p1361
sg23
S'20'
p1362
ssI54
(dp1363
g2
(lp1364
(lp1365
S'fs-JOHN'
p1366
aS'80'
p1367
aS'120'
p1368
aa(lp1369
S'WANT'
p1370
aS'240'
p1371
aS'320'
p1372
aa(lp1373
S'SELL'
p1374
aS'400'
p1375
aS'540'
p1376
aa(lp1377
S'CAR'
p1378
aS'620'
p1379
aS'900'
p1380
aasg15
S'1080'
p1381
sg17
S'ch5-486_102_small_0.mov'
p1382
sg19
(lp1383
g1366
ag1370
ag1374
ag1378
asg21
S'John wants to sell (his/a) car.'
p1384
sg23
g24
ssI55
(dp1385
g2
(lp1386
(lp1387
S'fs-JOHN'
p1388
aS'40'
p1389
aS'100'
p1390
aa(lp1391
S'WANT'
p1392
aS'180'
p1393
aS'220'
p1394
aa(lp1395
S'SELL'
p1396
aS'300'
p1397
aS'440'
p1398
aa(lp1399
S'CAR'
p1400
aS'520'
p1401
aS'620'
p1402
aa(lp1403
S'FUTURE'
p1404
aS'700'
p1405
aS'900'
p1406
aasg15
S'1140'
p1407
sg17
S'ch5-487_103_small_0.mov'
p1408
sg19
(lp1409
g1388
ag1392
ag1396
ag1400
ag1404
asg21
S'John wants to sell his car in the future.'
p1410
sg23
g24
ssI56
(dp1411
g2
(lp1412
(lp1413
S'FUTURE'
p1414
aS'160'
p1415
aS'200'
p1416
aa(lp1417
S'fs-JOHN'
p1418
aS'280'
p1419
aS'360'
p1420
aa(lp1421
S'GO'
p1422
aS'480'
p1423
aS'560'
p1424
aa(lp1425
S'FUTURE'
p1426
aS'700'
p1427
aS'880'
p1428
aasg15
S'1080'
p1429
sg17
S'ch5-488_105_small_0.mov'
p1430
sg19
(lp1431
g1414
ag1418
ag1422
ag1426
asg21
S'In the future, John will go, (he) will.'
p1432
sg23
g24
ssI57
(dp1433
g2
(lp1434
(lp1435
S'fs-JOHN'
p1436
aS'160'
p1437
aS'260'
p1438
aa(lp1439
S'PREFER'
p1440
aS'400'
p1441
aS'420'
p1442
aa(lp1443
S'GO'
p1444
aS'520'
p1445
aS'580'
p1446
aa(lp1447
S'MOVIE'
p1448
aS'700'
p1449
aS'740'
p1450
aa(lp1451
S'TOMORROW'
p1452
aS'880'
p1453
aS'980'
p1454
aa(lp1455
g13
aS'1120'
p1456
aasg15
S'1260'
p1457
sg17
S'ch5-489_101_small_0.mov'
p1458
sg19
(lp1459
g1436
ag1440
ag1444
ag1448
ag1452
ag13
asg21
S'John prefers to go to a movie tomorrow.'
p1460
sg23
S'20'
p1461
ssI58
(dp1462
g2
(lp1463
(lp1464
S'NEXT-WEEK'
p1465
aS'220'
p1466
aS'280'
p1467
aa(lp1468
S'fs-JOHN'
p1469
aS'320'
p1470
aS'440'
p1471
aa(lp1472
S'GO'
p1473
aS'520'
p1474
aS'620'
p1475
aa(lp1476
S'NEW-YORK'
p1477
aS'780'
p1478
aS'1000'
p1479
aasg15
S'1140'
p1480
sg17
S'ch5-490_108_small_0.mov'
p1481
sg19
(lp1482
g1465
ag1469
ag1473
ag1477
asg21
S'Next week, John is going to New York.'
p1483
sg23
g24
ssI59
(dp1484
g2
(lp1485
(lp1486
S'fs-JOHN'
p1487
aS'60'
p1488
aS'120'
p1489
aa(lp1490
S'FUTURE'
p1491
aS'200'
p1492
aS'420'
p1493
aa(lp1494
S'NOT'
p1495
aS'600'
p1496
aS'620'
p1497
aa(lp1498
S'BUY'
p1499
aS'720'
p1500
aS'780'
p1501
aa(lp1502
S'HOUSE'
p1503
aS'860'
p1504
aS'1060'
p1505
aasg15
S'1320'
p1506
sg17
S'ch5-491_109_small_0.mov'
p1507
sg19
(lp1508
g1487
ag1491
ag1495
ag1499
ag1503
asg21
S'John, in the future, is not buying a house.'
p1509
sg23
g24
ssI60
(dp1510
g2
(lp1511
(lp1512
S'fs-JOHN'
p1513
aS'80'
p1514
aS'140'
p1515
aa(lp1516
S'FUTURE'
p1517
aS'220'
p1518
aS'540'
p1519
aa(lp1520
S'FUTURE^NOT'
p1521
aS'640'
p1522
aS'720'
p1523
aa(lp1524
S'BUY'
p1525
aS'880'
p1526
aS'960'
p1527
aa(lp1528
S'HOUSE'
p1529
aS'1040'
p1530
aS'1280'
p1531
aasg15
S'1560'
p1532
sg17
S'ch5-492_110_small_0.mov'
p1533
sg19
(lp1534
g1513
ag1517
ag1521
ag1525
ag1529
asg21
S"John, in the future, won't buy a house."
p1535
sg23
g24
ssI61
(dp1536
g2
(lp1537
(lp1538
S'fs-JOHN'
p1539
aS'160'
p1540
aS'220'
p1541
aa(lp1542
S'BUY'
p1543
aS'400'
p1544
aS'460'
p1545
aa(lp1546
S'CAR'
p1547
aS'540'
p1548
aS'660'
p1549
aa(lp1550
S'FUTURE'
p1551
aS'760'
p1552
aS'1040'
p1553
aasg15
S'1320'
p1554
sg17
S'ch5-493_112_small_0.mov'
p1555
sg19
(lp1556
g1539
ag1543
ag1547
ag1551
asg21
S'John will buy a car.'
p1557
sg23
S'20'
p1558
ssI62
(dp1559
g2
(lp1560
(lp1561
S'fs-JOHN'
p1562
aS'120'
p1563
aS'180'
p1564
aa(lp1565
S'BUY'
p1566
aS'300'
p1567
aS'340'
p1568
aa(lp1569
S'CAR'
p1570
aS'440'
p1571
aS'520'
p1572
aa(lp1573
S'SHOULD'
p1574
aS'600'
p1575
aS'840'
p1576
aasg15
S'1060'
p1577
sg17
S'ch5-494_116_small_0.mov'
p1578
sg19
(lp1579
g1562
ag1566
ag1570
ag1574
asg21
S'John should buy a car.'
p1580
sg23
g24
ssI63
(dp1581
g2
(lp1582
(lp1583
S'FUTURE'
p1584
aS'320'
p1585
aS'380'
p1586
aa(lp1587
S'fs-JOHN'
p1588
aS'440'
p1589
aS'520'
p1590
aa(lp1591
S'BUY'
p1592
aS'620'
p1593
aS'660'
p1594
aa(lp1595
S'CAR'
p1596
aS'720'
p1597
aS'780'
p1598
aa(lp1599
S'SHOULD'
p1600
aS'860'
p1601
aS'1120'
p1602
aasg15
S'1260'
p1603
sg17
S'ch5-495_115_small_0.mov'
p1604
sg19
(lp1605
g1584
ag1588
ag1592
ag1596
ag1600
asg21
S'In the future, John should buy a car.'
p1606
sg23
g24
ssI64
(dp1607
g2
(lp1608
(lp1609
S'fs-JOHN'
p1610
aS'140'
p1611
aS'240'
p1612
aa(lp1613
S'BUY'
p1614
aS'380'
p1615
aS'440'
p1616
aa(lp1617
S'CAR'
p1618
aS'520'
p1619
aS'640'
p1620
aa(lp1621
S'FUTURE^NOT'
p1622
aS'700'
p1623
aS'840'
p1624
aasg15
S'1240'
p1625
sg17
S'ch5-496_117_small_0.mov'
p1626
sg19
(lp1627
g1610
ag1614
ag1618
ag1622
asg21
S"John won't buy a car."
p1628
sg23
g24
ssI65
(dp1629
g2
(lp1630
(lp1631
S'fs-JOHN'
p1632
aS'200'
p1633
aS'320'
p1634
aa(lp1635
S'CAN'
p1636
aS'420'
p1637
aS'480'
p1638
aa(lp1639
S'#GO'
p1640
aS'580'
p1641
aS'640'
p1642
aa(lp1643
S'CAN'
p1644
aS'740'
p1645
aS'880'
p1646
aasg15
S'1200'
p1647
sg17
Nsg19
(lp1648
g1632
ag1636
ag1640
ag1644
asg21
S'John can go, he can.'
p1649
sg23
g24
ssI66
(dp1650
g2
(lp1651
(lp1652
S'LAST-WEEK'
p1653
aS'200'
p1654
aS'340'
p1655
aa(lp1656
S'fs-JOHN'
p1657
aS'440'
p1658
aS'560'
p1659
aa(lp1660
S'GO'
p1661
aS'700'
p1662
aS'820'
p1663
aa(lp1664
S'NEW-YORK'
p1665
aS'940'
p1666
aS'1100'
p1667
aasg15
S'1280'
p1668
sg17
S'ch5-499_299_small_0.mov'
p1669
sg19
(lp1670
g1653
ag1657
ag1661
ag1665
asg21
S'Last week, John went to New York.'
p1671
sg23
g24
ssI67
(dp1672
g2
(lp1673
(lp1674
S'fs-JOHN'
p1675
aS'120'
p1676
aS'180'
p1677
aa(lp1678
S'FUTURE'
p1679
aS'280'
p1680
aS'320'
p1681
aa(lp1682
S'VISIT'
p1683
aS'460'
p1684
aS'560'
p1685
aa(lp1686
S'fs-MARY'
p1687
aS'640'
p1688
aS'740'
p1689
aasg15
S'980'
p1690
sg17
S'ch5-500_300_small_0.mov'
p1691
sg19
(lp1692
g1675
ag1679
ag1683
ag1687
asg21
S'John will visit Mary.'
p1693
sg23
S'20'
p1694
ssI68
(dp1695
g2
(lp1696
(lp1697
S'fs-JOHN'
p1698
aS'80'
p1699
aS'140'
p1700
aa(lp1701
S'FUTURE'
p1702
aS'220'
p1703
aS'260'
p1704
aa(lp1705
S'VISIT'
p1706
aS'400'
p1707
aS'540'
p1708
aa(lp1709
S'fs-MARY'
p1710
aS'640'
p1711
aS'760'
p1712
aasg15
S'980'
p1713
sg17
S'ch5-501_301_small_0.mov'
p1714
sg19
(lp1715
g1698
ag1702
ag1706
ag1710
asg21
S'John will visit Mary.'
p1716
sg23
g24
ssI69
(dp1717
g2
(lp1718
(lp1719
S'fs-JOHN'
p1720
aS'120'
p1721
aS'220'
p1722
aa(lp1723
S'FUTURE'
p1724
aS'300'
p1725
aS'320'
p1726
aa(lp1727
S'VISIT'
p1728
aS'480'
p1729
aS'560'
p1730
aa(lp1731
S'fs-MARY'
p1732
aS'620'
p1733
aS'760'
p1734
aasg15
S'1080'
p1735
sg17
S'ch5-502_302_small_0.mov'
p1736
sg19
(lp1737
g1720
ag1724
ag1728
ag1732
asg21
S'John will visit Mary.'
p1738
sg23
g24
ssI70
(dp1739
g2
(lp1740
(lp1741
S'fs-JOHN'
p1742
aS'180'
p1743
aS'260'
p1744
aa(lp1745
S'NOT'
p1746
aS'380'
p1747
aS'400'
p1748
aa(lp1749
S'VISIT'
p1750
aS'460'
p1751
aS'560'
p1752
aa(lp1753
S'fs-MARY'
p1754
aS'620'
p1755
aS'960'
p1756
aa(lp1757
S'VISIT'
p1758
aS'1220'
p1759
aS'1280'
p1760
aa(lp1761
S'MOTHER'
p1762
aS'1400'
p1763
aS'1420'
p1764
aa(lp1765
S'IX-3p'
p1766
aS'1500'
p1767
aS'1540'
p1768
aasg15
S'1620'
p1769
sg17
S'ch5-503_319_small_0.mov'
p1770
sg19
(lp1771
g1742
ag1746
ag1750
ag1754
ag1758
ag1762
ag1766
asg21
S'John is not visiting Mary.  (He) is visiting (his) Mother.'
p1772
sg23
g24
ssI71
(dp1773
g2
(lp1774
(lp1775
S'fs-JOHN'
p1776
aS'80'
p1777
aS'260'
p1778
aa(lp1779
S'NOT'
p1780
aS'360'
p1781
aS'440'
p1782
aa(lp1783
S'VISIT'
p1784
aS'580'
p1785
aS'760'
p1786
aa(lp1787
S'fs-MARY'
p1788
aS'840'
p1789
aS'980'
p1790
aa(lp1791
g13
aS'1120'
p1792
aasg15
S'1120'
p1793
sg17
S'ch5-508_160_small_0.mov'
p1794
sg19
(lp1795
g1776
ag1780
ag1784
ag1788
ag13
asg21
S'John is not visiting Mary.'
p1796
sg23
g24
ssI72
(dp1797
g2
(lp1798
(lp1799
S'fs-JOHN'
p1800
aS'100'
p1801
aS'240'
p1802
aa(lp1803
S'NOT'
p1804
aS'320'
p1805
aS'380'
p1806
aa(lp1807
S'VISIT'
p1808
aS'560'
p1809
aS'700'
p1810
aa(lp1811
S'fs-MARY'
p1812
aS'800'
p1813
aS'920'
p1814
aasg15
S'1180'
p1815
sg17
S'ch5-514_163_small_0.mov'
p1816
sg19
(lp1817
g1800
ag1804
ag1808
ag1812
asg21
S'John is not visiting Mary.'
p1818
sg23
g24
ssI73
(dp1819
g2
(lp1820
(lp1821
S'fs-JOHN'
p1822
aS'100'
p1823
aS'180'
p1824
aa(lp1825
S'FINISH'
p1826
aS'280'
p1827
aS'380'
p1828
aa(lp1829
S'VISIT'
p1830
aS'560'
p1831
aS'600'
p1832
aa(lp1833
S'fs-MARY'
p1834
aS'640'
p1835
aS'820'
p1836
aasg15
S'1080'
p1837
sg17
S'ch5-521_320_small_0.mov'
p1838
sg19
(lp1839
g1822
ag1826
ag1830
ag1834
asg21
S'John has visited Mary.'
p1840
sg23
g24
ssI74
(dp1841
g2
(lp1842
(lp1843
S'fs-ANN'
p1844
aS'100'
p1845
aS'240'
p1846
aa(lp1847
S'BLAME'
p1848
aS'420'
p1849
aS'500'
p1850
aa(lp1851
S'fs-MARY'
p1852
aS'580'
p1853
aS'800'
p1854
aasg15
S'1100'
p1855
sg17
S'ch5-523_273_small_0.mov'
p1856
sg19
(lp1857
g1844
ag1848
ag1852
asg21
S'Ann blames Mary.'
p1858
sg23
g24
ssI75
(dp1859
g2
(lp1860
(lp1861
S'fs-ANN'
p1862
aS'140'
p1863
aS'260'
p1864
aa(lp1865
S'BLAME'
p1866
aS'420'
p1867
aS'540'
p1868
aa(lp1869
S'fs-MARY'
p1870
aS'620'
p1871
aS'820'
p1872
aasg15
S'1180'
p1873
sg17
S'ch5-524_281_small_0.mov'
p1874
sg19
(lp1875
g1862
ag1866
ag1870
asg21
S'Ann blames Mary.'
p1876
sg23
g24
ssI76
(dp1877
g2
(lp1878
(lp1879
S'fs-JOHN'
p1880
aS'200'
p1881
aS'280'
p1882
aa(lp1883
S'FUTURE'
p1884
aS'380'
p1885
aS'440'
p1886
aa(lp1887
S'FINISH'
p1888
aS'520'
p1889
aS'560'
p1890
aa(lp1891
S'SEE'
p1892
aS'700'
p1893
aS'820'
p1894
aa(lp1895
S'fs-MARY'
p1896
aS'900'
p1897
aS'1060'
p1898
aasg15
S'1100'
p1899
sg17
S'ch5-617_333_small_0.mov'
p1900
sg19
(lp1901
g1880
ag1884
ag1888
ag1892
ag1896
asg21
S'John will have seen Mary.'
p1902
sg23
g24
ssI77
(dp1903
g2
(lp1904
(lp1905
S'fs-JOHN'
p1906
aS'120'
p1907
aS'220'
p1908
aa(lp1909
S'FUTURE'
p1910
aS'340'
p1911
aS'420'
p1912
aa(lp1913
S'FINISH'
p1914
aS'480'
p1915
aS'560'
p1916
aa(lp1917
S'SEE'
p1918
aS'660'
p1919
aS'720'
p1920
aa(lp1921
S'fs-MARY'
p1922
aS'780'
p1923
aS'1000'
p1924
aasg15
S'1200'
p1925
sg17
S'ch5-622_338_small_0.mov'
p1926
sg19
(lp1927
g1906
ag1910
ag1914
ag1918
ag1922
asg21
S'John will have seen Mary.'
p1928
sg23
g24
ssI78
(dp1929
g2
(lp1930
(lp1931
S'fs-JOHN'
p1932
aS'120'
p1933
aS'180'
p1934
aa(lp1935
S'SHOULD'
p1936
aS'220'
p1937
aS'300'
p1938
aa(lp1939
S'FINISH'
p1940
aS'420'
p1941
aS'520'
p1942
aa(lp1943
S'READ'
p1944
aS'600'
p1945
aS'660'
p1946
aa(lp1947
S'BOOK'
p1948
aS'800'
p1949
aS'900'
p1950
aasg15
S'1140'
p1951
sg17
S'ch5-628_293_small_0.mov'
p1952
sg19
(lp1953
g1932
ag1936
ag1940
ag1944
ag1948
asg21
S'John should have read the book.'
p1954
sg23
g24
ssI79
(dp1955
g2
(lp1956
(lp1957
S'fs-JOHN'
p1958
aS'140'
p1959
aS'340'
p1960
aa(lp1961
S'FUTURE'
p1962
aS'400'
p1963
aS'460'
p1964
aa(lp1965
S'FINISH'
p1966
aS'560'
p1967
aS'620'
p1968
aa(lp1969
S'READ'
p1970
aS'700'
p1971
aS'780'
p1972
aa(lp1973
S'BOOK'
p1974
aS'940'
p1975
aS'1040'
p1976
aasg15
S'1260'
p1977
sg17
S'ch5-631_297_small_0.mov'
p1978
sg19
(lp1979
g1958
ag1962
ag1966
ag1970
ag1974
asg21
S'John will have read the book.'
p1980
sg23
g24
ssI80
(dp1981
g2
(lp1982
(lp1983
S'fs-JOHN'
p1984
aS'120'
p1985
aS'180'
p1986
aa(lp1987
S'LIKE'
p1988
aS'280'
p1989
aS'340'
p1990
aa(lp1991
S'CHOCOLATE'
p1992
aS'480'
p1993
aS'660'
p1994
aasg15
S'880'
p1995
sg17
S'ch5-632_298_small_0.mov'
p1996
sg19
(lp1997
g1984
ag1988
ag1992
asg21
S'John likes chocolate.'
p1998
sg23
g24
ss.