(dp0
I0
(dp1
S'Annotated'
p2
(lp3
(lp4
S'WOMAN'
p5
aS'660'
p6
aS'700'
p7
aa(lp8
S'ARRIVE'
p9
aS'780'
p10
aS'920'
p11
aa(lp12
S'punct'
p13
aS'1000'
p14
aasS'EndFrame'
p15
S'1225'
p16
sS'Video'
p17
S'ch6-551_354_small_0.mov'
p18
sS'Words'
p19
(lp20
g5
ag9
ag13
asS'English'
p21
S'Some woman arrived.'
p22
sS'StartFrame'
p23
S'0'
p24
ssI1
(dp25
g2
(lp26
(lp27
S'fs-SUE'
p28
aS'280'
p29
aS'480'
p30
aa(lp31
S'BUY'
p32
aS'680'
p33
aS'820'
p34
aa(lp35
S'IX-3p:i'
p36
aS'920'
p37
aS'960'
p38
aa(lp39
S'CAR'
p40
aS'1100'
p41
aS'1260'
p42
aa(lp43
S'BLUE'
p44
aS'1320'
p45
aS'1380'
p46
aasg15
S'1555'
p47
sg17
S'ch6-559_173_small_0.mov'
p48
sg19
(lp49
g28
ag32
ag36
ag40
ag44
asg21
S'Sue bought/is buying the blue car.'
p50
sg23
g24
ssI2
(dp51
g2
(lp52
(lp53
S'SOMETHING/ONE'
p54
aS'200'
p55
aS'260'
p56
aa(lp57
S'STUDENT'
p58
aS'400'
p59
aS'500'
p60
aa(lp61
S'HAVE'
p62
aS'580'
p63
aS'620'
p64
aa(lp65
S'VIDEOTAPE'
p66
aS'720'
p67
aS'940'
p68
aa(lp69
g13
aS'1100'
p70
aasg15
S'1200'
p71
sg17
S'ch6-565_72_small_0.mov'
p72
sg19
(lp73
g54
ag58
ag62
ag66
ag13
asg21
S'Some student has the videotape.'
p74
sg23
S'60'
p75
ssI3
(dp76
g2
(lp77
(lp78
S'fs-JOHN'
p79
aS'160'
p80
aS'240'
p81
aa(lp82
S'BUY'
p83
aS'360'
p84
aS'440'
p85
aa(lp86
S'YESTERDAY'
p87
aS'580'
p88
aS'700'
p89
aa(lp90
S'WHAT'
p91
aS'820'
p92
aS'1000'
p93
aa(lp94
g13
aS'1060'
p95
aa(lp96
S'BOOK+'
p97
aS'1200'
p98
aS'1380'
p99
aa(lp100
g13
aS'1420'
p101
aasg15
S'1580'
p102
sg17
Nsg19
(lp103
g79
ag83
ag87
ag91
ag13
ag97
ag13
asg21
S'What did John buy yesterday? A book. (books?)'
p104
sg23
S'40'
p105
ssI4
(dp106
g2
(lp107
(lp108
S'WHO'
p109
aS'240'
p110
aS'280'
p111
aa(lp112
S'TELL:i'
p113
aS'360'
p114
aS'400'
p115
aa(lp116
S'fs-BILL:i'
p117
aS'460'
p118
aS'520'
p119
aa(lp120
g13
aS'560'
p121
aa(lp122
S'part:indef'
p123
aS'680'
p124
aS'780'
p125
aa(lp126
g13
aS'900'
p127
aa(lp128
S'fs-MARY'
p129
aS'1040'
p130
aS'1240'
p131
aa(lp132
g13
aS'1380'
p133
aasg15
S'1600'
p134
sg17
S'ch7-589_59_small_0.mov'
p135
sg19
(lp136
g109
ag113
ag117
ag13
ag123
ag13
ag129
ag13
asg21
S'Who told Bill? Mary did.'
p137
sg23
S'80'
p138
ssI5
(dp139
g2
(lp140
(lp141
S'TELL:i'
p142
aS'280'
p143
aS'320'
p144
aa(lp145
S'fs-BILL'
p146
aS'420'
p147
aS'540'
p148
aa(lp149
S'YESTERDAY'
p150
aS'700'
p151
aS'860'
p152
aa(lp153
S'WHO'
p154
aS'1000'
p155
aS'1060'
p156
aa(lp157
g13
aS'1180'
p158
aa(lp159
S'fs-MARY'
p160
aS'1360'
p161
aS'1540'
p162
aa(lp163
g13
aS'1620'
p164
aasg15
S'1836'
p165
sg17
S'ch7-590_55_small_0.mov'
p166
sg19
(lp167
g142
ag146
ag150
ag154
ag13
ag160
ag13
asg21
S'Who told Bill yesterday? Mary did.'
p168
sg23
g24
ssI6
(dp169
g2
(lp170
(lp171
S'fs-JOHN'
p172
aS'160'
p173
aS'340'
p174
aa(lp175
S'BUY'
p176
aS'420'
p177
aS'500'
p178
aa(lp179
S'YESTERDAY'
p180
aS'660'
p181
aS'700'
p182
aa(lp183
S'WHAT'
p184
aS'800'
p185
aS'920'
p186
aa(lp187
S'BOOK'
p188
aS'1060'
p189
aS'1140'
p190
aa(lp191
g13
aS'1200'
p192
aasg15
S'1440'
p193
sg17
S'ch7-591_191_small_0.mov'
p194
sg19
(lp195
g172
ag176
ag180
ag184
ag188
ag13
asg21
S'What did John buy yesterday? A book.'
p196
sg23
g24
ssI7
(dp197
g2
(lp198
(lp199
S'WHO'
p200
aS'260'
p201
aS'300'
p202
aa(lp203
S'fs-JOHN'
p204
aS'360'
p205
aS'560'
p206
aa(lp207
S'SEE'
p208
aS'680'
p209
aS'740'
p210
aa(lp211
S'WHAT'
p212
aS'780'
p213
aS'920'
p214
aa(lp215
g13
aS'980'
p216
aa(lp217
S'fs-MARY'
p218
aS'1140'
p219
aS'1340'
p220
aa(lp221
g13
aS'1380'
p222
aasg15
S'1520'
p223
sg17
S'ch7-592_192_small_0.mov'
p224
sg19
(lp225
g200
ag204
ag208
ag212
ag13
ag218
ag13
asg21
S'Who did John see? Mary.'
p226
sg23
g24
ssI8
(dp227
g2
(lp228
(lp229
S'WHO'
p230
aS'220'
p231
aS'240'
p232
aa(lp233
S'fs-JOHN'
p234
aS'300'
p235
aS'400'
p236
aa(lp237
S'SEE'
p238
aS'540'
p239
aS'600'
p240
aa(lp241
S'WHAT'
p242
aS'680'
p243
aS'820'
p244
aa(lp245
g13
aS'900'
p246
aa(lp247
S'fs-MARY'
p248
aS'980'
p249
aS'1180'
p250
aa(lp251
g13
aS'1300'
p252
aasg15
S'1500'
p253
sg17
Nsg19
(lp254
g230
ag234
ag238
ag242
ag13
ag248
ag13
asg21
S'Who did John see? Mary.'
p255
sg23
S'40'
p256
ssI9
(dp257
g2
(lp258
(lp259
S'fs-JOHN'
p260
aS'120'
p261
aS'200'
p262
aa(lp263
S'SEE:i'
p264
aS'400'
p265
aS'480'
p266
aa(lp267
S'THROW'
p268
aS'620'
p269
aS'720'
p270
aa(lp271
S'IX-3p:j'
p272
aS'740'
p273
aS'740'
p274
aa(lp275
S'APPLE'
p276
aS'920'
p277
aS'980'
p278
aa(lp279
S'WHO'
p280
aS'1080'
p281
aS'1140'
p282
aa(lp283
g13
aS'1220'
p284
aa(lp285
S'fs-MARY'
p286
aS'1340'
p287
aS'1520'
p288
aa(lp289
g13
aS'1580'
p290
aasg15
S'1580'
p291
sg17
Nsg19
(lp292
g260
ag264
ag268
ag272
ag276
ag280
ag13
ag286
ag13
asg21
S'Who did John see throw the apple? Mary.'
p293
sg23
g24
ssI10
(dp294
g2
(lp295
(lp296
S'fs-JOHN'
p297
aS'180'
p298
aS'300'
p299
aa(lp300
S'BUY'
p301
aS'420'
p302
aS'520'
p303
aa(lp304
S'YESTERDAY'
p305
aS'640'
p306
aS'680'
p307
aa(lp308
S'WHAT'
p309
aS'760'
p310
aS'920'
p311
aasg15
S'1080'
p312
sg17
S'ch7-600_205_small_0.mov'
p313
sg19
(lp314
g297
ag301
ag305
ag309
asg21
S'What did John buy yesterday?'
p315
sg23
S'100'
p316
ssI11
(dp317
g2
(lp318
(lp319
S'fs-JOHN'
p320
aS'320'
p321
aS'560'
p322
aa(lp323
S'GO'
p324
aS'620'
p325
aS'720'
p326
aa(lp327
S'SHOULD+'
p328
aS'840'
p329
aS'1200'
p330
aasg15
S'1340'
p331
sg17
S'ch7-601_194_small_0.mov'
p332
sg19
(lp333
g320
ag324
ag328
asg21
S'John should go.'
p334
sg23
S'180'
p335
ssI12
(dp336
g2
(lp337
(lp338
S'fs-JOHN'
p339
aS'120'
p340
aS'240'
p341
aa(lp342
S'GO'
p343
aS'360'
p344
aS'480'
p345
aa(lp346
S'SHOULD+'
p347
aS'560'
p348
aS'740'
p349
aasg15
S'960'
p350
sg17
Nsg19
(lp351
g339
ag343
ag347
asg21
S'John should go.'
p352
sg23
S'80'
p353
ssI13
(dp354
g2
(lp355
(lp356
S'fs-JOHN'
p357
aS'100'
p358
aS'340'
p359
aa(lp360
S'SHOULD'
p361
aS'380'
p362
aS'480'
p363
aa(lp364
S'GO'
p365
aS'520'
p366
aS'640'
p367
aa(lp368
S'SHOULD++'
p369
aS'700'
p370
aS'1080'
p371
aasg15
S'1380'
p372
sg17
S'ch7-603_195_small_0.mov'
p373
sg19
(lp374
g357
ag361
ag365
ag369
asg21
S'John should go, he should.'
p375
sg23
g24
ssI14
(dp376
g2
(lp377
(lp378
S'LIKE'
p379
aS'160'
p380
aS'300'
p381
aa(lp382
S'CHOCOLATE'
p383
aS'360'
p384
aS'600'
p385
aa(lp386
S'WHO'
p387
aS'700'
p388
aS'920'
p389
aasg15
S'1166'
p390
sg17
S'ch7-605_196_small_0.mov'
p391
sg19
(lp392
g379
ag383
ag387
asg21
S'Who likes chocolate?'
p393
sg23
g24
ssI15
(dp394
g2
(lp395
(lp396
S'LIKE'
p397
aS'300'
p398
aS'440'
p399
aa(lp400
S'CHOCOLATE'
p401
aS'500'
p402
aS'600'
p403
aa(lp404
S'WHO'
p405
aS'740'
p406
aS'1160'
p407
aasg15
S'1460'
p408
sg17
Nsg19
(lp409
g397
ag401
ag405
asg21
S'Who likes chocolate?'
p410
sg23
g24
ssI16
(dp411
g2
(lp412
(lp413
S'LOVE'
p414
aS'260'
p415
aS'360'
p416
aa(lp417
S'fs-JOHN'
p418
aS'420'
p419
aS'580'
p420
aa(lp421
S'WHO'
p422
aS'680'
p423
aS'860'
p424
aasg15
S'1140'
p425
sg17
S'ch7-607_197_small_0.mov'
p426
sg19
(lp427
g414
ag418
ag422
asg21
S'Who loves John?'
p428
sg23
g24
ssI17
(dp429
g2
(lp430
(lp431
S'fs-JOHN'
p432
ag24
aS'160'
p433
aa(lp434
S'SEE'
p435
aS'280'
p436
aS'360'
p437
aa(lp438
S'THROW'
p439
aS'420'
p440
aS'700'
p441
aa(lp442
S'APPLE'
p443
aS'800'
p444
aS'820'
p445
aa(lp446
S'WHO'
p447
aS'920'
p448
aS'1080'
p449
aa(lp450
S'fs-MARY'
p451
aS'1160'
p452
aS'1520'
p453
aasg15
S'1520'
p454
sg17
S'ch7-596_75_small_0.mov'
p455
sg19
(lp456
g432
ag435
ag439
ag443
ag447
ag451
asg21
S'Who did John see throw the apple? Mary.'
p457
sg23
g24
ssI18
(dp458
g2
(lp459
(lp460
S'STUDENT'
p461
aS'100'
p462
aS'220'
p463
aa(lp464
S'HAVE'
p465
aS'420'
p466
aS'480'
p467
aa(lp468
S'VIDEOTAPE'
p469
aS'600'
p470
aS'880'
p471
aasg15
S'1160'
p472
sg17
S'ch6-567_73_small_0.mov'
p473
sg19
(lp474
g461
ag465
ag469
asg21
S'The student has the videotape.'
p475
sg23
g24
ss.