(dp0
I0
(dp1
S'Annotated'
p2
(lp3
(lp4
S'TEACHER'
p5
aS'420'
p6
aS'580'
p7
aa(lp8
S'NOW'
p9
aS'660'
p10
aS'760'
p11
aa(lp12
S'IX-3p:i'
p13
aS'880'
p14
aS'960'
p15
aa(lp16
S'MOVIE'
p17
aS'1080'
p18
aS'1460'
p19
aasS'EndFrame'
p20
S'1500'
p21
sS'Video'
p22
S'549_master_small.mov'
p23
sS'Words'
p24
(lp25
g5
ag9
ag13
ag17
asS'English'
p26
S'The teacher in the movie theatre.'
p27
sS'StartFrame'
p28
S'0'
p29
ssI1
(dp30
g2
(lp31
(lp32
S'MOVIE'
p33
aS'1720'
p34
aS'2060'
p35
aa(lp36
S'END'
p37
aS'2180'
p38
aS'2760'
p39
aa(lp40
S'FUTURE'
p41
aS'2860'
p42
aS'2880'
p43
aa(lp44
S'BUY'
p45
aS'3000'
p46
aS'3120'
p47
aa(lp48
S'BOOK'
p49
aS'3160'
p50
aS'3240'
p51
aa(lp52
S'j:GIFT:k'
p53
aS'3340'
p54
aS'3500'
p55
aa(lp56
S'STUDENT'
p57
aS'3620'
p58
aS'3800'
p59
aa(lp60
S'READ'
p61
aS'3840'
p62
aS'4040'
p63
aasg20
S'4280'
p64
sg22
S'549_master_small.mov'
p65
sg24
(lp66
g33
ag37
ag41
ag45
ag49
ag53
ag57
ag61
asg26
S'After the movie ends, the teacher will buy a book to give to the student to read.'
p67
sg28
S'1500'
p68
ss.