(lp0
S'(L)FUTURE'
p1
aS'ABOUT'
p2
aS'NEVER'
p3
aS'QMwg'
p4
aS'FORMERLY'
p5
aS'THAT'
p6
aS'READ'
p7
aS'THUMB-IX-3p:i'
p8
aS'READ+'
p9
aS'BOOK+'
p10
aS'LIFE'
p11
aS'SEE:j'
p12
aS'part:indef'
p13
aS'(2h)SHOULD'
p14
aS'WHO'
p15
aS'SHOULD'
p16
aS'!MUST!'
p17
aS'(1h)part:indef'
p18
aS'PROCEED'
p19
aS'CAR'
p20
aS'WHAT'
p21
aS'BUY'
p22
aS'IX-1p'
p23
aS'WHEN'
p24
aS'SEE'
p25
aS'IX-loc:i'
p26
aS'IX-loc:j'
p27
aS'BOOK'
p28
aS'NOT-YET'
p29
aS'POSS-3p:i'
p30
aS'MUST'
p31
aS'REQUIRE'
p32
aS'ns-LINCOLN'
p33
aS'INFORMATION'
p34
aS'FINISH'
p35
aS'KNOW'
p36
aS'EXAM'
p37
aS'POSS-3p:j'
p38
aS'MOTHER'
p39
aS'FATHER'
p40
aS'(1h)DCL:Bhair on head raising'
p41
aS'(2h)GIVE-indef'
p42
aS'FIND/FIND-OUT'
p43
aS'SUPPOSE'
p44
aS'PLAN'
p45
aS'WHICH'
p46
aS'GIFT:j'
p47
aS'NEED'
p48
aS'IX-3p:i'
p49
aS'IX-3p:j'
p50
aS'(Y)WHY'
p51
aS'fs-JOHN'
p52
aS'HOUSE'
p53
aS'AFTER'
p54
aS'YESTERDAY'
p55
aS'CLASS'
p56
aS'STUDENT'
p57
aS'FUTURE'
p58
aS'THAT:i'
p59
aS'NOT'
p60
aS'fs-MARY'
p61
aS'MOTHER+'
p62
aS'TEACHER'
p63
aS'MORE'
p64
a.