(lp0
S'(1h)part:indef'
p1
aS'COFFEE'
p2
aS'IX-loc-arc'
p3
aS'QMwg'
p4
aS'SCL:Bboat-sink'
p5
aS'CAR'
p6
aS'READ+'
p7
aS'BOOK+'
p8
aS'STRANGE'
p9
aS'#ALL'
p10
aS'part:indef'
p11
aS'WANT'
p12
aS'GIFT-3p-pl-arc'
p13
aS'BOAT'
p14
aS'WHAT'
p15
aS'BUY'
p16
aS'(2h)alt.GIVE-recip+'
p17
aS'i:GIFT:j'
p18
aS'TEA'
p19
aS'SEE'
p20
aS'IX-loc:i'
p21
aS'IX-loc:j'
p22
aS'SOMETHING/ONE'
p23
aS'MOTHER'
p24
aS'ARRIVE'
p25
aS'neu:GIVE-3p-pl-arc'
p26
aS'IX-3p-pl-arc>i'
p27
aS'(1h)TEACHER'
p28
aS'FINISH'
p29
aS'IX-loc:arc'
p30
aS'FIND/FIND-OUT'
p31
aS'WHICH'
p32
aS'IX-3p:i'
p33
aS'IX-3p:j'
p34
aS'SCL:3vehicle-sink'
p35
aS'IX-2p:i'
p36
aS'(2h)alt.neu:GIFT++:j'
p37
aS'fs-JOHN'
p38
aS'HOUSE'
p39
aS'YESTERDAY'
p40
aS'um'
p41
aS'NEAR'
p42
aS'BOOK'
p43
aS'ns-CAPE-COD'
p44
aS'STUDENT'
p45
aS'neu:GIVE:j'
p46
aS'GIFT:j'
p47
aS'NOW'
p48
aS'TEACHER'
p49
aS'GIFT-distributive:j'
p50
a.