(lp0
S'5so, all set'
p1
aS'(L)FUTURE'
p2
aS'ABOUT'
p3
aS'MOTHERwg'
p4
aS'(1h)part:indef'
p5
aS'CAR'
p6
aS'READ+'
p7
aS'IX-loc-arc'
p8
aS'UNDERSTAND'
p9
aS'SEE:i'
p10
aS'SHOULD'
p11
aS'STAND+'
p12
aS'(1h)WHAT'
p13
aS'REALLY'
p14
aS'IX-1p'
p15
aS'BUY'
p16
aS'POSS-3p:i'
p17
aS'NEVER'
p18
aS'WHEN'
p19
aS'BUT'
p20
aS'BETTER'
p21
aS'IX-loc:i'
p22
aS'SAY'
p23
aS'FUTURE'
p24
aS'FATHERwg'
p25
aS'NOT-YET'
p26
aS'MOTHER'
p27
aS'SEE:neu'
p28
aS'READ++'
p29
aS'FINISH'
p30
aS'CLEAR'
p31
aS'LATERwg'
p32
aS'FATHER'
p33
aS'SUPPOSE'
p34
aS'PLAN'
p35
aS'WHICH'
p36
aS'IX-3p:i'
p37
aS'IX-3p:j'
p38
aS'(25)WHY^part:indef'
p39
aS'fs-JOHN'
p40
aS'HOUSE'
p41
aS'YESTERDAY'
p42
aS"5doesn't matter"
p43
aS'BOOK'
p44
aS'STUDENT'
p45
aS'NOT'
p46
aS'YES'
p47
aS'MOTHER+'
p48
aS'SOON++'
p49
aS'MORE'
p50
a.