(lp0
S'HOW-MANY'
p1
aS'ONE-distributive-3p-pl-arc'
p2
aS'QMwg'
p3
aS'THAT'
p4
aS'CAR'
p5
aS'PCL:crvd-5group-together'
p6
aS'IX-loc-arc'
p7
aS'part:indef'
p8
aS'WANT'
p9
aS'fs-JOHN'
p10
aS'BUY'
p11
aS'GIFT-distributive-3p-pl-arc'
p12
aS'FATHER'
p13
aS'PITCH-IN'
p14
aS'ONE'
p15
aS'IX-loc:i'
p16
aS'NOT'
p17
aS'FUTURE'
p18
aS'(1h)HOW-MANY'
p19
aS'MOVIE'
p20
aS'#NO'
p21
aS'FINISH'
p22
aS'STUDENT'
p23
aS'FOR'
p24
aS'MOTHER'
p25
aS'PAST'
p26
aS'fs-MARY'
p27
aS'IN'
p28
aS'IX-3p:i'
p29
aS'IX-3p:j'
p30
aS'(2h)alt.GIVE-recip++'
p31
aS'(2h)GIFT-3p-pl-arc'
p32
aS'LIKE'
p33
aS'FUTURE^NOT'
p34
aS'HOUSE'
p35
aS'WATCH'
p36
aS'YESTERDAY'
p37
aS'GIFT-distributive:i'
p38
aS'MOTHERwg'
p39
aS'BOOK'
p40
aS'neu:GIVE:i'
p41
aS'THAT:i'
p42
aS'EACH'
p43
aS'GIFT:j'
p44
aS'GIFT:k'
p45
aS'NOW'
p46
aS'POSS:i'
p47
aS'TEACHER'
p48
a.