(lp0
S'HOW-MANY'
p1
aS'QMwg'
p2
aS'READ'
p3
aS'CAR'
p4
aS'READ+'
p5
aS'BOOK+'
p6
aS'(Y)WHY'
p7
aS'BUY++'
p8
aS'part:indef'
p9
aS'WANT'
p10
aS'IX-3p-pl-arc'
p11
aS'BUY'
p12
aS'POSS-3p:i'
p13
aS'MANY'
p14
aS'FATHER'
p15
aS'MAGAZINE'
p16
aS'BUT'
p17
aS'CHOCOLATE'
p18
aS'NOT'
p19
aS'BOOK'
p20
aS'MOTHER'
p21
aS'EAT'
p22
aS'FINISH'
p23
aS'FOR'
p24
aS'BUY+'
p25
aS'fs-MARY'
p26
aS'NOT-LIKE'
p27
aS'MOVIE'
p28
aS'IX-3p:i'
p29
aS'LOOK-AT+'
p30
aS'NOT-WANT'
p31
aS'AND'
p32
aS'SWITCH'
p33
aS'LIKE'
p34
aS'fs-JOHN'
p35
aS'HOUSE'
p36
aS'YESTERDAY'
p37
aS'SHOULD'
p38
aS'(Y)NOT-LIKE'
p39
aS'FUTURE'
p40
aS'STUDENT'
p41
aS'neu:GIVE:j'
p42
aS'GIFT:j'
p43
aS'GIFT:k'
p44
aS'NOW'
p45
aS'TEACHER'
p46
aS'READ+++'
p47
aS'UP-TO-NOW'
p48
a.