(lp0
S'(1h)part:indef'
p1
aS'ABOUT'
p2
aS'NEVER'
p3
aS'QMwg'
p4
aS'WHICH'
p5
aS'THAT'
p6
aS'READ'
p7
aS'POSS-3p:i'
p8
aS'READ+'
p9
aS'BOOK+'
p10
aS'LIFE'
p11
aS'FIND^#OUT'
p12
aS'part:indef'
p13
aS'IX-3p:j'
p14
aS'fs-J'
p15
aS'(2h)NEED'
p16
aS'NOT'
p17
aS'MUST'
p18
aS'(1h)CAR'
p19
aS'WHAT'
p20
aS'BUY'
p21
aS'MANY'
p22
aS'BOOK++'
p23
aS'(2h)DCL:Bhair on head raising'
p24
aS'WHEN'
p25
aS'IX-loc:j'
p26
aS'!MUST!'
p27
aS'IX-loc:i'
p28
aS'SEE'
p29
aS'BOOK'
p30
aS'FATHERwg'
p31
aS'NOT-YET'
p32
aS'(1h)HOW-MANY'
p33
aS'CAR'
p34
aS'neu:GIFT:i'
p35
aS'neu:GIFT:j'
p36
aS'CLASS'
p37
aS'ns-LINCOLN'
p38
aS'INFORMATION'
p39
aS'FINISH'
p40
aS'KNOW'
p41
aS'THAT:i'
p42
aS'POSS-3p:j'
p43
aS'OVER/AFTER'
p44
aS'MOTHER'
p45
aS'IX-1p'
p46
aS'MOTHER+'
p47
aS'BUY+'
p48
aS'FATHER'
p49
aS'fs-MARY'
p50
aS'REQUIRE'
p51
aS'NEED'
p52
aS'IX-3p:i'
p53
aS'TEST+'
p54
aS'IX-3p:k'
p55
aS'IX-3p:m'
p56
aS'NOT-WANT'
p57
aS'(V)FUTURE'
p58
aS'#IF'
p59
aS'fs-JOHN'
p60
aS'(25)WHY'
p61
aS'HOUSE'
p62
aS'GIFT:j'
p63
aS'YESTERDAY'
p64
aS'SHOULD'
p65
aS'j:GIFT:i'
p66
aS'#WHEN'
p67
aS'FUTURE'
p68
aS'STUDENT'
p69
aS'neu:GIVE:j'
p70
aS'TEST'
p71
aS'GIFT:k'
p72
aS'NOW'
p73
aS'TEACHER'
p74
aS'READ+++'
p75
aS'MORE'
p76
a.