(lp0
S'(L)FUTURE'
p1
aS'HOW-MANY'
p2
aS'MOTHERwg'
p3
aS'FORMERLY'
p4
aS'BOOK++'
p5
aS'CAR'
p6
aS'READ+'
p7
aS'BOOK+'
p8
aS'SOON'
p9
aS'PAY'
p10
aS'BUY++'
p11
aS'(25)WHY'
p12
aS'part:indef'
p13
aS'STEAL'
p14
aS'MUST'
p15
aS'ENJOY'
p16
aS'BUY'
p17
aS'NO'
p18
aS'MANY'
p19
aS'WHO'
p20
aS'FATHER'
p21
aS'IX-loc:j'
p22
aS'BUT'
p23
aS'CHOCOLATE'
p24
aS'IX-loc:i'
p25
aS'5attitude-marker'
p26
aS'IX-loc:k'
p27
aS'FATHERwg'
p28
aS'(2h)GIVE:j'
p29
aS'MOTHER'
p30
aS'KISS-FIST'
p31
aS'neu:GIFT:j'
p32
aS'REALLY'
p33
aS'NOT-KNOW'
p34
aS'READ++'
p35
aS'STUDENT'
p36
aS'FOR'
p37
aS'BUY+'
p38
aS'fs-MARY'
p39
aS'UP-TO-NOW'
p40
aS'MOVIE'
p41
aS'IX-3p:i'
p42
aS'IX-3p:j'
p43
aS'NOT-WANT'
p44
aS'(1h)WOW/AWFUL'
p45
aS'LIKE'
p46
aS'fs-JOHN'
p47
aS'HOUSE'
p48
aS'YESTERDAY'
p49
aS'BOOK'
p50
aS'VOMIT'
p51
aS'THAT:i'
p52
aS'neu:GIVE:j'
p53
aS'NOT'
p54
aS'NOW'
p55
aS'TEACHER'
p56
aS'KID'
p57
a.