(lp0
S'(L)FUTURE'
p1
aS'HOW-MANY'
p2
aS'MOTHERwg'
p3
aS'FUTURE^NOT'
p4
aS'READ'
p5
aS'MOVIE'
p6
aS'READ+'
p7
aS'BOOK+'
p8
aS'(2h)IX-3p:j'
p9
aS'(25)WHY'
p10
aS'i:GIVE:j'
p11
aS'part:indef'
p12
aS'!LIKE!'
p13
aS'CAR'
p14
aS'BOTH'
p15
aS'BUY'
p16
aS'FATHER'
p17
aS'MAGAZINE'
p18
aS'CHOCOLATE'
p19
aS'IX-loc:i'
p20
aS'IX-loc:j'
p21
aS'BOOK'
p22
aS'FATHERwg'
p23
aS'(1h)HOW-MANY'
p24
aS'MOTHER'
p25
aS'#NO'
p26
aS'POSS-3p:j'
p27
aS'(1h)TEACHER'
p28
aS'FINISH'
p29
aS'THAT:i'
p30
aS'!NOW!'
p31
aS'IN'
p32
aS'IX-3p:i'
p33
aS'IX-3p:j'
p34
aS'AND'
p35
aS'IX-2p:i'
p36
aS'GIFT:i'
p37
aS'LIKE'
p38
aS'fs-JOHN'
p39
aS'HOUSE'
p40
aS'YESTERDAY'
p41
aS'SHOULD'
p42
aS'um'
p43
aS'FUTURE'
p44
aS'STUDENT'
p45
aS'neu:GIVE:j'
p46
aS'NOT'
p47
aS'NOW'
p48
aS'TEACHER'
p49
a.