(lp0
S'CL:5eating the whole thing'
p1
aS'CL:5scaring'
p2
aS'NAH'
p3
aS'THREE'
p4
aS'ICL:Sclosing the object'
p5
aS'part:indef'
p6
aS'CL:5attacking'
p7
aS'GROW-UP'
p8
aS'(2H)CL:5location'
p9
aS'CL:5sucking the air'
p10
aS'PIG'
p11
aS'DELICIOUS'
p12
aS'CL:2running'
p13
aS'CL:1person walking'
p14
aS'CARE'
p15
aS'CHASE'
p16
aS'TAKE-OVER'
p17
aS'WAIT'
p18
aS'HARD'
p19
aS'IX-2p:i'
p20
aS'GET-UP'
p21
aS'BUILD'
p22
aS'CL:5location'
p23
aS'WHERE'
p24
aS'BEAUTIFUL'
p25
aS'LOOK'
p26
aS'HOUSE'
p27
aS'TREE'
p28
aS'BRICK+'
p29
aS'FUTURE'
p30
aS'READY'
p31
aS'#OK'
p32
aS'ABOUT'
p33
aS'DO++'
p34
aS'BROTHER'
p35
aS'LEAVE'
p36
aS'CL:5the height of person'
p37
aS'(2h)#OK'
p38
aS'FIND'
p39
aS'HIDE'
p40
aS'BCL:Swaiting'
p41
aS'CL:3people walking'
p42
aS'BUT'
p43
aS'CUT++'
p44
aS'IX-loc:i'
p45
aS'IX-loc:j'
p46
aS'WOLF'
p47
aS'VISIT+'
p48
aS'CHAIR'
p49
aS'INFORMATION'
p50
aS'LAZY'
p51
aS'FINISH'
p52
aS'(2h)CL:3sitting'
p53
aS'IX-1p'
p54
aS'LOOK-AROUND'
p55
aS'IX-3p:i'
p56
aS'BRICK'
p57
aS'IX-3p:k'
p58
aS'AGREE'
p59
aS'BLOW'
p60
aS'IX-3p-pl-2:i/j'
p61
aS'TEND'
p62
aS'WOOD'
p63
aS'GO-AHEAD'
p64
aS'TIME'
p65
aS'NOT'
p66
aS'GONE'
p67
aS'UNKNOWN'
p68
aS'ahh'
p69
aS'(2h)FANCY++'
p70
aS'GRASS'
p71
aS'IX-3p:j'
p72
aS'CL:5talking back and forth'
p73
aS'REFUSE'
p74
aS'LAND'
p75
aS'WORK'
p76
aS'SCARE'
p77
aS'SEE'
p78
aS'CLOSE'
p79
aS'ARRIVE'
p80
aS'LOCK'
p81
aS'AVERAGE'
p82
aS'HAPPEN'
p83
aS'SMELL'
p84
aS'GO-AWAY'
p85
aS'MISTAKE'
p86
aS'CL:5the object flying out'
p87
aS'ALL'
p88
aS'RUN'
p89
aS'CL:5shocking'
p90
aS'(2h)CL:3sitting down'
p91
aS'DO'
p92
aS'CHARACTER'
p93
aS'TWO'
p94
aS'SEEM'
p95
aS'SET-UP-arc'
p96
aS'ICL:1wrapping the object'
p97
aS'ONE'
p98
aS'TO'
p99
aS'MOTHER'
p100
aS'GOOD-ENOUGH++'
p101
aS'EAT'
p102
aS'fs-OWN'
p103
aS'STORY'
p104
aS'IX-2p-arc'
p105
aS'BCL:5walking'
p106
aS'WARN'
p107
aS'IN'
p108
aS'FROM'
p109
aS'DECORATE'
p110
aS'ICL:Sfixing'
p111
a.