(dp0
I0
(dp1
S'Annotated'
p2
(lp3
(lp4
S'IX-1p'
p5
aS'520'
p6
aS'720'
p7
aa(lp8
S'REALLY'
p9
aS'1200'
p10
aS'1400'
p11
aa(lp12
S'IX-1p'
p13
aS'1560'
p14
aS'1760'
p15
aa(lp16
S'PAST'
p17
aS'1920'
p18
aS'2240'
p19
aa(lp20
S'IX-1p'
p21
aS'2520'
p22
aS'2640'
p23
aa(lp24
S'FOUR-YEAR'
p25
aS'2760'
p26
aS'3240'
p27
aa(lp28
S'FIVE-YEAR'
p29
aS'3440'
p30
aS'4240'
p31
aasS'EndFrame'
p32
S'4240'
p33
sS'Video'
p34
NsS'Words'
p35
(lp36
g5
ag9
ag13
ag17
ag21
ag25
ag29
asS'English'
p37
S'In the past when I was four or five years old.'
p38
sS'StartFrame'
p39
S'0'
p40
ssI1
(dp41
g2
(lp42
(lp43
S'IX-1p'
p44
aS'4560'
p45
aS'4720'
p46
aa(lp47
S'POSS-1p'
p48
aS'4840'
p49
aS'4920'
p50
aa(lp51
S'GRANDFATHER'
p52
aS'5120'
p53
aS'5440'
p54
aa(lp55
S'IX-3p:i'
p56
aS'5600'
p57
aS'5840'
p58
aa(lp59
S'BIG'
p60
aS'6000'
p61
aS'6520'
p62
aa(lp63
S'BOXING'
p64
aS'6680'
p65
aS'7280'
p66
aa(lp67
S'#FAN'
p68
aS'7480'
p69
aS'8080'
p70
aa(lp71
S'KNOW'
p72
aS'8200'
p73
aS'8320'
p74
aa(lp75
S'fs-BOXING'
p76
aS'8440'
p77
aS'9200'
p78
aa(lp79
S'BOXING'
p80
aS'9360'
p81
aS'9760'
p82
aa(lp83
S'UNKNOWN'
p84
aS'10040'
p85
aS'10121'
p86
aasg32
S'10121'
p87
sg34
Nsg35
(lp88
g44
ag48
ag52
ag56
ag60
ag64
ag68
ag72
ag76
ag80
ag84
asg37
S'My grandfather was big boxing fan.'
p89
sg39
S'4240'
p90
ssI2
(dp91
g2
(lp92
(lp93
S'REALLY'
p94
aS'10520'
p95
aS'10680'
p96
aa(lp97
S'POSS-1p'
p98
aS'10800'
p99
aS'10880'
p100
aa(lp101
S'CL:3sit down'
p102
aS'11280'
p103
aS'11400'
p104
aa(lp105
S'come on'
p106
aS'11520'
p107
aS'11840'
p108
aa(lp109
S'LOOK++'
p110
aS'11960'
p111
aS'12640'
p112
aa(lp113
S'BOXING'
p114
aS'12840'
p115
aS'13280'
p116
aa(lp117
S'IX-1p'
p118
aS'13560'
p119
aS'13800'
p120
aa(lp121
S'part:indef'
p122
aS'14040'
p123
aS'14440'
p124
aasg32
S'14440'
p125
sg34
Nsg35
(lp126
g94
ag98
ag102
ag106
ag110
ag114
ag118
ag122
asg37
S'He asked me to sit down and watch boxing but I was clueless.'
p127
sg39
S'10121'
p128
ssI3
(dp129
g2
(lp130
(lp131
S'FINE'
p132
aS'14560'
p133
aS'14920'
p134
aa(lp135
S'IX-1p'
p136
aS'15040'
p137
aS'15120'
p138
aa(lp139
S'SMALL'
p140
aS'15360'
p141
aS'15480'
p142
aa(lp143
S'YOUNG'
p144
aS'15720'
p145
aS'15960'
p146
aa(lp147
S'NOT'
p148
aS'16000'
p149
aS'16080'
p150
aa(lp151
S'REMEMBER'
p152
aS'16160'
p153
aS'16440'
p154
aa(lp155
S'#BUT'
p156
aS'16520'
p157
aS'16840'
p158
aasg32
S'16840'
p159
sg34
Nsg35
(lp160
g132
ag136
ag140
ag144
ag148
ag152
ag156
asg37
S"I couldn't remember anything because I was too young."
p161
sg39
S'14440'
p162
ssI4
(dp163
g2
(lp164
(lp165
S'POSS-1p'
p166
aS'17200'
p167
aS'17240'
p168
aa(lp169
S'FATHER'
p170
aS'17400'
p171
aS'17480'
p172
aa(lp173
S'EXPLAIN'
p174
aS'17640'
p175
aS'17840'
p176
aa(lp177
S'SAY'
p178
aS'18000'
p179
aS'18160'
p180
aa(lp181
S'wave'
p182
aS'18680'
p183
aS'18800'
p184
aa(lp185
S'IX-2p'
p186
aS'18880'
p187
aS'18920'
p188
aa(lp189
S'REALLY'
p190
aS'19080'
p191
aS'19160'
p192
aa(lp193
S'IX-2p'
p194
aS'19280'
p195
aS'19320'
p196
aa(lp197
S'KISS'
p198
aS'19520'
p199
aS'19600'
p200
aa(lp201
S'BOXING'
p202
aS'19760'
p203
aS'20200'
p204
aasg32
S'21120'
p205
sg34
Nsg35
(lp206
g166
ag170
ag174
ag178
ag182
ag186
ag190
ag194
ag198
ag202
asg37
S'My father told me that I used to love boxing when I grew up.'
p207
sg39
S'16840'
p208
ssI5
(dp209
g2
(lp210
(lp211
S'IX-1p'
p212
aS'21280'
p213
aS'21400'
p214
aa(lp215
S'LOOK'
p216
aS'21560'
p217
aS'21600'
p218
aa(lp219
S'ohh'
p220
aS'21680'
p221
aS'21880'
p222
aa(lp223
S'IX-1p'
p224
aS'22000'
p225
aS'22120'
p226
aa(lp227
S'LOOK'
p228
aS'22280'
p229
aS'22360'
p230
aa(lp231
S'CL:Lholding remote'
p232
aS'22480'
p233
aS'22880'
p234
aa(lp235
S'BOXING'
p236
aS'23120'
p237
aS'23640'
p238
aasg32
S'23640'
p239
sg34
Nsg35
(lp240
g212
ag216
ag220
ag224
ag228
ag232
ag236
asg37
S'I said oh, then watched boxing on TV.'
p241
sg39
S'21120'
p242
ssI6
(dp243
g2
(lp244
(lp245
S'IX-1p'
p246
aS'23760'
p247
aS'23840'
p248
aa(lp249
S'LOOK'
p250
aS'24040'
p251
aS'24200'
p252
aa(lp253
S'MIND'
p254
aS'24400'
p255
aS'24720'
p256
aa(lp257
S'IX-1p'
p258
aS'24840'
p259
aS'25120'
p260
aa(lp261
S'FUTURE'
p262
aS'25280'
p263
aS'25480'
p264
aa(lp265
S'BOXING'
p266
aS'25640'
p267
aS'26080'
p268
aasg32
S'26080'
p269
sg34
Nsg35
(lp270
g246
ag250
ag254
ag258
ag262
ag266
asg37
S'I would not mind to boxing someday in the future.'
p271
sg39
S'23640'
p272
ssI7
(dp273
g2
(lp274
(lp275
S'IX-1p'
p276
aS'26360'
p277
aS'26400'
p278
aa(lp279
S'WORK-OUT++'
p280
aS'26600'
p281
aS'27280'
p282
aa(lp283
S'BCL:5muscles on stomach'
p284
aS'27440'
p285
aS'28160'
p286
aa(lp287
S'REALLY'
p288
aS'28520'
p289
aS'28600'
p290
aa(lp291
S'wow'
p292
aS'28720'
p293
aS'29200'
p294
aa(lp295
S'BUT'
p296
aS'29360'
p297
aS'29600'
p298
aa(lp299
S'wow'
p300
aS'29760'
p301
aS'30120'
p302
aa(lp303
S'A-LOT'
p304
aS'30280'
p305
aS'30400'
p306
aa(lp307
S'TIME'
p308
aS'30680'
p309
aS'30760'
p310
aa(lp311
S'REQUIRE'
p312
aS'30960'
p313
aS'31280'
p314
aasg32
S'31280'
p315
sg34
Nsg35
(lp316
g276
ag280
ag284
ag288
ag292
ag296
ag300
ag304
ag308
ag312
asg37
S'I would work out and have those kind of muscles on my stomach.  It would be nice, but it is going to take a lot of my time.'
p317
sg39
S'26080'
p318
ssI8
(dp319
g2
(lp320
(lp321
S'#SO'
p322
aS'31360'
p323
aS'31440'
p324
aa(lp325
S'IX-1p'
p326
aS'31560'
p327
aS'31640'
p328
aa(lp329
S'UNKNOWN'
p330
aS'31840'
p331
aS'31920'
p332
aa(lp333
S'IX-1p'
p334
aS'32040'
p335
aS'32120'
p336
aa(lp337
S'CL:Lholding the remote'
p338
aS'32360'
p339
aS'32720'
p340
aa(lp341
S'UNKNOWN'
p342
aS'33000'
p343
aS'33160'
p344
aa(lp345
S'IMPACT'
p346
aS'33760'
p347
aS'34120'
p348
aa(lp349
S'REALLY'
p350
aS'34280'
p351
aS'34440'
p352
aa(lp353
S'part:indef'
p354
aS'34800'
p355
aS'35400'
p356
aasg32
S'35400'
p357
sg34
Nsg35
(lp358
g322
ag326
ag330
ag334
ag338
ag342
ag346
ag350
ag354
asg37
S'One thing that impacted me when I was watching TV.'
p359
sg39
S'31280'
p360
ssI9
(dp361
g2
(lp362
(lp363
S'LAST-YEAR'
p364
aS'35720'
p365
aS'36200'
p366
aa(lp367
S'IX-1p'
p368
aS'36360'
p369
aS'36440'
p370
aa(lp371
S'CL:Lholding the remote'
p372
aS'36880'
p373
aS'37200'
p374
aa(lp375
S'ONE'
p376
aS'37280'
p377
aS'37360'
p378
aa(lp379
S'STORY'
p380
aS'37560'
p381
aS'38080'
p382
aa(lp383
S'ON'
p384
aS'38360'
p385
aS'38440'
p386
aa(lp387
S'fs-MUHAMMAD'
p388
aS'38640'
p389
aS'40520'
p390
aa(lp391
S'fs-ALI'
p392
aS'40800'
p393
aS'41520'
p394
aa(lp395
S'ON'
p396
aS'41800'
p397
aS'42000'
p398
aa(lp399
S'CHANNEL'
p400
aS'42200'
p401
aS'42440'
p402
aa(lp403
S'#CNN'
p404
aS'42680'
p405
aS'43840'
p406
aasg32
S'43840'
p407
sg34
Nsg35
(lp408
g364
ag368
ag372
ag376
ag380
ag384
ag388
ag392
ag396
ag400
ag404
asg37
S'Last year, I watched a story about Muhammad Ali on channel CNN.'
p409
sg39
S'35400'
p410
ssI10
(dp411
g2
(lp412
(lp413
S'AFTER'
p414
aS'49600'
p415
aS'49680'
p416
aa(lp417
S'IX-3p:i'
p418
aS'49800'
p419
aS'49840'
p420
aa(lp421
S'STORY'
p422
aS'50000'
p423
aS'50440'
p424
aa(lp425
S'IX-3p:i'
p426
aS'50600'
p427
aS'50800'
p428
aa(lp429
S'fs-MUHAMMAD'
p430
aS'51080'
p431
aS'52920'
p432
aa(lp433
S'fs-ALI'
p434
aS'53040'
p435
aS'53560'
p436
aa(lp437
S'POSS-1p'
p438
aS'53720'
p439
aS'53840'
p440
aa(lp441
S'FAVORITE'
p442
aS'53920'
p443
aS'54080'
p444
aa(lp445
S'BOXING'
p446
aS'54240'
p447
aS'54320'
p448
aa(lp449
S'FINISH'
p450
aS'54640'
p451
aS'54800'
p452
aasg32
S'55200'
p453
sg34
Nsg35
(lp454
g414
ag418
ag422
ag426
ag430
ag434
ag438
ag442
ag446
ag450
asg37
S'After I watched that story, Muhammad Ali is my favorite boxing.'
p455
sg39
S'49360'
p456
ssI11
(dp457
g2
(lp458
(lp459
S'REALLY'
p460
aS'55320'
p461
aS'55480'
p462
aa(lp463
S'IX-3p:i'
p464
aS'55640'
p465
aS'56200'
p466
aa(lp467
S'POSS-3p:i'
p468
aS'56400'
p469
aS'56480'
p470
aa(lp471
S'WIFE'
p472
aS'56680'
p473
aS'57040'
p474
aa(lp475
S'INVITE'
p476
aS'57160'
p477
aS'57560'
p478
aa(lp479
S'REPORTER'
p480
aS'57800'
p481
aS'58120'
p482
aa(lp483
S'GO'
p484
aS'58320'
p485
aS'58400'
p486
aa(lp487
S'POSS-3p:i'
p488
aS'58520'
p489
aS'58760'
p490
aa(lp491
S'HOUSE'
p492
aS'58960'
p493
aS'59640'
p494
aasg32
S'59640'
p495
sg34
Nsg35
(lp496
g460
ag464
ag468
ag472
ag476
ag480
ag484
ag488
ag492
asg37
S'His wife invited reporter over their house.'
p497
sg39
S'55200'
p498
ssI12
(dp499
g2
(lp500
(lp501
S'HAVE'
p502
aS'59920'
p503
aS'60000'
p504
aa(lp505
S'DINNER'
p506
aS'60160'
p507
aS'61000'
p508
aa(lp509
S'part:indef'
p510
aS'61600'
p511
aS'61760'
p512
aa(lp513
S'REALLY'
p514
aS'62480'
p515
aS'62560'
p516
aa(lp517
S'SPORT'
p518
aS'62680'
p519
aS'62800'
p520
aa(lp521
S'THUMB-IX-3p:i'
p522
aS'62920'
p523
aS'63080'
p524
aa(lp525
S'SPORT'
p526
aS'63200'
p527
aS'63400'
p528
aa(lp529
S'REPORTER'
p530
aS'63640'
p531
aS'64000'
p532
aa(lp533
S'COLLECT'
p534
aS'64320'
p535
aS'64720'
p536
aa(lp537
S'MORE'
p538
aS'64840'
p539
aS'64960'
p540
aa(lp541
S'INFORMATION'
p542
aS'65160'
p543
aS'65320'
p544
aa(lp545
S'ABOUT'
p546
aS'65480'
p547
aS'65640'
p548
aa(lp549
S'fs-MUHAMMAD'
p550
aS'65960'
p551
aS'67200'
p552
aa(lp553
S'fs-ALI'
p554
aS'67320'
p555
aS'67960'
p556
aa(lp557
S'punct'
p558
aS'68240'
p559
aasg32
S'68411'
p560
sg34
Nsg35
(lp561
g502
ag506
ag510
ag514
ag518
ag522
ag526
ag530
ag534
ag538
ag542
ag546
ag550
ag554
ag558
asg37
S'They had dinner while sport reporter collecting more information about Muhammad Ail.'
p562
sg39
S'59640'
p563
ssI13
(dp564
g2
(lp565
(lp566
S'IX-3p'
p567
aS'69480'
p568
aS'69680'
p569
aa(lp570
S'WIFE'
p571
aS'69960'
p572
aS'70240'
p573
aa(lp574
S'COOK'
p575
aS'70360'
p576
aS'70520'
p577
aa(lp578
S'CL:Lsetting up the objects++'
p579
aS'71040'
p580
aS'71960'
p581
aa(lp582
S'READY'
p583
aS'72080'
p584
aS'72240'
p585
aa(lp586
S'CL:3sitting around'
p587
aS'72480'
p588
aS'72920'
p589
aa(lp590
S'CHAT++'
p591
aS'73040'
p592
aS'73800'
p593
aasg32
S'73960'
p594
sg34
Nsg35
(lp595
g567
ag571
ag575
ag579
ag583
ag587
ag591
asg37
S'His wife cooked and get things ready for dinner.  They sat down and chatting.'
p596
sg39
S'68411'
p597
ssI14
(dp598
g2
(lp599
(lp600
S'REPORTER'
p601
aS'74160'
p602
aS'74680'
p603
aa(lp604
S'part:indef'
p605
aS'75000'
p606
aS'75120'
p607
aa(lp608
S'ASK'
p609
aS'75280'
p610
aS'75760'
p611
aa(lp612
S'fs-MUHAMMAD'
p613
aS'75960'
p614
aS'76840'
p615
aa(lp616
S'fs-ALI'
p617
aS'76920'
p618
aS'77400'
p619
aa(lp620
S'part:indef'
p621
aS'77520'
p622
aS'77640'
p623
aa(lp624
S'SIMPLE'
p625
aS'77760'
p626
aS'78040'
p627
aa(lp628
S'QUESTION'
p629
aS'78200'
p630
aS'78680'
p631
aa(lp632
S'part:indef'
p633
aS'78800'
p634
aS'78880'
p635
aasg32
S'78880'
p636
sg34
Nsg35
(lp637
g601
ag605
ag609
ag613
ag617
ag621
ag625
ag629
ag633
asg37
S'The reporter decided to ask Muhammad Ali a simple question.'
p638
sg39
S'73960'
p639
ssI15
(dp640
g2
(lp641
(lp642
S'fs-ALI'
p643
aS'79120'
p644
aS'79640'
p645
aa(lp646
S'START'
p647
aS'79800'
p648
aS'80000'
p649
aa(lp650
S'#TO'
p651
aS'80040'
p652
aS'80320'
p653
aa(lp654
S'part:indef'
p655
aS'80520'
p656
aS'80840'
p657
aa(lp658
S'IX-3p:i'
p659
aS'80920'
p660
aS'81000'
p661
aa(lp662
S'KNOW'
p663
aS'81120'
p664
aS'81280'
p665
aa(lp666
S'IX-3p:i'
p667
aS'81520'
p668
aS'81720'
p669
aa(lp670
S'HAVE'
p671
aS'81840'
p672
aS'82040'
p673
aa(lp674
S'fs-PAKINSON'
p675
aS'82320'
p676
aS'83760'
p677
aa(lp678
S'SICK'
p679
aS'83880'
p680
aS'84680'
p681
aa(lp682
S'IX-3p:i'
p683
aS'84800'
p684
aS'85120'
p685
aa(lp686
S'SICK'
p687
aS'85160'
p688
aS'85200'
p689
aasg32
S'85200'
p690
sg34
Nsg35
(lp691
g643
ag647
ag651
ag655
ag659
ag663
ag667
ag671
ag675
ag679
ag683
ag687
asg37
S"Ali start to.. you know, he had Parkinson's disease."
p692
sg39
S'78880'
p693
ssI16
(dp694
g2
(lp695
(lp696
S'SICK'
p697
aS'85200'
p698
aS'85280'
p699
aa(lp700
S'TEND'
p701
aS'85440'
p702
aS'85520'
p703
aa(lp704
S'SHAKE'
p705
aS'85640'
p706
aS'86400'
p707
aa(lp708
S'SOMETIME'
p709
aS'86720'
p710
aS'86960'
p711
aa(lp712
S'NOT'
p713
aS'87080'
p714
aS'87120'
p715
aa(lp716
S'ATTENTION'
p717
aS'87200'
p718
aS'87840'
p719
aa(lp720
S'HAVE'
p721
aS'88040'
p722
aS'88120'
p723
aa(lp724
S'HARD'
p725
aS'88280'
p726
aS'88360'
p727
aa(lp728
S'TIME'
p729
aS'88480'
p730
aS'88560'
p731
aa(lp732
S'FOCUS'
p733
aS'88840'
p734
aS'89560'
p735
aasg32
S'89560'
p736
sg34
Nsg35
(lp737
g697
ag701
ag705
ag709
ag713
ag717
ag721
ag725
ag729
ag733
asg37
S'He tend to shaking sometime, that he have hard time to focus on things.'
p738
sg39
S'85200'
p739
ssI17
(dp740
g2
(lp741
(lp742
S'#SO'
p743
aS'89680'
p744
aS'89760'
p745
aa(lp746
S'START'
p747
aS'90080'
p748
aS'90200'
p749
aa(lp750
S'#TO'
p751
aS'90320'
p752
aS'90520'
p753
aa(lp754
S'UNKNOWN'
p755
aS'90640'
p756
aS'90880'
p757
aa(lp758
S'REALLY'
p759
aS'91000'
p760
aS'91120'
p761
aa(lp762
S'SHAKE'
p763
aS'91240'
p764
aS'92200'
p765
aa(lp766
S'REPORTER'
p767
aS'92440'
p768
aS'92760'
p769
aa(lp770
S'part:indef'
p771
aS'92960'
p772
aS'93120'
p773
aa(lp774
S'LITTLE-BIT'
p775
aS'93200'
p776
aS'93360'
p777
aa(lp778
S'SCARE'
p779
aS'93760'
p780
aS'94000'
p781
aa(lp782
S'NOT'
p783
aS'94120'
p784
aS'94160'
p785
aa(lp786
S'KNOW'
p787
aS'94280'
p788
aS'94360'
p789
aa(lp790
S'HOW'
p791
aS'94440'
p792
aS'94480'
p793
aa(lp794
S'TO'
p795
aS'94560'
p796
aS'94640'
p797
aa(lp798
S'APPROACH'
p799
aS'94880'
p800
aS'95120'
p801
aa(lp802
S'IX-3p:i'
p803
aS'95240'
p804
aS'95360'
p805
aa(lp806
S'SITUATION'
p807
aS'95560'
p808
aS'96400'
p809
aasg32
S'96400'
p810
sg34
Nsg35
(lp811
g743
ag747
ag751
ag755
ag759
ag763
ag767
ag771
ag775
ag779
ag783
ag787
ag791
ag795
ag799
ag803
ag807
asg37
S'He started to really shaking and reporter got scared.  Hes not sure how to approach that kind of situation.'
p812
sg39
S'89560'
p813
ssI18
(dp814
g2
(lp815
(lp816
S'part:indef'
p817
aS'96560'
p818
aS'97000'
p819
aa(lp820
S'TELL'
p821
aS'97320'
p822
aS'97640'
p823
aa(lp824
S'WIFE'
p825
aS'98040'
p826
aS'98280'
p827
aa(lp828
S'IX-3p:i'
p829
aS'98360'
p830
aS'98560'
p831
aa(lp832
S'ALLRIGHT'
p833
aS'98800'
p834
aS'99320'
p835
aasg32
S'99320'
p836
sg34
Nsg35
(lp837
g817
ag821
ag825
ag829
ag833
asg37
S'Asked his wife if he is allright.'
p838
sg39
S'96400'
p839
ssI19
(dp840
g2
(lp841
(lp842
S'WIFE'
p843
aS'99560'
p844
aS'99880'
p845
aa(lp846
S'SAY'
p847
aS'100080'
p848
aS'100160'
p849
aa(lp850
S'SO-SO'
p851
aS'100240'
p852
aS'100560'
p853
aa(lp854
S'SOMETIME'
p855
aS'100760'
p856
aS'101200'
p857
aa(lp858
S'IX-3p:i'
p859
aS'101280'
p860
aS'101320'
p861
aa(lp862
S'HAVE'
p863
aS'101480'
p864
aS'101560'
p865
aa(lp866
S'BAD'
p867
aS'101800'
p868
aS'102080'
p869
aa(lp870
S'DREAM'
p871
aS'102240'
p872
aS'102600'
p873
aasg32
S'102600'
p874
sg34
Nsg35
(lp875
g843
ag847
ag851
ag855
ag859
ag863
ag867
ag871
asg37
S'Wife said, so-so, sometime he would have a bad dream.'
p876
sg39
S'99320'
p877
ssI20
(dp878
g2
(lp879
(lp880
S'SAME'
p881
aS'102720'
p882
aS'102840'
p883
aa(lp884
S'CL:5dream'
p885
aS'103040'
p886
aS'103400'
p887
aa(lp888
S'IX-3p:i'
p889
aS'103640'
p890
aS'103920'
p891
aa(lp892
S'STILL'
p893
aS'104040'
p894
aS'104240'
p895
aa(lp896
S'BOXING'
p897
aS'104320'
p898
aS'105600'
p899
aa(lp900
S'REALLY'
p901
aS'106080'
p902
aS'106240'
p903
aa(lp904
S'STILL'
p905
aS'106400'
p906
aS'106760'
p907
aa(lp908
S'THINK'
p909
aS'107120'
p910
aS'107360'
p911
aa(lp912
S'IN'
p913
aS'107480'
p914
aS'107560'
p915
aa(lp916
S'#RING'
p917
aS'107680'
p918
aS'108200'
p919
aasg32
S'108200'
p920
sg34
Nsg35
(lp921
g881
ag885
ag889
ag893
ag897
ag901
ag905
ag909
ag913
ag917
asg37
S'He dreamed that he was still boxing, thought hes in ring.'
p922
sg39
S'102600'
p923
ssI21
(dp924
g2
(lp925
(lp926
S'REPORTER'
p927
aS'115000'
p928
aS'115240'
p929
aa(lp930
S'SAY'
p931
aS'115440'
p932
aS'115480'
p933
aa(lp934
S'REALLY'
p935
aS'115520'
p936
aS'115760'
p937
aa(lp938
S'TRUE-BUSINESS'
p939
aS'115880'
p940
aS'116320'
p941
aa(lp942
S'REALLY'
p943
aS'116600'
p944
aS'116760'
p945
aa(lp946
S'fs-MUHAMMAD'
p947
aS'117040'
p948
aS'117680'
p949
aa(lp950
S'fs-ALI'
p951
aS'117760'
p952
aS'118120'
p953
aa(lp954
S'FUTURE'
p955
aS'118240'
p956
aS'118280'
p957
aa(lp958
S'STAND-UP'
p959
aS'118480'
p960
aS'118720'
p961
aa(lp962
S'PUNCH+'
p963
aS'118960'
p964
aS'119320'
p965
aa(lp966
S'AT'
p967
aS'119440'
p968
aS'119520'
p969
aa(lp970
S'PEOPLE'
p971
aS'119640'
p972
aS'119840'
p973
aasg32
S'120040'
p974
sg34
Nsg35
(lp975
g927
ag931
ag935
ag939
ag943
ag947
ag951
ag955
ag959
ag963
ag967
ag971
asg37
S'The reporter said, "Really, Muhammad Ali would stand up and punching at people?"'
p976
sg39
S'114680'
p977
ssI22
(dp978
g2
(lp979
(lp980
S'REALLY'
p981
aS'120120'
p982
aS'120200'
p983
aa(lp984
S'WIFE'
p985
aS'120280'
p986
aS'120560'
p987
aa(lp988
S'YES'
p989
aS'120720'
p990
aS'120840'
p991
aa(lp992
S'IX-1p'
p993
aS'120960'
p994
aS'121040'
p995
aa(lp996
S'SEE'
p997
aS'121280'
p998
aS'121360'
p999
aa(lp1000
S'IX-3p:i'
p1001
aS'121520'
p1002
aS'121560'
p1003
aa(lp1004
S'BEAT'
p1005
aS'121800'
p1006
aS'122440'
p1007
aa(lp1008
S'ONE'
p1009
aS'122560'
p1010
aS'122600'
p1011
aa(lp1012
S'MAN'
p1013
aS'122680'
p1014
aS'123080'
p1015
aa(lp1016
S'PAST'
p1017
aS'123160'
p1018
aS'123440'
p1019
aa(lp1020
S'REALLY'
p1021
aS'123520'
p1022
aS'123680'
p1023
aa(lp1024
S'NO'
p1025
aS'123800'
p1026
aS'123880'
p1027
aa(lp1028
S'REASON'
p1029
aS'123960'
p1030
aS'124600'
p1031
aasg32
S'125000'
p1032
sg34
Nsg35
(lp1033
g981
ag985
ag989
ag993
ag997
ag1001
ag1005
ag1009
ag1013
ag1017
ag1021
ag1025
ag1029
asg37
S'The wife said "Yes, I have seen him beating up one man for no reason"'
p1034
sg39
S'120040'
p1035
ssI23
(dp1036
g2
(lp1037
(lp1038
S'REPORTER'
p1039
aS'125240'
p1040
aS'125560'
p1041
aa(lp1042
S'SAY'
p1043
aS'125680'
p1044
aS'125720'
p1045
aa(lp1046
S'LOOK'
p1047
aS'125840'
p1048
aS'125880'
p1049
aa(lp1050
S'TRUE-BUSINESS'
p1051
aS'126040'
p1052
aS'126680'
p1053
aa(lp1054
S'LOOK'
p1055
aS'127040'
p1056
aS'127240'
p1057
aa(lp1058
S'AT'
p1059
aS'127360'
p1060
aS'127480'
p1061
aa(lp1062
S'fs-MUHAMMAD'
p1063
aS'127680'
p1064
aS'128360'
p1065
aa(lp1066
S'fs-ALI'
p1067
aS'128520'
p1068
aS'128920'
p1069
aasg32
S'128920'
p1070
sg34
Nsg35
(lp1071
g1039
ag1043
ag1047
ag1051
ag1055
ag1059
ag1063
ag1067
asg37
S'The reporter said really? then he looked at Muhammad Ali.'
p1072
sg39
S'125000'
p1073
ssI24
(dp1074
g2
(lp1075
(lp1076
S'fs-ALI'
p1077
aS'129000'
p1078
aS'129440'
p1079
aa(lp1080
S'SIT'
p1081
aS'129640'
p1082
aS'130200'
p1083
aa(lp1084
S'shake'
p1085
aS'130520'
p1086
aS'131120'
p1087
aa(lp1088
S'STAND-UP'
p1089
aS'131640'
p1090
aS'132400'
p1091
aa(lp1092
S'UNKNOWN'
p1093
aS'132520'
p1094
aS'133000'
p1095
aa(lp1096
S'punching++'
p1097
aS'133200'
p1098
aS'136440'
p1099
aasg32
S'136440'
p1100
sg34
Nsg35
(lp1101
g1077
ag1081
ag1085
ag1089
ag1093
ag1097
asg37
S'Ali was sitting and then he got stand up and start to punching.'
p1102
sg39
S'128920'
p1103
ssI25
(dp1104
g2
(lp1105
(lp1106
S'CL:1walking to person'
p1107
aS'137040'
p1108
aS'137600'
p1109
aa(lp1110
S'REPORTER'
p1111
aS'137720'
p1112
aS'138040'
p1113
aa(lp1114
S'CL:5grabbing person++'
p1115
aS'138840'
p1116
aS'140680'
p1117
aa(lp1118
S'CL:Swant to punch'
p1119
aS'141120'
p1120
aS'141760'
p1121
aasg32
S'141760'
p1122
sg34
Nsg35
(lp1123
g1107
ag1111
ag1115
ag1119
asg37
S'He walked toward to the reporter and grabbed him.  He put his hand as fist to him.'
p1124
sg39
S'136440'
p1125
ssI26
(dp1126
g2
(lp1127
(lp1128
S'REPORTER'
p1129
aS'142080'
p1130
aS'142360'
p1131
aa(lp1132
S'REALLY'
p1133
aS'142520'
p1134
aS'142560'
p1135
aa(lp1136
S'SCARE'
p1137
aS'143000'
p1138
aS'143360'
p1139
aa(lp1140
S'ahhh'
p1141
aS'143680'
p1142
aS'144360'
p1143
aa(lp1144
S'fs-MUHAMMAD'
p1145
aS'144720'
p1146
aS'145080'
p1147
aa(lp1148
S'fs-ALI'
p1149
aS'145200'
p1150
aS'145560'
p1151
aa(lp1152
S'IX-1p'
p1153
aS'146640'
p1154
aS'146720'
p1155
aa(lp1156
S'TEASE++'
p1157
aS'147000'
p1158
aS'148280'
p1159
aa(lp1160
S'NOT'
p1161
aS'148360'
p1162
aS'148400'
p1163
aa(lp1164
S'WORRY'
p1165
aS'148480'
p1166
aS'149120'
p1167
aa(lp1168
S'UNKNOWN'
p1169
aS'149280'
p1170
aS'149720'
p1171
aasg32
S'149720'
p1172
sg34
Nsg35
(lp1173
g1129
ag1133
ag1137
ag1141
ag1145
ag1149
ag1153
ag1157
ag1161
ag1165
ag1169
asg37
S'The reporter was really scared and screamed.  Muhammad Ali grabbed him, and said, "I am teasing, dont worry!"'
p1174
sg39
S'141760'
p1175
ssI27
(dp1176
g2
(lp1177
(lp1178
S'LAUGH'
p1179
aS'149960'
p1180
aS'150280'
p1181
aa(lp1182
S'CL:3sitting down'
p1183
aS'150640'
p1184
aS'151440'
p1185
aa(lp1186
S'IX-1p'
p1187
aS'151880'
p1188
aS'152120'
p1189
aa(lp1190
S'DCL:4hair up on the arm'
p1191
aS'152680'
p1192
aS'154200'
p1193
aasg32
S'154200'
p1194
sg34
Nsg35
(lp1195
g1179
ag1183
ag1187
ag1191
asg37
S'He laughed and sitted down.  I got goose chills on my arms.'
p1196
sg39
S'149720'
p1197
ssI28
(dp1198
g2
(lp1199
(lp1200
S'REALLY'
p1201
aS'154400'
p1202
aS'154440'
p1203
aa(lp1204
S'IX-1p'
p1205
aS'154560'
p1206
aS'154600'
p1207
aa(lp1208
S'LAUGH'
p1209
aS'154760'
p1210
aS'155120'
p1211
aa(lp1212
S'NO'
p1213
aS'155280'
p1214
aS'155880'
p1215
aa(lp1216
S'IX-1p'
p1217
aS'155960'
p1218
aS'156120'
p1219
aa(lp1220
S'KNOW'
p1221
aS'156320'
p1222
aS'156600'
p1223
aa(lp1224
S'IX-3p:i'
p1225
aS'156680'
p1226
aS'156720'
p1227
aa(lp1228
S'FUNNY'
p1229
aS'156880'
p1230
aS'157000'
p1231
aa(lp1232
S'YES'
p1233
aS'157120'
p1234
aS'157240'
p1235
aa(lp1236
S'BUT'
p1237
aS'157360'
p1238
aS'157520'
p1239
aa(lp1240
S'IX-1p'
p1241
aS'157680'
p1242
aS'157720'
p1243
aa(lp1244
S'REALLY'
p1245
aS'157840'
p1246
aS'157920'
p1247
aa(lp1248
S'DCL:4hair up on arms'
p1249
aS'158120'
p1250
aS'158920'
p1251
aasg32
S'158920'
p1252
sg34
Nsg35
(lp1253
g1201
ag1205
ag1209
ag1213
ag1217
ag1221
ag1225
ag1229
ag1233
ag1237
ag1241
ag1245
ag1249
asg37
S'I was not laughing, yes I know it was funny, but I got goose chills on my arms.'
p1254
sg39
S'154200'
p1255
ssI29
(dp1256
g2
(lp1257
(lp1258
S'WHY'
p1259
aS'159000'
p1260
aS'159040'
p1261
aa(lp1262
S'IX-3p:i'
p1263
aS'159160'
p1264
aS'159320'
p1265
aa(lp1266
S'fs-MUHAMMAD'
p1267
aS'159560'
p1268
aS'160160'
p1269
aa(lp1270
S'fs-ALI'
p1271
aS'160320'
p1272
aS'160760'
p1273
aa(lp1274
S'IX-3p:i'
p1275
aS'160960'
p1276
aS'161160'
p1277
aa(lp1278
S'HAVE'
p1279
aS'161320'
p1280
aS'161360'
p1281
aa(lp1282
S'fs-PARKINSON'
p1283
aS'161440'
p1284
aS'162280'
p1285
aa(lp1286
S'DISEASE'
p1287
aS'162480'
p1288
aS'162960'
p1289
aa(lp1290
S'IX-3p:i'
p1291
aS'163080'
p1292
aS'163120'
p1293
aasg32
S'163120'
p1294
sg34
Nsg35
(lp1295
g1259
ag1263
ag1267
ag1271
ag1275
ag1279
ag1283
ag1287
ag1291
asg37
S'Because, Muhammad Ali have a Parkinson Disease.'
p1296
sg39
S'158920'
p1297
ssI30
(dp1298
g2
(lp1299
(lp1300
S'IX-3p:i'
p1301
aS'163160'
p1302
aS'163200'
p1303
aa(lp1304
S'BUT'
p1305
aS'163320'
p1306
aS'163360'
p1307
aa(lp1308
S'IX-3p:i'
p1309
aS'163480'
p1310
aS'163520'
p1311
aa(lp1312
S'STILL'
p1313
aS'163800'
p1314
aS'164120'
p1315
aa(lp1316
S'IX-3p:i'
p1317
aS'164320'
p1318
aS'164440'
p1319
aa(lp1320
S'part:indef'
p1321
aS'164600'
p1322
aS'165160'
p1323
aa(lp1324
S'IX-3p:i'
p1325
aS'165280'
p1326
aS'165520'
p1327
aa(lp1328
S'STILL'
p1329
aS'165800'
p1330
aS'165880'
p1331
aa(lp1332
S'CAN'
p1333
aS'166040'
p1334
aS'166240'
p1335
aa(lp1336
S'FIND'
p1337
aS'166400'
p1338
aS'166600'
p1339
aa(lp1340
S'FUNNY'
p1341
aS'167040'
p1342
aS'167320'
p1343
aa(lp1344
S'IN'
p1345
aS'167400'
p1346
aS'167520'
p1347
aa(lp1348
S'MANY'
p1349
aS'167680'
p1350
aS'167800'
p1351
aa(lp1352
S'THING'
p1353
aS'167960'
p1354
aS'168560'
p1355
aasg32
S'168640'
p1356
sg34
Nsg35
(lp1357
g1301
ag1305
ag1309
ag1313
ag1317
ag1321
ag1325
ag1329
ag1333
ag1337
ag1341
ag1345
ag1349
ag1353
asg37
S'But, he still can find funny in many things.'
p1358
sg39
S'163120'
p1359
ssI31
(dp1360
g2
(lp1361
(lp1362
S'SAME'
p1363
aS'168800'
p1364
aS'168960'
p1365
aa(lp1366
S'IX-3p:i'
p1367
aS'169040'
p1368
aS'169080'
p1369
aa(lp1370
S'SCARE'
p1371
aS'169400'
p1372
aS'169720'
p1373
aa(lp1374
S'REPORTER'
p1375
aS'169880'
p1376
aS'170440'
p1377
aa(lp1378
S'CL:1listing'
p1379
aS'170680'
p1380
aS'170880'
p1381
aa(lp1382
S'part:indef'
p1383
aS'170960'
p1384
aS'171120'
p1385
aa(lp1386
S'IX-3p:i'
p1387
aS'171200'
p1388
aS'171320'
p1389
aa(lp1390
S'WIFE'
p1391
aS'171680'
p1392
aS'172040'
p1393
aa(lp1394
S'GREAT'
p1395
aS'172200'
p1396
aS'172560'
p1397
aa(lp1398
S'IX-3p:i'
p1399
aS'172760'
p1400
aS'172800'
p1401
aa(lp1402
S'REALLY'
p1403
aS'172960'
p1404
aS'173160'
p1405
aa(lp1406
S'wow'
p1407
aS'173280'
p1408
aS'173840'
p1409
aasg32
S'173840'
p1410
sg34
Nsg35
(lp1411
g1363
ag1367
ag1371
ag1375
ag1379
ag1383
ag1387
ag1391
ag1395
ag1399
ag1403
ag1407
asg37
S'He scared the reporter, and his wife was great. Wow.'
p1412
sg39
S'168640'
p1413
ssI32
(dp1414
g2
(lp1415
(lp1416
S'#SO'
p1417
aS'173920'
p1418
aS'174040'
p1419
aa(lp1420
S'AFTER'
p1421
aS'174520'
p1422
aS'174640'
p1423
aa(lp1424
S'THAT'
p1425
aS'174800'
p1426
aS'175200'
p1427
aa(lp1428
S'IX-1p'
p1429
aS'175360'
p1430
aS'175520'
p1431
aa(lp1432
S'part:indef'
p1433
aS'175720'
p1434
aS'175920'
p1435
aa(lp1436
S'IX-1p'
p1437
aS'176080'
p1438
aS'176240'
p1439
aa(lp1440
S'WISH'
p1441
aS'176400'
p1442
aS'176520'
p1443
aa(lp1444
S'IX-1p'
p1445
aS'176600'
p1446
aS'176680'
p1447
aa(lp1448
S'CAN'
p1449
aS'176800'
p1450
aS'176920'
p1451
aa(lp1452
S'TELL'
p1453
aS'177120'
p1454
aS'177200'
p1455
aa(lp1456
S'POSS-1p'
p1457
aS'177360'
p1458
aS'177440'
p1459
aa(lp1460
S'GRANDFATHER'
p1461
aS'177640'
p1462
aS'177880'
p1463
aa(lp1464
S'THAT'
p1465
aS'177960'
p1466
aS'178080'
p1467
aa(lp1468
S'STORY'
p1469
aS'178280'
p1470
aS'178720'
p1471
aasg32
S'178720'
p1472
sg34
Nsg35
(lp1473
g1417
ag1421
ag1425
ag1429
ag1433
ag1437
ag1441
ag1445
ag1449
ag1453
ag1457
ag1461
ag1465
ag1469
asg37
S'So, after that, I wish I could tell my grandfather about that story.'
p1474
sg39
S'173840'
p1475
ssI33
(dp1476
g2
(lp1477
(lp1478
S'WHY'
p1479
aS'178800'
p1480
aS'178840'
p1481
aa(lp1482
S'IX-3p:i'
p1483
aS'178920'
p1484
aS'179000'
p1485
aa(lp1486
S'DIE'
p1487
aS'179160'
p1488
aS'179640'
p1489
aa(lp1490
g558
aS'179920'
p1491
aa(lp1492
S'part:indef'
p1493
aS'180120'
p1494
aS'180320'
p1495
aa(lp1496
S'BEFORE'
p1497
aS'180520'
p1498
aS'181040'
p1499
aa(lp1500
S'REALLY'
p1501
aS'181160'
p1502
aS'181360'
p1503
aa(lp1504
S'part:indef'
p1505
aS'181640'
p1506
aS'181920'
p1507
aa(lp1508
S'WHEN'
p1509
aS'182040'
p1510
aS'182280'
p1511
aa(lp1512
S'IX-1p'
p1513
aS'182400'
p1514
aS'182480'
p1515
aa(lp1516
S'SAME'
p1517
aS'182520'
p1518
aS'182600'
p1519
aa(lp1520
S'EIGHT-YEAR'
p1521
aS'182680'
p1522
aS'183200'
p1523
aasg32
S'183200'
p1524
sg34
Nsg35
(lp1525
g1479
ag1483
ag1487
ag558
ag1493
ag1497
ag1501
ag1505
ag1509
ag1513
ag1517
ag1521
asg37
S'He died when I was around 8 years old.'
p1526
sg39
S'178720'
p1527
ssI34
(dp1528
g2
(lp1529
(lp1530
S'#SO'
p1531
aS'183320'
p1532
aS'183520'
p1533
aa(lp1534
S'darn'
p1535
aS'183760'
p1536
aS'184200'
p1537
aa(lp1538
S'WISH'
p1539
aS'184320'
p1540
aS'184920'
p1541
aa(lp1542
S'IX-3p-pl-2:i'
p1543
aS'185080'
p1544
aS'185160'
p1545
aa(lp1546
S'CAN'
p1547
aS'185280'
p1548
aS'185320'
p1549
aa(lp1550
S'WATCH'
p1551
aS'185440'
p1552
aS'185640'
p1553
aa(lp1554
S'TOGETHER'
p1555
aS'185840'
p1556
aS'186240'
p1557
aa(lp1558
S'part:indef'
p1559
aS'186440'
p1560
aS'186680'
p1561
aasg32
S'188680'
p1562
sg34
Nsg35
(lp1563
g1531
ag1535
ag1539
ag1543
ag1547
ag1551
ag1555
ag1559
asg37
S'So, I wish we both can watch together.'
p1564
sg39
S'183200'
p1565
ss.