(dp0
I0
(dp1
S'Annotated'
p2
(lp3
(lp4
S'REALLY'
p5
aS'440'
p6
aS'520'
p7
aa(lp8
S'PAST+'
p9
aS'680'
p10
aS'1080'
p11
aa(lp12
S'IX-1p'
p13
aS'1320'
p14
aS'1560'
p15
aa(lp16
S'SEVEN'
p17
aS'1800'
p18
aS'2040'
p19
aa(lp20
S'YEAR'
p21
aS'2160'
p22
aS'2640'
p23
aasS'EndFrame'
p24
S'2640'
p25
sS'Video'
p26
NsS'Words'
p27
(lp28
g5
ag9
ag13
ag17
ag21
asS'English'
p29
S'Seven years ago.'
p30
sS'StartFrame'
p31
S'0'
p32
ssI1
(dp33
g2
(lp34
(lp35
S'FIRST'
p36
aS'2760'
p37
aS'2840'
p38
aa(lp39
S'YEAR'
p40
aS'3000'
p41
aS'3120'
p42
aa(lp43
S'ON'
p44
aS'3240'
p45
aS'3320'
p46
aa(lp47
S'#CSUN'
p48
aS'3440'
p49
aS'4160'
p50
aasg24
S'4160'
p51
sg26
Nsg27
(lp52
g36
ag40
ag44
ag48
asg29
S'My first year at CSUN.'
p53
sg31
S'2640'
p54
ssI2
(dp55
g2
(lp56
(lp57
S'REALLY'
p58
aS'4360'
p59
aS'4600'
p60
aa(lp61
S'punct'
p62
aS'5000'
p63
aa(lp64
S'BOY'
p65
aS'5360'
p66
aS'5560'
p67
aa(lp68
S'LIVE'
p69
aS'5760'
p70
aS'5840'
p71
aa(lp72
S'IN'
p73
aS'6000'
p74
aS'6040'
p75
aa(lp76
S'DORM'
p77
aS'6160'
p78
aS'6440'
p79
aa(lp80
S'ROOM'
p81
aS'6520'
p82
aS'6880'
p83
aasg24
S'6920'
p84
sg26
Nsg27
(lp85
g58
ag62
ag65
ag69
ag73
ag77
ag81
asg29
S'Four of us boys live in the dorm.'
p86
sg31
S'4160'
p87
ssI3
(dp88
g2
(lp89
(lp90
S'REALLY'
p91
aS'7040'
p92
aS'7200'
p93
aa(lp94
S'IX-3p-arc'
p95
aS'7360'
p96
aS'7560'
p97
aa(lp98
S'TROUBLE+'
p99
aS'7840'
p100
aS'8760'
p101
aa(lp102
S'MAKER'
p103
aS'8840'
p104
aS'9360'
p105
aasg24
S'9480'
p106
sg26
Nsg27
(lp107
g91
ag95
ag99
ag103
asg29
S'Really, we were trouble makers.'
p108
sg31
S'6920'
p109
ssI4
(dp110
g2
(lp111
(lp112
S'IX-1p'
p113
aS'9640'
p114
aS'9800'
p115
aa(lp116
S'TEND'
p117
aS'9960'
p118
aS'10120'
p119
aa(lp120
S'CL:1sneaking'
p121
aS'10360'
p122
aS'11080'
p123
aa(lp124
S'CAUSE'
p125
aS'11920'
p126
aS'12000'
p127
aa(lp128
S'PROBLEM'
p129
aS'12120'
p130
aS'12320'
p131
aa(lp132
S'FOR'
p133
aS'12480'
p134
aS'12600'
p135
aa(lp136
S'ANOTHER'
p137
aS'12720'
p138
aS'12840'
p139
aa(lp140
S'RESIDENCE'
p141
aS'13040'
p142
aS'13560'
p143
aasg24
S'13640'
p144
sg26
Nsg27
(lp145
g113
ag117
ag121
ag125
ag129
ag133
ag137
ag141
asg29
S'I tend to sneaking and cause problems for another residences.'
p146
sg31
S'9480'
p147
ssI5
(dp148
g2
(lp149
(lp150
S'CAUSE'
p151
aS'13880'
p152
aS'14040'
p153
aa(lp154
S'PROBLEM'
p155
aS'14160'
p156
aS'14320'
p157
aa(lp158
S'FOR'
p159
aS'14440'
p160
aS'14560'
p161
aa(lp162
S'IX-3p-arc'
p163
aS'14680'
p164
aS'14720'
p165
aa(lp166
S'#RA'
p167
aS'14880'
p168
aS'15720'
p169
aa(lp170
S'RESIDENCE'
p171
aS'15920'
p172
aS'16520'
p173
aa(lp174
S'COUNSELOR'
p175
aS'16800'
p176
aS'17160'
p177
aa(lp178
S'KNOW'
p179
aS'17360'
p180
aS'17920'
p181
aa(lp182
S'WHO'
p183
aS'18040'
p184
aS'18200'
p185
aa(lp186
S'UNKNOWN'
p187
aS'18320'
p188
aS'18640'
p189
aa(lp190
S'CHECK++'
p191
aS'18760'
p192
aS'19760'
p193
aasg24
S'19760'
p194
sg26
Nsg27
(lp195
g151
ag155
ag159
ag163
ag167
ag171
ag175
ag179
ag183
ag187
ag191
asg29
S'Caused the problem for our RA, Residence Counselor, you know, they are the one who will checking on us.'
p196
sg31
S'13640'
p197
ssI6
(dp198
g2
(lp199
(lp200
S'REALLY'
p201
aS'19920'
p202
aS'19960'
p203
aa(lp204
S'IX-1p'
p205
aS'20040'
p206
aS'20120'
p207
aa(lp208
S'KNOW'
p209
aS'20280'
p210
aS'20360'
p211
aa(lp212
S'SURE'
p213
aS'20520'
p214
aS'20680'
p215
aa(lp216
S'IX-2p-arc'
p217
aS'20800'
p218
aS'20920'
p219
aa(lp220
S'WHO'
p221
aS'21040'
p222
aS'21120'
p223
aa(lp224
S'LIVE'
p225
aS'21200'
p226
aS'21280'
p227
aa(lp228
S'IN'
p229
aS'21360'
p230
aS'21440'
p231
aa(lp232
S'DORM'
p233
aS'21560'
p234
aS'21880'
p235
aa(lp236
S'PAST'
p237
aS'22000'
p238
aS'22120'
p239
aa(lp240
S'CL:5vomiting'
p241
aS'22320'
p242
aS'22640'
p243
aa(lp244
S'#RA'
p245
aS'22760'
p246
aS'23000'
p247
aa(lp248
S'BUT'
p249
aS'23080'
p250
aS'23240'
p251
aa(lp252
S'UNKNOWN'
p253
aS'23320'
p254
aS'23480'
p255
aa(lp256
S'ANYWAY'
p257
aS'23640'
p258
aS'24000'
p259
aasg24
S'24000'
p260
sg26
Nsg27
(lp261
g201
ag205
ag209
ag213
ag217
ag221
ag225
ag229
ag233
ag237
ag241
ag245
ag249
ag253
ag257
asg29
S'Really, I know, I am sure you guys who lived in the dorm, you hate your RAs.'
p262
sg31
S'19760'
p263
ssI7
(dp264
g2
(lp265
(lp266
S'REALLY'
p267
aS'24120'
p268
aS'24320'
p269
aa(lp270
S'IX-1p'
p271
aS'24480'
p272
aS'24640'
p273
aa(lp274
g62
aS'25000'
p275
aa(lp276
S'ENJOY'
p277
aS'25160'
p278
aS'25560'
p279
aa(lp280
S'WHY'
p281
aS'25720'
p282
aS'25800'
p283
aa(lp284
S'POSS-1p'
p285
aS'25880'
p286
aS'26000'
p287
aa(lp288
S'#RA'
p289
aS'26120'
p290
aS'26320'
p291
aa(lp292
S'POSS-1p'
p293
aS'26880'
p294
aS'27160'
p295
aa(lp296
S'FRATERNITY'
p297
aS'27360'
p298
aS'27560'
p299
aa(lp300
S'BROTHER'
p301
aS'27680'
p302
aS'28360'
p303
aasg24
S'28360'
p304
sg26
Nsg27
(lp305
g267
ag271
ag62
ag277
ag281
ag285
ag289
ag293
ag297
ag301
asg29
S'Really, I enjoyed because my RA was my fraternity brother.'
p306
sg31
S'24000'
p307
ssI8
(dp308
g2
(lp309
(lp310
S'REALLY'
p311
aS'28520'
p312
aS'28640'
p313
aa(lp314
S'HAPPEN'
p315
aS'28840'
p316
aS'29000'
p317
aa(lp318
S'ONE'
p319
aS'29160'
p320
aS'29360'
p321
aa(lp322
S'NIGHT'
p323
aS'29560'
p324
aS'29960'
p325
aa(lp326
S'IX-3p-arc'
p327
aS'30080'
p328
aS'30320'
p329
aa(lp330
S'so'
p331
aS'30480'
p332
aS'30880'
p333
aa(lp334
S'CL:5teasing'
p335
aS'31360'
p336
aS'31720'
p337
aasg24
S'31800'
p338
sg26
Nsg27
(lp339
g311
ag315
ag319
ag323
ag327
ag331
ag335
asg29
S'It happened one night, that we didnt care and decided to tease him.'
p340
sg31
S'28360'
p341
ssI9
(dp342
g2
(lp343
(lp344
S'ONE'
p345
aS'31920'
p346
aS'31960'
p347
aa(lp348
S'NIGHT'
p349
aS'32160'
p350
aS'32400'
p351
aa(lp352
S'UNKNOWN'
p353
aS'32480'
p354
aS'32600'
p355
aa(lp356
S'IX-3p-arc'
p357
aS'32760'
p358
aS'32920'
p359
aa(lp360
S'CL:3going up'
p361
aS'33080'
p362
aS'33680'
p363
aa(lp364
S'REALLY'
p365
aS'33920'
p366
aS'34000'
p367
aa(lp368
S'LIVE'
p369
aS'34120'
p370
aS'34280'
p371
aa(lp372
S'ON'
p373
aS'34360'
p374
aS'34480'
p375
aasg24
S'35800'
p376
sg26
Nsg27
(lp377
g345
ag349
ag353
ag357
ag361
ag365
ag369
ag373
asg29
S'We decided to go up at one night. We live on second floor.'
p378
sg31
S'31800'
p379
ssI10
(dp380
g2
(lp381
(lp382
S'IX-3p-arc'
p383
aS'36160'
p384
aS'36320'
p385
aa(lp386
S'#RA'
p387
aS'36480'
p388
aS'36640'
p389
aa(lp390
S'LIVE'
p391
aS'36800'
p392
aS'36920'
p393
aa(lp394
S'ON'
p395
aS'37040'
p396
aS'37080'
p397
aa(lp398
S'THIRD'
p399
aS'37160'
p400
aS'37400'
p401
aa(lp402
S'FLOOR'
p403
aS'37520'
p404
aS'38000'
p405
aasg24
S'38000'
p406
sg26
Nsg27
(lp407
g383
ag387
ag391
ag395
ag399
ag403
asg29
S'Our RA lives on third floor.'
p408
sg31
S'35800'
p409
ssI11
(dp410
g2
(lp411
(lp412
S'HAVE'
p413
aS'39200'
p414
aS'39360'
p415
aa(lp416
S'fs-ROPE'
p417
aS'39480'
p418
aS'40040'
p419
aa(lp420
S'CL:Ssize of the object'
p421
aS'40160'
p422
aS'41600'
p423
aasg24
S'41600'
p424
sg26
Nsg27
(lp425
g413
ag417
ag421
asg29
S'We had rope with us when we went up.'
p426
sg31
S'38000'
p427
ssI12
(dp428
g2
(lp429
(lp430
S'UNDERSTAND'
p431
aS'41880'
p432
aS'42120'
p433
aa(lp434
S'TWO'
p435
aS'42280'
p436
aS'42440'
p437
aa(lp438
S'POSS-3p:i'
p439
aS'42800'
p440
aS'43040'
p441
aa(lp442
S'fs-DOOR'
p443
aS'43200'
p444
aS'43640'
p445
aa(lp446
S'ANOTHER'
p447
aS'45320'
p448
aS'45480'
p449
aa(lp450
S'fs-DOOR'
p451
aS'45560'
p452
aS'45760'
p453
aa(lp454
S'CL:5location of the object'
p455
aS'45960'
p456
aS'46280'
p457
aasg24
S'46280'
p458
sg26
Nsg27
(lp459
g431
ag435
ag439
ag443
ag447
ag451
ag455
asg29
S'There is two doors, one on left side and another one on right side.'
p460
sg31
S'41600'
p461
ssI13
(dp462
g2
(lp463
(lp464
S'(2h)PERFECT'
p465
aS'46640'
p466
aS'46920'
p467
aa(lp468
S'(2h)SAME'
p469
aS'47040'
p470
aS'47600'
p471
aa(lp472
S'GOOD'
p473
aS'47720'
p474
aS'47960'
p475
aa(lp476
S'SIZE'
p477
aS'48040'
p478
aS'48280'
p479
aa(lp480
S'(2h)IX:3p:x/y'
p481
aS'48360'
p482
aS'48880'
p483
aasg24
S'48880'
p484
sg26
Nsg27
(lp485
g465
ag469
ag473
ag477
ag481
asg29
S'It was perfect because its same size in both sides.'
p486
sg31
S'46280'
p487
ssI14
(dp488
g2
(lp489
(lp490
S'SO'
p491
aS'48960'
p492
aS'49000'
p493
aa(lp494
S'IX-1p'
p495
aS'49200'
p496
aS'49240'
p497
aa(lp498
S'fs-ROPE'
p499
aS'49400'
p500
aS'49680'
p501
aa(lp502
S'CL:Sfixing the object'
p503
aS'50120'
p504
aS'51000'
p505
aa(lp506
S'CL:Spulling the object'
p507
aS'51320'
p508
aS'51840'
p509
aa(lp510
S'CL:Sfixing the object'
p511
aS'51960'
p512
aS'53000'
p513
aa(lp514
S'PERFECT'
p515
aS'53720'
p516
aS'53920'
p517
aa(lp518
S'ON'
p519
aS'54320'
p520
aS'54440'
p521
aa(lp522
S'fs-HOHOLE'
p523
aS'54720'
p524
aS'55880'
p525
aa(lp526
S'CL:Sfixing the object'
p527
aS'56920'
p528
aS'57200'
p529
aasg24
S'57240'
p530
sg26
Nsg27
(lp531
g491
ag495
ag499
ag503
ag507
ag511
ag515
ag519
ag523
ag527
asg29
S'I fixed the rope to attach between the holes.'
p532
sg31
S'48880'
p533
ssI15
(dp534
g2
(lp535
(lp536
S'SAME'
p537
aS'57280'
p538
aS'57360'
p539
aa(lp540
S'IX-1p'
p541
aS'57560'
p542
aS'57600'
p543
aa(lp544
S'TIE'
p545
aS'57760'
p546
aS'58120'
p547
aa(lp548
S'UNKNOWN'
p549
aS'58280'
p550
aS'58480'
p551
aa(lp552
S'IX-1p'
p553
aS'58720'
p554
aS'58920'
p555
aa(lp556
S'CL:Spressing the object++'
p557
aS'59320'
p558
aS'60600'
p559
aasg24
S'60600'
p560
sg26
Nsg27
(lp561
g537
ag541
ag545
ag549
ag553
ag557
asg29
S'I was tying and then pressed the doorbell.'
p562
sg31
S'57240'
p563
ssI16
(dp564
g2
(lp565
(lp566
S'fs-ERICK'
p567
aS'60840'
p568
aS'61520'
p569
aa(lp570
S'SAME'
p571
aS'61640'
p572
aS'61680'
p573
aa(lp574
S'POSS-3p:i'
p575
aS'61760'
p576
aS'61800'
p577
aa(lp578
S'NAME'
p579
aS'61880'
p580
aS'62040'
p581
aa(lp582
S'ERICK'
p583
aS'62200'
p584
aS'62560'
p585
aa(lp586
S'fs-ERICK'
p587
aS'62680'
p588
aS'63280'
p589
aa(lp590
S'IX-3p:i'
p591
aS'63320'
p592
aS'63560'
p593
aa(lp594
S'POSS-1p'
p595
aS'63720'
p596
aS'63800'
p597
aa(lp598
S'PAST'
p599
aS'63920'
p600
aS'64040'
p601
aa(lp602
S'#RA'
p603
aS'64120'
p604
aS'64480'
p605
aasg24
S'64600'
p606
sg26
Nsg27
(lp607
g567
ag571
ag575
ag579
ag583
ag587
ag591
ag595
ag599
ag603
asg29
S'My RA named is Erick.'
p608
sg31
S'60600'
p609
ssI17
(dp610
g2
(lp611
(lp612
S'IX-1p'
p613
aS'64960'
p614
aS'65040'
p615
aa(lp616
g62
aS'66920'
p617
aa(lp618
S'START'
p619
aS'67440'
p620
aS'67520'
p621
aa(lp622
S'CL:Spulling the object++'
p623
aS'67840'
p624
aS'69440'
p625
aa(lp626
S'IX-1p'
p627
aS'69560'
p628
aS'69720'
p629
aa(lp630
S'CL:Spressing the object'
p631
aS'69920'
p632
aS'70320'
p633
aa(lp634
S'ANOTHER'
p635
aS'70440'
p636
aS'70560'
p637
aa(lp638
S'PERSON'
p639
aS'70800'
p640
aS'70880'
p641
aa(lp642
S'CL:Spressing the object'
p643
aS'71080'
p644
aS'71280'
p645
aa(lp646
S'CL:Spulling against each other++'
p647
aS'71600'
p648
aS'72880'
p649
aasg24
S'72880'
p650
sg26
Nsg27
(lp651
g613
ag62
ag619
ag623
ag627
ag631
ag635
ag639
ag643
ag647
asg29
S'I pressed the doorbell and he started to pulling the door. Then I pressed another doorbell, both were trying to open the door.'
p652
sg31
S'64600'
p653
ssI18
(dp654
g2
(lp655
(lp656
S'BOTH'
p657
aS'73040'
p658
aS'73280'
p659
aa(lp660
S'CAN-NOT'
p661
aS'73560'
p662
aS'73800'
p663
aa(lp664
S'OUT'
p665
aS'74480'
p666
aS'75080'
p667
aa(lp668
S'IX-1p'
p669
aS'75240'
p670
aS'75400'
p671
aa(lp672
S'LAUGH'
p673
aS'75600'
p674
aS'76720'
p675
aasg24
S'76720'
p676
sg26
Nsg27
(lp677
g657
ag661
ag665
ag669
ag673
asg29
S'Both could not get out and I was laughing hard.'
p678
sg31
S'72880'
p679
ssI19
(dp680
g2
(lp681
(lp682
S'IX-3p-arc'
p683
aS'76800'
p684
aS'77200'
p685
aa(lp686
S'ROOMMATE'
p687
aS'77400'
p688
aS'77600'
p689
aa(lp690
S'PAST'
p691
aS'77760'
p692
aS'78280'
p693
aa(lp694
S'SEVEN'
p695
aS'78480'
p696
aS'78560'
p697
aa(lp698
S'YEAR'
p699
aS'78640'
p700
aS'78920'
p701
aa(lp702
S'IX-3p:i'
p703
aS'79000'
p704
aS'79160'
p705
aa(lp706
S'LAUGH'
p707
aS'79320'
p708
aS'79640'
p709
aa(lp710
S'GOOD'
p711
aS'79800'
p712
aS'79920'
p713
aa(lp714
S'TIME'
p715
aS'80040'
p716
aS'80280'
p717
aa(lp718
S'IX-1p'
p719
aS'80360'
p720
aS'80440'
p721
aasg24
S'80600'
p722
sg26
Nsg27
(lp723
g683
ag687
ag691
ag695
ag699
ag703
ag707
ag711
ag715
ag719
asg29
S'We, the roommates seven years ago, were laughing and had a good time.'
p724
sg31
S'76720'
p725
ssI20
(dp726
g2
(lp727
(lp728
S'UNKNOWN'
p729
aS'80720'
p730
aS'81480'
p731
aa(lp732
S'DECIDE'
p733
aS'81760'
p734
aS'81920'
p735
aa(lp736
S'LEAVE'
p737
aS'82160'
p738
aS'82440'
p739
aa(lp740
S'UNKNOWN'
p741
aS'82480'
p742
aS'82720'
p743
aa(lp744
S'CL:1going down'
p745
aS'82920'
p746
aS'83720'
p747
aa(lp748
S'FOR'
p749
aS'84000'
p750
aS'84040'
p751
aa(lp752
S'FIFTEEN'
p753
aS'84160'
p754
aS'84280'
p755
aa(lp756
S'MINUTE'
p757
aS'84400'
p758
aS'84840'
p759
aa(lp760
S'#THEN'
p761
aS'84920'
p762
aS'85160'
p763
aa(lp764
S'DECIDE'
p765
aS'85320'
p766
aS'85680'
p767
aa(lp768
S'FEEL'
p769
aS'85800'
p770
aS'86040'
p771
aa(lp772
S'BAD'
p773
aS'86160'
p774
aS'86600'
p775
aasg24
S'86800'
p776
sg26
Nsg27
(lp777
g729
ag733
ag737
ag741
ag745
ag749
ag753
ag757
ag761
ag765
ag769
ag773
asg29
S'We decided to leave it alone and went downstair for fifteen minutes.  Then we felt bad.'
p778
sg31
S'80600'
p779
ssI21
(dp780
g2
(lp781
(lp782
S'ON'
p783
aS'88160'
p784
aS'88240'
p785
aa(lp786
S'THIRD'
p787
aS'88320'
p788
aS'88440'
p789
aa(lp790
S'FLOOR'
p791
aS'88560'
p792
aS'89000'
p793
aa(lp794
S'IX-1p'
p795
aS'89240'
p796
aS'89720'
p797
aa(lp798
S'CL:Spressing the object'
p799
aS'89960'
p800
aS'90360'
p801
aasg24
S'90360'
p802
sg26
Nsg27
(lp803
g783
ag787
ag791
ag795
ag799
asg29
S'I went up to third floor and pressed the doorbell.'
p804
sg31
S'86800'
p805
ssI22
(dp806
g2
(lp807
(lp808
S'IX-1p'
p809
aS'90480'
p810
aS'90640'
p811
aa(lp812
S'CL:Sfixing the object'
p813
aS'90920'
p814
aS'91400'
p815
aa(lp816
S'DISCONNECT'
p817
aS'91600'
p818
aS'92120'
p819
aa(lp820
S'fs-ROPE'
p821
aS'92200'
p822
aS'92560'
p823
aa(lp824
S'DISCONNECT'
p825
aS'92760'
p826
aS'93400'
p827
aa(lp828
S'IX-1p'
p829
aS'93520'
p830
aS'93640'
p831
aa(lp832
S'UNKNOWN'
p833
aS'93920'
p834
aS'94800'
p835
aasg24
S'94800'
p836
sg26
Nsg27
(lp837
g809
ag813
ag817
ag821
ag825
ag829
ag833
asg29
S'I fixed the rope and got it deattached.'
p838
sg31
S'90360'
p839
ssI23
(dp840
g2
(lp841
(lp842
S'KNOW'
p843
aS'94960'
p844
aS'95080'
p845
aa(lp846
S'IX-1p'
p847
aS'95200'
p848
aS'95320'
p849
aa(lp850
S'CL:5teasing+'
p851
aS'95440'
p852
aS'96400'
p853
aasg24
S'96600'
p854
sg26
Nsg27
(lp855
g843
ag847
ag851
asg29
S'I know that I was teasing.'
p856
sg31
S'94800'
p857
ssI24
(dp858
g2
(lp859
(lp860
S'REALLY'
p861
aS'96680'
p862
aS'96800'
p863
aa(lp864
S'IX-3p:i'
p865
aS'96920'
p866
aS'97000'
p867
aa(lp868
S'NS-ERICK'
p869
aS'97120'
p870
aS'97840'
p871
aa(lp872
S'SAY'
p873
aS'98080'
p874
aS'98200'
p875
aa(lp876
S'WORRY'
p877
aS'98360'
p878
aS'98960'
p879
aa(lp880
S'SAY'
p881
aS'99160'
p882
aS'99320'
p883
aa(lp884
S'part:indef'
p885
aS'99480'
p886
aS'99680'
p887
aa(lp888
S'KNOW'
p889
aS'99880'
p890
aS'99960'
p891
aa(lp892
S'IX-1p'
p893
aS'100080'
p894
aS'100200'
p895
aa(lp896
S'HAVE'
p897
aS'100360'
p898
aS'100560'
p899
aa(lp900
S'EMERGENCY'
p901
aS'100800'
p902
aS'101320'
p903
aasg24
S'101320'
p904
sg26
Nsg27
(lp905
g861
ag865
ag869
ag873
ag877
ag881
ag885
ag889
ag893
ag897
ag901
asg29
S'Erick said I was worried, you know, I had an emergency.'
p906
sg31
S'96600'
p907
ssI25
(dp908
g2
(lp909
(lp910
S'IX-1p'
p911
aS'101480'
p912
aS'101600'
p913
aa(lp914
S'MUST'
p915
aS'101680'
p916
aS'101760'
p917
aa(lp918
S'TO'
p919
aS'101880'
p920
aS'101920'
p921
aa(lp922
S'GO'
p923
aS'102160'
p924
aS'102600'
p925
aa(lp926
S'IX-1p'
p927
aS'102960'
p928
aS'103120'
p929
aa(lp930
S'part:indef'
p931
aS'103280'
p932
aS'103680'
p933
aa(lp934
S'REALLY'
p935
aS'103840'
p936
aS'103960'
p937
aa(lp938
S'ANOTHER'
p939
aS'104120'
p940
aS'104280'
p941
aa(lp942
S'BUILDING'
p943
aS'104440'
p944
aS'104640'
p945
aa(lp946
S'MUST'
p947
aS'104760'
p948
aS'105000'
p949
aa(lp950
S'IX-1p'
p951
aS'105160'
p952
aS'105440'
p953
aa(lp954
S'part:indef'
p955
aS'105600'
p956
aS'105760'
p957
aasg24
S'105760'
p958
sg26
Nsg27
(lp959
g911
ag915
ag919
ag923
ag927
ag931
ag935
ag939
ag943
ag947
ag951
ag955
asg29
S'I have to go to the another building.'
p960
sg31
S'101320'
p961
ssI26
(dp962
g2
(lp963
(lp964
S'part:indef'
p965
aS'105760'
p966
aS'105800'
p967
aa(lp968
S'WHY'
p969
aS'105840'
p970
aS'105960'
p971
aa(lp972
S'DO'
p973
aS'106080'
p974
aS'106240'
p975
aa(lp976
S'THAT'
p977
aS'106360'
p978
aS'106760'
p979
aa(lp980
S'IX-1p'
p981
aS'107000'
p982
aS'107360'
p983
aa(lp984
S'part:indef++'
p985
aS'107480'
p986
aS'108440'
p987
aa(lp988
S'IX-1p'
p989
aS'108560'
p990
aS'108680'
p991
aa(lp992
S'FEEL'
p993
aS'108720'
p994
aS'108960'
p995
aa(lp996
S'BAD'
p997
aS'109080'
p998
aS'109360'
p999
aasg24
S'109360'
p1000
sg26
Nsg27
(lp1001
g965
ag969
ag973
ag977
ag981
ag985
ag989
ag993
ag997
asg29
S'He asked, "Why did you do that?" I felt bad.'
p1002
sg31
S'105760'
p1003
ssI27
(dp1004
g2
(lp1005
(lp1006
S'IX-3p:i'
p1007
aS'109440'
p1008
aS'109480'
p1009
aa(lp1010
S'SAY'
p1011
aS'109600'
p1012
aS'109680'
p1013
aa(lp1014
S'KNOW'
p1015
aS'109760'
p1016
aS'109920'
p1017
aa(lp1018
S'IX-1p'
p1019
aS'110080'
p1020
aS'110120'
p1021
aa(lp1022
S'CALL'
p1023
aS'110280'
p1024
aS'110560'
p1025
aa(lp1026
S'COP'
p1027
aS'110720'
p1028
aS'111080'
p1029
aa(lp1030
S'COME'
p1031
aS'111280'
p1032
aS'111760'
p1033
aa(lp1034
S'NOW'
p1035
aS'111880'
p1036
aS'112360'
p1037
aa(lp1038
g62
aS'112920'
p1039
aasg24
S'112920'
p1040
sg26
Nsg27
(lp1041
g1007
ag1011
ag1015
ag1019
ag1023
ag1027
ag1031
ag1035
ag62
asg29
S'He said, "You know, I called cop to come now."'
p1042
sg31
S'109360'
p1043
ssI28
(dp1044
g2
(lp1045
(lp1046
S'NOW'
p1047
aS'112920'
p1048
aS'112960'
p1049
aa(lp1050
g62
aS'113040'
p1051
aa(lp1052
S'IX-1p'
p1053
aS'113240'
p1054
aS'113480'
p1055
aa(lp1056
S'LOOK'
p1057
aS'113640'
p1058
aS'114040'
p1059
aa(lp1060
S'TRUE-BUSINESS'
p1061
aS'114160'
p1062
aS'114520'
p1063
aa(lp1064
S'IX-2p'
p1065
aS'114600'
p1066
aS'114720'
p1067
aa(lp1068
S'CALL'
p1069
aS'114800'
p1070
aS'114920'
p1071
aa(lp1072
S'COP'
p1073
aS'115080'
p1074
aS'115320'
p1075
aa(lp1076
S'ON'
p1077
aS'115400'
p1078
aS'115520'
p1079
aa(lp1080
S'IX-3p-arc'
p1081
aS'115640'
p1082
aS'116160'
p1083
aasg24
S'116160'
p1084
sg26
Nsg27
(lp1085
g1047
ag62
ag1053
ag1057
ag1061
ag1065
ag1069
ag1073
ag1077
ag1081
asg29
S'I looked at him and asked if he did call a cop on us.'
p1086
sg31
S'112920'
p1087
ssI29
(dp1088
g2
(lp1089
(lp1090
S'IX-3p:i'
p1091
aS'116240'
p1092
aS'116280'
p1093
aa(lp1094
S'SAY'
p1095
aS'116360'
p1096
aS'116480'
p1097
aa(lp1098
S'part:indef'
p1099
aS'116600'
p1100
aS'116720'
p1101
aa(lp1102
S'IX-1p'
p1103
aS'116800'
p1104
aS'116920'
p1105
aa(lp1106
S'NOT-KNOW'
p1107
aS'117000'
p1108
aS'117320'
p1109
aa(lp1110
S'IX-2p-arc'
p1111
aS'117440'
p1112
aS'117680'
p1113
aa(lp1114
S'IX-1p'
p1115
aS'117800'
p1116
aS'117920'
p1117
aa(lp1118
S'THINK'
p1119
aS'118040'
p1120
aS'118240'
p1121
aa(lp1122
S'SOMEONE'
p1123
aS'118320'
p1124
aS'118960'
p1125
aa(lp1126
S'ELSE'
p1127
aS'119120'
p1128
aS'119640'
p1129
aa(lp1130
S'PLAY'
p1131
aS'119880'
p1132
aS'120000'
p1133
aa(lp1134
S'TROUBLE'
p1135
aS'120200'
p1136
aS'120560'
p1137
aa(lp1138
S'WITH'
p1139
aS'120680'
p1140
aS'120840'
p1141
aa(lp1142
S'IX-1p'
p1143
aS'120920'
p1144
aS'121120'
p1145
aasg24
S'121120'
p1146
sg26
Nsg27
(lp1147
g1091
ag1095
ag1099
ag1103
ag1107
ag1111
ag1115
ag1119
ag1123
ag1127
ag1131
ag1135
ag1139
ag1143
asg29
S'I didnt know it was you guys, I thought it was someone else play trouble with me'
p1148
sg31
S'116160'
p1149
ssI30
(dp1150
g2
(lp1151
(lp1152
S'NOT-KNOW'
p1153
aS'121240'
p1154
aS'121560'
p1155
aa(lp1156
S'IX-1p'
p1157
aS'121640'
p1158
aS'121720'
p1159
aa(lp1160
S'CAN-NOT'
p1161
aS'121800'
p1162
aS'121920'
p1163
aa(lp1164
S'OUT'
p1165
aS'122000'
p1166
aS'122320'
p1167
aa(lp1168
S'IX-1p'
p1169
aS'122400'
p1170
aS'122440'
p1171
aa(lp1172
S'HAVE'
p1173
aS'122480'
p1174
aS'122520'
p1175
aa(lp1176
S'EMERGENCY'
p1177
aS'122640'
p1178
aS'122880'
p1179
aa(lp1180
S'ANOTHER'
p1181
aS'122960'
p1182
aS'123040'
p1183
aa(lp1184
S'BUILDING'
p1185
aS'123120'
p1186
aS'123320'
p1187
aa(lp1188
S'#SO'
p1189
aS'123360'
p1190
aS'123400'
p1191
aa(lp1192
S'IX-1p'
p1193
aS'123520'
p1194
aS'123640'
p1195
aa(lp1196
S'NONE'
p1197
aS'123720'
p1198
aS'123840'
p1199
aa(lp1200
S'CHOICE'
p1201
aS'123920'
p1202
aS'124120'
p1203
aasg24
S'124120'
p1204
sg26
Nsg27
(lp1205
g1153
ag1157
ag1161
ag1165
ag1169
ag1173
ag1177
ag1181
ag1185
ag1189
ag1193
ag1197
ag1201
asg29
S"I can't get out of here and I got emergency at another building, so I had no choice."
p1206
sg31
S'121120'
p1207
ssI31
(dp1208
g2
(lp1209
(lp1210
S'IX-1p'
p1211
aS'124200'
p1212
aS'124320'
p1213
aa(lp1214
S'CALL'
p1215
aS'124400'
p1216
aS'124560'
p1217
aa(lp1218
S'COP'
p1219
aS'124720'
p1220
aS'124880'
p1221
aa(lp1222
S'CUT'
p1223
aS'125680'
p1224
aS'126120'
p1225
aa(lp1226
S'fs-ROPE'
p1227
aS'126240'
p1228
aS'126840'
p1229
aa(lp1230
g62
aS'127440'
p1231
aasg24
S'127520'
p1232
sg26
Nsg27
(lp1233
g1211
ag1215
ag1219
ag1223
ag1227
ag62
asg29
S'I called the cop to come and cut the rope.'
p1234
sg31
S'124120'
p1235
ssI32
(dp1236
g2
(lp1237
(lp1238
S'IX-1p'
p1239
aS'127920'
p1240
aS'128040'
p1241
aa(lp1242
S'LOOK'
p1243
aS'128240'
p1244
aS'128600'
p1245
aa(lp1246
S'TRUE-BUSINESS'
p1247
aS'128720'
p1248
aS'129200'
p1249
aa(lp1250
S'SO'
p1251
aS'129240'
p1252
aS'129320'
p1253
aa(lp1254
S'IX-3p-arc'
p1255
aS'129560'
p1256
aS'129760'
p1257
aa(lp1258
S'MUST'
p1259
aS'129880'
p1260
aS'129960'
p1261
aa(lp1262
S'WAIT'
p1263
aS'130080'
p1264
aS'130240'
p1265
aa(lp1266
S'FOR'
p1267
aS'130360'
p1268
aS'130480'
p1269
aa(lp1270
S'THAT'
p1271
aS'130560'
p1272
aS'130600'
p1273
aa(lp1274
S'COP'
p1275
aS'130720'
p1276
aS'131000'
p1277
aa(lp1278
S'ARRIVE'
p1279
aS'131200'
p1280
aS'131680'
p1281
aasg24
S'131680'
p1282
sg26
Nsg27
(lp1283
g1239
ag1243
ag1247
ag1251
ag1255
ag1259
ag1263
ag1267
ag1271
ag1275
ag1279
asg29
S'I looked at him and asked if we have to wait for a cop to arrive?'
p1284
sg31
S'127520'
p1285
ssI33
(dp1286
g2
(lp1287
(lp1288
S'IX-3p:i'
p1289
aS'131840'
p1290
aS'132240'
p1291
aa(lp1292
S'NO'
p1293
aS'132360'
p1294
aS'132640'
p1295
aa(lp1296
S'NS-ERICK'
p1297
aS'132840'
p1298
aS'133240'
p1299
aa(lp1300
S'(2h)IX-3p:i'
p1301
aS'133400'
p1302
aS'133520'
p1303
aa(lp1304
S'SAY'
p1305
aS'133680'
p1306
aS'133920'
p1307
aa(lp1308
S'YES'
p1309
aS'134040'
p1310
aS'134440'
p1311
aa(lp1312
S'MUST'
p1313
aS'134520'
p1314
aS'134600'
p1315
aa(lp1316
S'WAIT'
p1317
aS'134720'
p1318
aS'134800'
p1319
aa(lp1320
S'FOR'
p1321
aS'134920'
p1322
aS'135200'
p1323
aa(lp1324
S'COP'
p1325
aS'135360'
p1326
aS'135480'
p1327
aa(lp1328
S'ARRIVE'
p1329
aS'135640'
p1330
aS'136000'
p1331
aasg24
S'136080'
p1332
sg26
Nsg27
(lp1333
g1289
ag1293
ag1297
ag1301
ag1305
ag1309
ag1313
ag1317
ag1321
ag1325
ag1329
asg29
S'Erick said yes, we will have to wait til cop arrives.'
p1334
sg31
S'131680'
p1335
ssI34
(dp1336
g2
(lp1337
(lp1338
S'IX-3p-arc'
p1339
aS'136240'
p1340
aS'136560'
p1341
aa(lp1342
S'part:indef'
p1343
aS'137000'
p1344
aS'137160'
p1345
aa(lp1346
S'UNKNOWN'
p1347
aS'137280'
p1348
aS'137760'
p1349
aa(lp1350
S'FINE'
p1351
aS'138040'
p1352
aS'138280'
p1353
aa(lp1354
S'WAIT++'
p1355
aS'138400'
p1356
aS'139160'
p1357
aa(lp1358
S'COP'
p1359
aS'139360'
p1360
aS'139440'
p1361
aa(lp1362
S'ARRIVE'
p1363
aS'139840'
p1364
aS'140840'
p1365
aasg24
S'140840'
p1366
sg26
Nsg27
(lp1367
g1339
ag1343
ag1347
ag1351
ag1355
ag1359
ag1363
asg29
S'We said fine so we waited.  Then cop arrived.'
p1368
sg31
S'136080'
p1369
ssI35
(dp1370
g2
(lp1371
(lp1372
S'COP'
p1373
aS'141320'
p1374
aS'141520'
p1375
aa(lp1376
S'FIND'
p1377
aS'141680'
p1378
aS'141840'
p1379
aa(lp1380
S'SITUATION'
p1381
aS'142000'
p1382
aS'142320'
p1383
aa(lp1384
S'FUNNY'
p1385
aS'142480'
p1386
aS'142960'
p1387
aa(lp1388
S'LUCKY'
p1389
aS'143120'
p1390
aS'143840'
p1391
aa(lp1392
S'IX-3p-arc'
p1393
aS'144080'
p1394
aS'144320'
p1395
aa(lp1396
S'LOOK'
p1397
aS'144480'
p1398
aS'145280'
p1399
aa(lp1400
S'WHEW'
p1401
aS'145560'
p1402
aS'146600'
p1403
aa(lp1404
g62
aS'146680'
p1405
aasg24
S'146680'
p1406
sg26
Nsg27
(lp1407
g1373
ag1377
ag1381
ag1385
ag1389
ag1393
ag1397
ag1401
ag62
asg29
S'We were relieved when cop found that situation funny.'
p1408
sg31
S'140840'
p1409
ssI36
(dp1410
g2
(lp1411
(lp1412
S'COP'
p1413
aS'146800'
p1414
aS'146960'
p1415
aa(lp1416
S'SAY'
p1417
aS'147120'
p1418
aS'147240'
p1419
aa(lp1420
S'CL:1pointing at us'
p1421
aS'147360'
p1422
aS'147840'
p1423
aa(lp1424
S'NOT'
p1425
aS'147920'
p1426
aS'147960'
p1427
aa(lp1428
S'DO'
p1429
aS'148040'
p1430
aS'148600'
p1431
aa(lp1432
S'#EVER'
p1433
aS'148720'
p1434
aS'148960'
p1435
aa(lp1436
S'AGAIN'
p1437
aS'149200'
p1438
aS'149720'
p1439
aa(lp1440
S'MAKE'
p1441
aS'150040'
p1442
aS'150160'
p1443
aa(lp1444
S'IX-1p'
p1445
aS'150280'
p1446
aS'150360'
p1447
aa(lp1448
S'DRIVE'
p1449
aS'150520'
p1450
aS'150920'
p1451
aa(lp1452
S'FROM'
p1453
aS'151040'
p1454
aS'151160'
p1455
aa(lp1456
S'#LA'
p1457
aS'151240'
p1458
aS'151600'
p1459
aa(lp1460
S'CL:1coming to here'
p1461
aS'151720'
p1462
aS'151960'
p1463
aa(lp1464
S'FOR'
p1465
aS'152040'
p1466
aS'152200'
p1467
aa(lp1468
S'THAT'
p1469
aS'152320'
p1470
aS'152840'
p1471
aasg24
S'152840'
p1472
sg26
Nsg27
(lp1473
g1413
ag1417
ag1421
ag1425
ag1429
ag1433
ag1437
ag1441
ag1445
ag1449
ag1453
ag1457
ag1461
ag1465
ag1469
asg29
S'A cop pointed his finger to us and said, "Don\'t ever do that again because I drove here all the way from LA for that."'
p1474
sg31
S'146680'
p1475
ssI37
(dp1476
g2
(lp1477
(lp1478
S'THAT'
p1479
aS'152840'
p1480
aS'152880'
p1481
aa(lp1482
g62
aS'152920'
p1483
aa(lp1484
S'IX-1p'
p1485
aS'153000'
p1486
aS'153440'
p1487
aa(lp1488
S'LOOK'
p1489
aS'153640'
p1490
aS'154560'
p1491
aa(lp1492
S'WHEW'
p1493
aS'154760'
p1494
aS'155520'
p1495
aa(lp1496
S'GOOD'
p1497
aS'155680'
p1498
aS'155960'
p1499
aa(lp1500
S'IX-1p'
p1501
aS'156080'
p1502
aS'156200'
p1503
aa(lp1504
S'GET'
p1505
aS'156280'
p1506
aS'156400'
p1507
aa(lp1508
S'REGULAR'
p1509
aS'156520'
p1510
aS'156800'
p1511
aa(lp1512
S'OPEN'
p1513
aS'157040'
p1514
aS'157280'
p1515
aa(lp1516
S'COP'
p1517
aS'157440'
p1518
aS'158080'
p1519
aasg24
S'158080'
p1520
sg26
Nsg27
(lp1521
g1479
ag62
ag1485
ag1489
ag1493
ag1497
ag1501
ag1505
ag1509
ag1513
ag1517
asg29
S'I was relief and it was good that we got regular and open-minded cop.'
p1522
sg31
S'152840'
p1523
ssI38
(dp1524
g2
(lp1525
(lp1526
S'COP'
p1527
aS'158080'
p1528
aS'158120'
p1529
aa(lp1530
S'TRUE-BUSINESS'
p1531
aS'158240'
p1532
aS'158880'
p1533
aa(lp1534
g62
aS'159120'
p1535
aa(lp1536
S'ns-ERICK'
p1537
aS'159320'
p1538
aS'159960'
p1539
aa(lp1540
S'(2h)IX-3p:i'
p1541
aS'160000'
p1542
aS'160200'
p1543
aa(lp1544
S'MUST'
p1545
aS'160280'
p1546
aS'160520'
p1547
aa(lp1548
S'FINE'
p1549
aS'160640'
p1550
aS'161080'
p1551
aa(lp1552
S'IX-3p-arc'
p1553
aS'161200'
p1554
aS'161520'
p1555
aasg24
S'161520'
p1556
sg26
Nsg27
(lp1557
g1527
ag1531
ag62
ag1537
ag1541
ag1545
ag1549
ag1553
asg29
S'Erick was supposed to fine us.'
p1558
sg31
S'158080'
p1559
ssI39
(dp1560
g2
(lp1561
(lp1562
S'HAVE'
p1563
aS'161760'
p1564
aS'161920'
p1565
aa(lp1566
S'PAST'
p1567
aS'162200'
p1568
aS'162320'
p1569
aa(lp1570
S'HAVE'
p1571
aS'162440'
p1572
aS'162520'
p1573
aa(lp1574
S'FINE'
p1575
aS'162640'
p1576
aS'163080'
p1577
aa(lp1578
S'SYSTEM'
p1579
aS'163200'
p1580
aS'163480'
p1581
aa(lp1582
S'AT'
p1583
aS'163520'
p1584
aS'163600'
p1585
aa(lp1586
S'NS-CSUN'
p1587
aS'163720'
p1588
aS'164360'
p1589
aa(lp1590
S'IF'
p1591
aS'164480'
p1592
aS'164720'
p1593
aa(lp1594
S'TROUBLE'
p1595
aS'164840'
p1596
aS'165520'
p1597
aa(lp1598
S'#SO'
p1599
aS'165720'
p1600
aS'165800'
p1601
aa(lp1602
S'part:indef'
p1603
aS'165920'
p1604
aS'166080'
p1605
aasg24
S'166080'
p1606
sg26
Nsg27
(lp1607
g1563
ag1567
ag1571
ag1575
ag1579
ag1583
ag1587
ag1591
ag1595
ag1599
ag1603
asg29
S'Back then, there was a fine system at CSUN for if you caused troubles.'
p1608
sg31
S'161520'
p1609
ssI40
(dp1610
g2
(lp1611
(lp1612
S'part:indef'
p1613
aS'166080'
p1614
aS'166120'
p1615
aa(lp1616
S'IX-3p:i'
p1617
aS'166320'
p1618
aS'166360'
p1619
aa(lp1620
S'DECIDE'
p1621
aS'166520'
p1622
aS'166640'
p1623
aa(lp1624
S'WAIVE'
p1625
aS'166760'
p1626
aS'167280'
p1627
aa(lp1628
S'BECAUSE'
p1629
aS'167480'
p1630
aS'167720'
p1631
aa(lp1632
S'THINK'
p1633
aS'167840'
p1634
aS'168000'
p1635
aa(lp1636
S'FUNNY'
p1637
aS'168160'
p1638
aS'168680'
p1639
aasg24
S'168680'
p1640
sg26
Nsg27
(lp1641
g1613
ag1617
ag1621
ag1625
ag1629
ag1633
ag1637
asg29
S'He decided to waive us because he thought it was funny.'
p1642
sg31
S'166080'
p1643
ssI41
(dp1644
g2
(lp1645
(lp1646
S'#SO'
p1647
aS'168880'
p1648
aS'169200'
p1649
aa(lp1650
S'IX-3p:i'
p1651
aS'169560'
p1652
aS'169600'
p1653
aa(lp1654
S'UNKNOWN'
p1655
aS'169840'
p1656
aS'169960'
p1657
aa(lp1658
S'part:indef'
p1659
aS'170040'
p1660
aS'170080'
p1661
aa(lp1662
S'REALLY+'
p1663
aS'170280'
p1664
aS'170760'
p1665
aa(lp1666
S'ONE'
p1667
aS'170920'
p1668
aS'171080'
p1669
aa(lp1670
S'PUNISH'
p1671
aS'171320'
p1672
aS'171520'
p1673
aa(lp1674
S'IX-1p'
p1675
aS'171720'
p1676
aS'171800'
p1677
aa(lp1678
S'MUST'
p1679
aS'171920'
p1680
aS'171960'
p1681
aa(lp1682
S'DO'
p1683
aS'172080'
p1684
aS'172600'
p1685
aa(lp1686
g62
aS'172680'
p1687
aasg24
S'172680'
p1688
sg26
Nsg27
(lp1689
g1647
ag1651
ag1655
ag1659
ag1663
ag1667
ag1671
ag1675
ag1679
ag1683
ag62
asg29
S'Actually, there was one punish we have to do.'
p1690
sg31
S'168680'
p1691
ssI42
(dp1692
g2
(lp1693
(lp1694
S'IX-1p'
p1695
aS'172840'
p1696
aS'172920'
p1697
aa(lp1698
S'MUST'
p1699
aS'173040'
p1700
aS'173080'
p1701
aa(lp1702
S'#TO'
p1703
aS'173160'
p1704
aS'173240'
p1705
aa(lp1706
S'GO'
p1707
aS'173400'
p1708
aS'173880'
p1709
aa(lp1710
S'SEE'
p1711
aS'174040'
p1712
aS'174280'
p1713
aa(lp1714
S'UNKNOWN'
p1715
aS'174440'
p1716
aS'175840'
p1717
aa(lp1718
S'fs-HALL'
p1719
aS'175920'
p1720
aS'176400'
p1721
aa(lp1722
S'COORDINATOR'
p1723
aS'176520'
p1724
aS'177120'
p1725
aasg24
S'177120'
p1726
sg26
Nsg27
(lp1727
g1695
ag1699
ag1703
ag1707
ag1711
ag1715
ag1719
ag1723
asg29
S'I have go to see a hall coordinator.'
p1728
sg31
S'172680'
p1729
ssI43
(dp1730
g2
(lp1731
(lp1732
S'IX-1p'
p1733
aS'177280'
p1734
aS'177400'
p1735
aa(lp1736
S'GO'
p1737
aS'177560'
p1738
aS'177760'
p1739
aa(lp1740
S'EXPLAIN'
p1741
aS'177880'
p1742
aS'178120'
p1743
aa(lp1744
S'ABOUT'
p1745
aS'178280'
p1746
aS'178360'
p1747
aa(lp1748
S'THAT'
p1749
aS'178480'
p1750
aS'178640'
p1751
aa(lp1752
S'SITUATION'
p1753
aS'178760'
p1754
aS'179160'
p1755
aa(lp1756
S'REALLY'
p1757
aS'179360'
p1758
aS'179400'
p1759
aa(lp1760
S'fs-HALL'
p1761
aS'179840'
p1762
aS'180320'
p1763
aa(lp1764
S'COORDINATOR'
p1765
aS'180520'
p1766
aS'180880'
p1767
aa(lp1768
S'NOT'
p1769
aS'181000'
p1770
aS'181120'
p1771
aa(lp1772
S'FRIENDLY'
p1773
aS'181320'
p1774
aS'182040'
p1775
aa(lp1776
S'part:indef'
p1777
aS'182680'
p1778
aS'182800'
p1779
aasg24
S'182840'
p1780
sg26
Nsg27
(lp1781
g1733
ag1737
ag1741
ag1745
ag1749
ag1753
ag1757
ag1761
ag1765
ag1769
ag1773
ag1777
asg29
S'I went and explained about the situation.  The hall coordinator was not friendly.'
p1782
sg31
S'177120'
p1783
ssI44
(dp1784
g2
(lp1785
(lp1786
S'#SO'
p1787
aS'182960'
p1788
aS'183160'
p1789
aa(lp1790
S'part:indef'
p1791
aS'183320'
p1792
aS'183760'
p1793
aa(lp1794
S'REALLY'
p1795
aS'183920'
p1796
aS'184080'
p1797
aa(lp1798
S'IX-3p:i'
p1799
aS'184160'
p1800
aS'184240'
p1801
aa(lp1802
S'part:indef'
p1803
aS'184320'
p1804
aS'184480'
p1805
aa(lp1806
S'IX-3p:i'
p1807
aS'184560'
p1808
aS'184760'
p1809
aa(lp1810
S'PUNISH'
p1811
aS'185040'
p1812
aS'185320'
p1813
aa(lp1814
S'IX-3p:i'
p1815
aS'186360'
p1816
aS'186440'
p1817
aa(lp1818
S'PUNISH'
p1819
aS'186680'
p1820
aS'186960'
p1821
aa(lp1822
S'IX-3p-arc'
p1823
aS'187200'
p1824
aS'187360'
p1825
aasg24
S'187480'
p1826
sg26
Nsg27
(lp1827
g1787
ag1791
ag1795
ag1799
ag1803
ag1807
ag1811
ag1815
ag1819
ag1823
asg29
S'So, she punished us.'
p1828
sg31
S'182840'
p1829
ssI45
(dp1830
g2
(lp1831
(lp1832
S'#SO'
p1833
aS'187560'
p1834
aS'187760'
p1835
aa(lp1836
S'IX-1p'
p1837
aS'187920'
p1838
aS'188040'
p1839
aa(lp1840
S'CL:2sitting down'
p1841
aS'188280'
p1842
aS'188600'
p1843
aa(lp1844
S'IX-1p'
p1845
aS'188680'
p1846
aS'188800'
p1847
aa(lp1848
S'EXPLAIN'
p1849
aS'188920'
p1850
aS'189600'
p1851
aa(lp1852
S'#HALL'
p1853
aS'189800'
p1854
aS'189960'
p1855
aa(lp1856
S'COORDINATOR'
p1857
aS'190120'
p1858
aS'190560'
p1859
aa(lp1860
S'IX-1p'
p1861
aS'190680'
p1862
aS'190800'
p1863
aa(lp1864
S'HOPE'
p1865
aS'190960'
p1866
aS'191120'
p1867
aa(lp1868
S'IX-3p:i'
p1869
aS'191240'
p1870
aS'191280'
p1871
aa(lp1872
S'CAN'
p1873
aS'191480'
p1874
aS'191520'
p1875
aa(lp1876
S'FIND'
p1877
aS'191720'
p1878
aS'191840'
p1879
aa(lp1880
S'SOME'
p1881
aS'191960'
p1882
aS'192280'
p1883
aa(lp1884
S'FUNNY'
p1885
aS'192520'
p1886
aS'192600'
p1887
aa(lp1888
S'fs-HUMOR'
p1889
aS'192840'
p1890
aS'193440'
p1891
aa(lp1892
S'IN'
p1893
aS'193600'
p1894
aS'193680'
p1895
aa(lp1896
S'THAT'
p1897
aS'193960'
p1898
aS'194120'
p1899
aa(lp1900
S'SITUATION'
p1901
aS'194320'
p1902
aS'194920'
p1903
aa(lp1904
g62
aS'195640'
p1905
aasg24
S'195640'
p1906
sg26
Nsg27
(lp1907
g1833
ag1837
ag1841
ag1845
ag1849
ag1853
ag1857
ag1861
ag1865
ag1869
ag1873
ag1877
ag1881
ag1885
ag1889
ag1893
ag1897
ag1901
ag62
asg29
S'We sitted down and I explained to the hall coordinator.  I was hoping she would find some funny about the situation.'
p1908
sg31
S'187480'
p1909
ssI46
(dp1910
g2
(lp1911
(lp1912
S'HOPE'
p1913
aS'196640'
p1914
aS'197000'
p1915
aa(lp1916
S'part:indef'
p1917
aS'197200'
p1918
aS'197560'
p1919
aa(lp1920
S'#SO'
p1921
aS'197680'
p1922
aS'198080'
p1923
aa(lp1924
S'IX-3p:i'
p1925
aS'198200'
p1926
aS'198320'
p1927
aa(lp1928
S'REALLY'
p1929
aS'198440'
p1930
aS'198480'
p1931
aa(lp1932
S'fs-HALL'
p1933
aS'198520'
p1934
aS'198880'
p1935
aa(lp1936
S'COORDINATOR'
p1937
aS'198960'
p1938
aS'199360'
p1939
aa(lp1940
S'REALLY'
p1941
aS'199560'
p1942
aS'199680'
p1943
aa(lp1944
S'BIG'
p1945
aS'199800'
p1946
aS'200520'
p1947
aa(lp1948
S'fs-B'
p1949
aS'200680'
p1950
aS'200960'
p1951
aa(lp1952
S'WORD'
p1953
aS'201080'
p1954
aS'201280'
p1955
aa(lp1956
S'IX-1p'
p1957
aS'201400'
p1958
aS'201480'
p1959
aa(lp1960
S'NOT-WANT'
p1961
aS'201520'
p1962
aS'201560'
p1963
aa(lp1964
S'SAY'
p1965
aS'201680'
p1966
aS'201720'
p1967
aa(lp1968
S'#IT'
p1969
aS'201880'
p1970
aS'202120'
p1971
aa(lp1972
S'HERE'
p1973
aS'202280'
p1974
aS'202480'
p1975
aa(lp1976
S'KNOW'
p1977
aS'202760'
p1978
aS'203000'
p1979
aa(lp1980
S'UNKNOWN'
p1981
aS'203120'
p1982
aS'203200'
p1983
aasg24
S'203400'
p1984
sg26
Nsg27
(lp1985
g1913
ag1917
ag1921
ag1925
ag1929
ag1933
ag1937
ag1941
ag1945
ag1949
ag1953
ag1957
ag1961
ag1965
ag1969
ag1973
ag1977
ag1981
asg29
S'I hoped but really, the hall coordinator is big "B" word that I don\'t want to say it here.'
p1986
sg31
S'195640'
p1987
ssI47
(dp1988
g2
(lp1989
(lp1990
S'IX-1p'
p1991
aS'207720'
p1992
aS'207800'
p1993
aa(lp1994
S'MUST'
p1995
aS'207880'
p1996
aS'208120'
p1997
aa(lp1998
g62
aS'208480'
p1999
aa(lp2000
S'CLEAN++'
p2001
aS'208640'
p2002
aS'209560'
p2003
aa(lp2004
S'GRASS'
p2005
aS'209680'
p2006
aS'210480'
p2007
aasg24
S'210640'
p2008
sg26
Nsg27
(lp2009
g1991
ag1995
ag62
ag2001
ag2005
asg29
S'I must go outside and clean around on the grass.'
p2010
sg31
S'207560'
p2011
ssI48
(dp2012
g2
(lp2013
(lp2014
S'IX-3p:i'
p2015
aS'210760'
p2016
aS'210880'
p2017
aa(lp2018
S'HAVE'
p2019
aS'210960'
p2020
aS'211120'
p2021
aa(lp2022
S'BIG'
p2023
aS'211200'
p2024
aS'211480'
p2025
aa(lp2026
S'GRASS'
p2027
aS'211560'
p2028
aS'211840'
p2029
aa(lp2030
S'CL:5location'
p2031
aS'211960'
p2032
aS'212640'
p2033
aa(lp2034
S'A-LOT'
p2035
aS'212800'
p2036
aS'212920'
p2037
aa(lp2038
S'CIGARETTE'
p2039
aS'213120'
p2040
aS'213480'
p2041
aa(lp2042
S'#BUTTS'
p2043
aS'213560'
p2044
aS'214240'
p2045
aa(lp2046
S'CL:1throwing the objects'
p2047
aS'214320'
p2048
aS'215240'
p2049
aasg24
S'215240'
p2050
sg26
Nsg27
(lp2051
g2015
ag2019
ag2023
ag2027
ag2031
ag2035
ag2039
ag2043
ag2047
asg29
S'They have huge grass area where a lot of cigarette butts that people threw on the grass.'
p2052
sg31
S'210640'
p2053
ssI49
(dp2054
g2
(lp2055
(lp2056
S'REALLY'
p2057
aS'215360'
p2058
aS'215480'
p2059
aa(lp2060
S'MAYBE'
p2061
aS'215560'
p2062
aS'215640'
p2063
aa(lp2064
S'FROM'
p2065
aS'215720'
p2066
aS'215920'
p2067
aa(lp2068
S'IX-1p-arc'
p2069
aS'216080'
p2070
aS'216280'
p2071
aa(lp2072
S'ANYWAY'
p2073
aS'216360'
p2074
aS'216600'
p2075
aa(lp2076
S'#SO'
p2077
aS'216720'
p2078
aS'216800'
p2079
aa(lp2080
S'IX-3p:i'
p2081
aS'216920'
p2082
aS'217200'
p2083
aa(lp2084
S'GO'
p2085
aS'217400'
p2086
aS'217680'
p2087
aa(lp2088
S'CLEAN'
p2089
aS'217800'
p2090
aS'218120'
p2091
aa(lp2092
S'PICK'
p2093
aS'218200'
p2094
aS'218600'
p2095
aa(lp2096
S'THROW'
p2097
aS'218720'
p2098
aS'219760'
p2099
aa(lp2100
S'IN'
p2101
aS'219800'
p2102
aS'219960'
p2103
aasg24
S'220320'
p2104
sg26
Nsg27
(lp2105
g2057
ag2061
ag2065
ag2069
ag2073
ag2077
ag2081
ag2085
ag2089
ag2093
ag2097
ag2101
asg29
S'It was probably from us anyway so we went and clean.  We threw them in the bag.'
p2106
sg31
S'215240'
p2107
ssI50
(dp2108
g2
(lp2109
(lp2110
S'GIFT'
p2111
aS'221520'
p2112
aS'221680'
p2113
aa(lp2114
S'TO'
p2115
aS'221760'
p2116
aS'221840'
p2117
aa(lp2118
S'#HALL'
p2119
aS'221880'
p2120
aS'222440'
p2121
aa(lp2122
S'COORDINATOR'
p2123
aS'222560'
p2124
aS'223120'
p2125
aa(lp2126
g62
aS'223200'
p2127
aasg24
S'223200'
p2128
sg26
Nsg27
(lp2129
g2111
ag2115
ag2119
ag2123
ag62
asg29
S'Gave the bag to the hall Coordinator.'
p2130
sg31
S'220320'
p2131
ssI51
(dp2132
g2
(lp2133
(lp2134
S'IX-1p'
p2135
aS'223280'
p2136
aS'223440'
p2137
aa(lp2138
g62
aS'223880'
p2139
aa(lp2140
S'IX-2p'
p2141
aS'224040'
p2142
aS'224080'
p2143
aa(lp2144
S'HAPPY'
p2145
aS'224240'
p2146
aS'224600'
p2147
aa(lp2148
S'NOW'
p2149
aS'224760'
p2150
aS'224880'
p2151
aa(lp2152
S'IX-3p:i'
p2153
aS'224960'
p2154
aS'225000'
p2155
aa(lp2156
S'SAY'
p2157
aS'225080'
p2158
aS'225200'
p2159
aa(lp2160
S'no'
p2161
aS'225320'
p2162
aS'225680'
p2163
aa(lp2164
S'NOT'
p2165
aS'225800'
p2166
aS'225840'
p2167
aa(lp2168
S'DO'
p2169
aS'225880'
p2170
aS'226040'
p2171
aa(lp2172
S'AGAIN'
p2173
aS'226160'
p2174
aS'226560'
p2175
aa(lp2176
S'no'
p2177
aS'226680'
p2178
aS'226920'
p2179
aasg24
S'227000'
p2180
sg26
Nsg27
(lp2181
g2135
ag62
ag2141
ag2145
ag2149
ag2153
ag2157
ag2161
ag2165
ag2169
ag2173
ag2177
asg29
S'I gave and asked if she is happy now.  She said, "Don\'t do it again"'
p2182
sg31
S'223200'
p2183
ssI52
(dp2184
g2
(lp2185
(lp2186
S'#SO'
p2187
aS'227040'
p2188
aS'227240'
p2189
aa(lp2190
S'FROM-NOW-ON'
p2191
aS'227400'
p2192
aS'227960'
p2193
aa(lp2194
S'IX-1p-arc'
p2195
aS'228120'
p2196
aS'228360'
p2197
aa(lp2198
S'UNKNOWN'
p2199
aS'228480'
p2200
aS'228720'
p2201
aa(lp2202
S'GOOD'
p2203
aS'228840'
p2204
aS'229200'
p2205
aa(lp2206
S'STAY'
p2207
aS'229600'
p2208
aS'229800'
p2209
aa(lp2210
S'OUT'
p2211
aS'229920'
p2212
aS'230200'
p2213
aa(lp2214
S'TROUBLE'
p2215
aS'230280'
p2216
aS'230680'
p2217
aa(lp2218
S'FROM-NOW-ON'
p2219
aS'230840'
p2220
aS'231200'
p2221
aa(lp2222
S'ON'
p2223
aS'231360'
p2224
aS'231440'
p2225
aa(lp2226
S'#CSUN'
p2227
aS'231560'
p2228
aS'232040'
p2229
aa(lp2230
S'UNKNOWN'
p2231
aS'232120'
p2232
aS'232320'
p2233
aasg24
S'232720'
p2234
sg26
Nsg27
(lp2235
g2187
ag2191
ag2195
ag2199
ag2203
ag2207
ag2211
ag2215
ag2219
ag2223
ag2227
ag2231
asg29
S'From now on, we will be good and stay out of trouble at CSUN.'
p2236
sg31
S'227000'
p2237
ss.