(dp0
I0
(dp1
S'Annotated'
p2
(lp3
(lp4
S'REALLY'
p5
aS'480'
p6
aS'640'
p7
aa(lp8
S'PAST++'
p9
aS'840'
p10
aS'1200'
p11
aa(lp12
S'WEEKEND'
p13
aS'1360'
p14
aS'1840'
p15
aa(lp16
S'IX-1p'
p17
aS'2000'
p18
aS'2160'
p19
aa(lp20
S'GET-TOGETHER'
p21
aS'2320'
p22
aS'2520'
p23
aa(lp24
S'FRIEND'
p25
aS'2640'
p26
aS'3080'
p27
aa(lp28
S'IX-1p-arc'
p29
aS'3240'
p30
aS'3360'
p31
aa(lp32
S'TWENTY'
p33
aS'3560'
p34
aS'3960'
p35
aasS'EndFrame'
p36
S'3960'
p37
sS'Video'
p38
NsS'Words'
p39
(lp40
g5
ag9
ag13
ag17
ag21
ag25
ag29
ag33
asS'English'
p41
S'Really, last weekend, twenty friends of us got together.'
p42
sS'StartFrame'
p43
S'0'
p44
ssI1
(dp45
g2
(lp46
(lp47
S'IX-1p-arc'
p48
aS'4080'
p49
aS'4520'
p50
aa(lp51
S'DEAF'
p52
aS'4720'
p53
aS'4960'
p54
aa(lp55
S'GO'
p56
aS'5120'
p57
aS'5440'
p58
aa(lp59
S'TO'
p60
aS'5520'
p61
aS'5600'
p62
aa(lp63
S'MAINE'
p64
aS'5840'
p65
aS'6200'
p66
aa(lp67
S'fs-MAINE'
p68
aS'6440'
p69
aS'7200'
p70
aa(lp71
S'IX-3p:i'
p72
aS'7320'
p73
aS'7560'
p74
aa(lp75
S'WATER'
p76
aS'7720'
p77
aS'8000'
p78
aa(lp79
S'WHITE'
p80
aS'8160'
p81
aS'8280'
p82
aa(lp83
S'WATER'
p84
aS'8360'
p85
aS'8560'
p86
aa(lp87
S'BOAT'
p88
aS'8720'
p89
aS'9520'
p90
aasg36
S'10000'
p91
sg38
Nsg39
(lp92
g48
ag52
ag56
ag60
ag64
ag68
ag72
ag76
ag80
ag84
ag88
asg41
S'We, Deafies, went to Maine for White water rafting.'
p93
sg43
S'4000'
p94
ssI2
(dp95
g2
(lp96
(lp97
S'REALLY'
p98
aS'10360'
p99
aS'10440'
p100
aa(lp101
S'IX-1p'
p102
aS'10520'
p103
aS'10600'
p104
aa(lp105
S'ARRIVE'
p106
aS'10720'
p107
aS'10880'
p108
aa(lp109
S'FRIDAY'
p110
aS'10960'
p111
aS'11240'
p112
aa(lp113
S'NIGHT'
p114
aS'11440'
p115
aS'12000'
p116
aasg36
S'12040'
p117
sg38
Nsg39
(lp118
g98
ag102
ag106
ag110
ag114
asg41
S'I arrived on Friday night.'
p119
sg43
S'10040'
p120
ssI3
(dp121
g2
(lp122
(lp123
S'REALLY'
p124
aS'12200'
p125
aS'12240'
p126
aa(lp127
S'MANY'
p128
aS'12360'
p129
aS'12400'
p130
aa(lp131
S'CAMP'
p132
aS'12560'
p133
aS'12920'
p134
aa(lp135
S'CL:5locations'
p136
aS'13080'
p137
aS'14440'
p138
aa(lp139
S'SET-UP++'
p140
aS'14640'
p141
aS'15480'
p142
aa(lp143
S'punct'
p144
aS'15960'
p145
aasg36
S'16000'
p146
sg38
Nsg39
(lp147
g124
ag128
ag132
ag136
ag140
ag144
asg41
S'There was many camps all over that is already set up.'
p148
sg43
S'12080'
p149
ssI4
(dp150
g2
(lp151
(lp152
S'part:indef'
p153
aS'16080'
p154
aS'16160'
p155
aa(lp156
S'BEER'
p157
aS'16400'
p158
aS'16800'
p159
aa(lp160
S'CL:5many objects'
p161
aS'17160'
p162
aS'17800'
p163
aa(lp164
S'REALLY'
p165
aS'17920'
p166
aS'18000'
p167
aa(lp168
S'EVERYWHERE'
p169
aS'18160'
p170
aS'18520'
p171
aa(lp172
S'CL:5locations'
p173
aS'18720'
p174
aS'19200'
p175
aa(lp176
S'PEOPLE'
p177
aS'19600'
p178
aS'20200'
p179
aa(lp180
S'CL:5crowding'
p181
aS'20360'
p182
aS'21680'
p183
aasg36
S'21760'
p184
sg38
Nsg39
(lp185
g153
ag157
ag161
ag165
ag169
ag173
ag177
ag181
asg41
S'The beers were all over, really, it was in everywhere and there was crowd of people.'
p186
sg43
S'16040'
p187
ssI5
(dp188
g2
(lp189
(lp190
S'IX-1p-arc'
p191
aS'21920'
p192
aS'22480'
p193
aa(lp194
S'IX-1p-arc'
p195
aS'22640'
p196
aS'22920'
p197
aa(lp198
S'part:indef'
p199
aS'23000'
p200
aS'23360'
p201
aa(lp202
S'OVER-NIGHT'
p203
aS'23560'
p204
aS'24400'
p205
aa(lp206
S'WAKE-UP'
p207
aS'24720'
p208
aS'25120'
p209
aa(lp210
S'MORNING'
p211
aS'25360'
p212
aS'25640'
p213
aasg36
S'25640'
p214
sg38
Nsg39
(lp215
g191
ag195
ag199
ag203
ag207
ag211
asg41
S'We stayed up overnight and then woke up next morning.'
p216
sg43
S'21800'
p217
ssI6
(dp218
g2
(lp219
(lp220
S'MORNING'
p221
aS'25680'
p222
aS'25720'
p223
aa(lp224
S'PATIENT'
p225
aS'25960'
p226
aS'26600'
p227
aa(lp228
S'STAND-UP'
p229
aS'26880'
p230
aS'27120'
p231
aa(lp232
S'SEVEN'
p233
aS'27240'
p234
aS'27560'
p235
aa(lp236
S'MORNING'
p237
aS'28000'
p238
aS'28560'
p239
aasg36
S'28640'
p240
sg38
Nsg39
(lp241
g221
ag225
ag229
ag233
ag237
asg41
S"We had to be patient because we got up at seven o'clock in the morning."
p242
sg43
S'25680'
p243
ssI7
(dp244
g2
(lp245
(lp246
S'READY'
p247
aS'28800'
p248
aS'28920'
p249
aa(lp250
S'FOR'
p251
aS'29080'
p252
aS'29200'
p253
aa(lp254
S'IX-1p-arc'
p255
aS'29360'
p256
aS'29520'
p257
aa(lp258
S'GREAT'
p259
aS'29720'
p260
aS'30160'
p261
aa(lp262
S'fs-ADVDVENTURE'
p263
aS'30280'
p264
aS'32480'
p265
aa(lp266
g144
aS'32800'
p267
aa(lp268
S'clapping'
p269
aS'33040'
p270
aS'33880'
p271
aasg36
S'33880'
p272
sg38
Nsg39
(lp273
g247
ag251
ag255
ag259
ag263
ag144
ag269
asg41
S'We are ready for our great adventure!'
p274
sg43
S'28680'
p275
ssI8
(dp276
g2
(lp277
(lp278
S'#BUS'
p279
aS'34000'
p280
aS'34440'
p281
aa(lp282
S'CL:5vehicle motion'
p283
aS'34680'
p284
aS'35160'
p285
aa(lp286
S'ARRIVE'
p287
aS'35360'
p288
aS'35720'
p289
aa(lp290
S'IX-1p-arc'
p291
aS'35920'
p292
aS'36120'
p293
aa(lp294
S'CL:3sitting on++'
p295
aS'36400'
p296
aS'36960'
p297
aa(lp298
S'AFTER'
p299
aS'37080'
p300
aS'37200'
p301
aa(lp302
S'EAT'
p303
aS'37360'
p304
aS'37720'
p305
aa(lp306
S'MORNING'
p307
aS'37840'
p308
aS'38080'
p309
aasg36
S'38120'
p310
sg38
Nsg39
(lp311
g279
ag283
ag287
ag291
ag295
ag299
ag303
ag307
asg41
S'We went in the bus after breakfast.'
p312
sg43
S'33920'
p313
ssI9
(dp314
g2
(lp315
(lp316
S'IX-1p'
p317
aS'38200'
p318
aS'38280'
p319
aa(lp320
S'CL:3sitting on++'
p321
aS'38520'
p322
aS'39040'
p323
aa(lp324
S'CL:Criding on the vehicle'
p325
aS'39160'
p326
aS'40320'
p327
aa(lp328
S'ARRIVE'
p329
aS'40520'
p330
aS'40800'
p331
aa(lp332
S'ONE'
p333
aS'40960'
p334
aS'41080'
p335
aa(lp336
S'RIVER'
p337
aS'41240'
p338
aS'42120'
p339
aa(lp340
g144
aS'42400'
p341
aasg36
S'42400'
p342
sg38
Nsg39
(lp343
g317
ag321
ag325
ag329
ag333
ag337
ag144
asg41
S'We went in the bus and arrived to one river.'
p344
sg43
S'38160'
p345
ssI10
(dp346
g2
(lp347
(lp348
S'part:indef'
p349
aS'43360'
p350
aS'43560'
p351
aa(lp352
S'fs-K'
p353
aS'43680'
p354
aS'44080'
p355
aa(lp356
S'SPELL'
p357
aS'44120'
p358
aS'44520'
p359
aa(lp360
S'LONG-TERM'
p361
aS'44760'
p362
aS'45080'
p363
aa(lp364
S'WORD'
p365
aS'45200'
p366
aS'45600'
p367
aa(lp368
S'IX-3p:i'
p369
aS'45720'
p370
aS'45840'
p371
aa(lp372
S'RIVER'
p373
aS'46080'
p374
aS'46680'
p375
aasg36
S'46680'
p376
sg38
Nsg39
(lp377
g349
ag353
ag357
ag361
ag365
ag369
ag373
asg41
S'The river named start with "K", I don\'t know how to spell because its long word.'
p378
sg43
S'42440'
p379
ssI11
(dp380
g2
(lp381
(lp382
S'IN'
p383
aS'46840'
p384
aS'46960'
p385
aa(lp386
S'CLOSE-BY'
p387
aS'47160'
p388
aS'47240'
p389
aa(lp390
S'MAINE'
p391
aS'47400'
p392
aS'47840'
p393
aa(lp394
S'TWENTY'
p395
aS'48000'
p396
aS'48160'
p397
aa(lp398
S'MINUTES'
p399
aS'48240'
p400
aS'48400'
p401
aa(lp402
S'FROM'
p403
aS'48640'
p404
aS'48840'
p405
aa(lp406
S'WHERE'
p407
aS'48880'
p408
aS'48960'
p409
aa(lp410
S'IX-3p-arc'
p411
aS'49000'
p412
aS'49160'
p413
aa(lp414
S'CAMP'
p415
aS'49360'
p416
aS'49720'
p417
aa(lp418
S'CL:5location'
p419
aS'49840'
p420
aS'50160'
p421
aasg36
S'50880'
p422
sg38
Nsg39
(lp423
g383
ag387
ag391
ag395
ag399
ag403
ag407
ag411
ag415
ag419
asg41
S'It was close by, twenty minutes away from our camp ground.'
p424
sg43
S'46720'
p425
ssI12
(dp426
g2
(lp427
(lp428
S'SIT'
p429
aS'51440'
p430
aS'51640'
p431
aa(lp432
S'ON'
p433
aS'51800'
p434
aS'51960'
p435
aa(lp436
S'fs-RAFT'
p437
aS'52080'
p438
aS'52720'
p439
aa(lp440
S'RAFT'
p441
aS'52960'
p442
aS'53760'
p443
aa(lp444
g144
aS'54400'
p445
aasg36
S'54560'
p446
sg38
Nsg39
(lp447
g429
ag433
ag437
ag441
ag144
asg41
S'We sat on the raft.'
p448
sg43
S'50920'
p449
ssI13
(dp450
g2
(lp451
(lp452
S'IX-1p'
p453
aS'54640'
p454
aS'54760'
p455
aa(lp456
S'POSS-1p'
p457
aS'54880'
p458
aS'55000'
p459
aa(lp460
S'FIRST'
p461
aS'55120'
p462
aS'55280'
p463
aa(lp464
S'TIME'
p465
aS'55440'
p466
aS'55560'
p467
aa(lp468
S'ADMIT'
p469
aS'55680'
p470
aS'56040'
p471
aa(lp472
S'IX-1p'
p473
aS'56120'
p474
aS'56360'
p475
aa(lp476
S'part:indef'
p477
aS'56480'
p478
aS'57080'
p479
aasg36
S'57080'
p480
sg38
Nsg39
(lp481
g453
ag457
ag461
ag465
ag469
ag473
ag477
asg41
S'I have to admit that it was my first time.'
p482
sg43
S'54600'
p483
ssI14
(dp484
g2
(lp485
(lp486
S'IX-1p'
p487
aS'57400'
p488
aS'57480'
p489
aa(lp490
S'NOT-KNOW'
p491
aS'57680'
p492
aS'57800'
p493
aa(lp494
S'WHAT'
p495
aS'57960'
p496
aS'58040'
p497
aa(lp498
S'FEEL'
p499
aS'58200'
p500
aS'58800'
p501
aa(lp502
S'SAME'
p503
aS'58920'
p504
aS'59120'
p505
aa(lp506
S'ON'
p507
aS'59280'
p508
aS'59800'
p509
aa(lp510
S'BOAT'
p511
aS'60000'
p512
aS'60680'
p513
aa(lp514
S'WATER'
p515
aS'60880'
p516
aS'61480'
p517
aa(lp518
S'THINK'
p519
aS'61600'
p520
aS'61840'
p521
aa(lp522
S'NOTHING'
p523
aS'61960'
p524
aS'62400'
p525
aasg36
S'62480'
p526
sg38
Nsg39
(lp527
g487
ag491
ag495
ag499
ag503
ag507
ag511
ag515
ag519
ag523
asg41
S"I didn't know what it feel like to be on the boat but thought its nothing."
p528
sg43
S'57120'
p529
ssI15
(dp530
g2
(lp531
(lp532
S'IX-1p'
p533
aS'62600'
p534
aS'62680'
p535
aa(lp536
S'START'
p537
aS'62800'
p538
aS'62920'
p539
aa(lp540
S'CL:3sitting on++'
p541
aS'63040'
p542
aS'63760'
p543
aa(lp544
S'IX-3p:i'
p545
aS'63840'
p546
aS'64240'
p547
aa(lp548
S'part:indef'
p549
aS'64440'
p550
aS'64600'
p551
aasg36
S'64680'
p552
sg38
Nsg39
(lp553
g533
ag537
ag541
ag545
ag549
asg41
S'We started to sit down.'
p554
sg43
S'62520'
p555
ssI16
(dp556
g2
(lp557
(lp558
S'IX-3p-arc'
p559
aS'64840'
p560
aS'64960'
p561
aa(lp562
S'HAVE'
p563
aS'65160'
p564
aS'65240'
p565
aa(lp566
S'LEADER'
p567
aS'65480'
p568
aS'66200'
p569
aa(lp570
g144
aS'66480'
p571
aasg36
S'67400'
p572
sg38
Nsg39
(lp573
g559
ag563
ag567
ag144
asg41
S'We have a leader who sit behind us.'
p574
sg43
S'64720'
p575
ssI17
(dp576
g2
(lp577
(lp578
S'HAVE'
p579
aS'67600'
p580
aS'67720'
p581
aa(lp582
g144
aS'68680'
p583
aa(lp584
S'UNDERSTAND'
p585
aS'68920'
p586
aS'69160'
p587
aa(lp588
S'BOTH'
p589
aS'69480'
p590
aS'69760'
p591
aa(lp592
S'FRONT'
p593
aS'69960'
p594
aS'70240'
p595
aa(lp596
S'MUST'
p597
aS'70400'
p598
aS'70520'
p599
aa(lp600
S'HEARING'
p601
aS'70720'
p602
aS'71400'
p603
aasg36
S'71400'
p604
sg38
Nsg39
(lp605
g579
ag144
ag585
ag589
ag593
ag597
ag601
asg41
S'There was eight of us, two people in front have to be hearing.'
p606
sg43
S'67440'
p607
ssI18
(dp608
g2
(lp609
(lp610
S'#SO'
p611
aS'71560'
p612
aS'71760'
p613
aa(lp614
S'IX-1p'
p615
aS'71880'
p616
aS'71960'
p617
aa(lp618
S'CAN'
p619
aS'72080'
p620
aS'72160'
p621
aa(lp622
S'FOLLOW'
p623
aS'72360'
p624
aS'72960'
p625
aa(lp626
S'BCL:Srowing'
p627
aS'73200'
p628
aS'74560'
p629
aasg36
S'74560'
p630
sg38
Nsg39
(lp631
g611
ag615
ag619
ag623
ag627
asg41
S'So, I can follow the way how to rowing.'
p632
sg43
S'71440'
p633
ssI19
(dp634
g2
(lp635
(lp636
S'KNOW'
p637
aS'74680'
p638
aS'74800'
p639
aa(lp640
S'WHEN'
p641
aS'74960'
p642
aS'75120'
p643
aa(lp644
S'RIGHT'
p645
aS'75320'
p646
aS'75520'
p647
aa(lp648
S'TIME'
p649
aS'75640'
p650
aS'75800'
p651
aa(lp652
S'STOP'
p653
aS'76120'
p654
aS'76320'
p655
aa(lp656
S'BCL:Srowing+'
p657
aS'76520'
p658
aS'77520'
p659
aasg36
S'77840'
p660
sg38
Nsg39
(lp661
g637
ag641
ag645
ag649
ag653
ag657
asg41
S'They will know when is right time to stop rowing.'
p662
sg43
S'74600'
p663
ssI20
(dp664
g2
(lp665
(lp666
S'SCREAM'
p667
aS'78840'
p668
aS'79200'
p669
aa(lp670
S'#SO'
p671
aS'79280'
p672
aS'79440'
p673
aa(lp674
S'IX-3p-arc'
p675
aS'79520'
p676
aS'79680'
p677
aa(lp678
S'DEAF'
p679
aS'79800'
p680
aS'80120'
p681
aa(lp682
S'CAN-NOT'
p683
aS'80240'
p684
aS'80480'
p685
aa(lp686
S'HEAR'
p687
aS'80640'
p688
aS'80920'
p689
aa(lp690
S'BACK'
p691
aS'81080'
p692
aS'81680'
p693
aasg36
S'81680'
p694
sg38
Nsg39
(lp695
g667
ag671
ag675
ag679
ag683
ag687
ag691
asg41
S'The person behind us would scream and we Deaf people can not hear back.'
p696
sg43
S'77880'
p697
ssI21
(dp698
g2
(lp699
(lp700
S'#SO'
p701
aS'81760'
p702
aS'81840'
p703
aa(lp704
S'IX-1p'
p705
aS'81960'
p706
aS'82040'
p707
aa(lp708
S'CL:3sitting down+'
p709
aS'82160'
p710
aS'82680'
p711
aa(lp712
S'part:indef'
p713
aS'82800'
p714
aS'83000'
p715
aa(lp716
S'READY'
p717
aS'83120'
p718
aS'83520'
p719
aasg36
S'83520'
p720
sg38
Nsg39
(lp721
g701
ag705
ag709
ag713
ag717
asg41
S'So we sat down and get ready.'
p722
sg43
S'81720'
p723
ssI22
(dp724
g2
(lp725
(lp726
S'BOAT'
p727
aS'83760'
p728
aS'84840'
p729
aa(lp730
S'REALLY'
p731
aS'85040'
p732
aS'85160'
p733
aa(lp734
S'SLOW'
p735
aS'85360'
p736
aS'85960'
p737
aa(lp738
S'IX-1p'
p739
aS'86080'
p740
aS'86400'
p741
aa(lp742
S'UNKNOWN'
p743
aS'86720'
p744
aS'87160'
p745
aasg36
S'87160'
p746
sg38
Nsg39
(lp747
g727
ag731
ag735
ag739
ag743
asg41
S'The boat was really slow.'
p748
sg43
S'83560'
p749
ssI23
(dp750
g2
(lp751
(lp752
S'IX-1p'
p753
aS'87320'
p754
aS'87360'
p755
aa(lp756
S'BCL:Srowing++'
p757
aS'87680'
p758
aS'88960'
p759
aa(lp760
S'IX-1p'
p761
aS'89120'
p762
aS'89240'
p763
aa(lp764
S'THINK'
p765
aS'89480'
p766
aS'89680'
p767
aa(lp768
S'UNKNOWN'
p769
aS'89880'
p770
aS'90120'
p771
aa(lp772
S'BORE'
p773
aS'90360'
p774
aS'90680'
p775
aa(lp776
S'UNKNOWN'
p777
aS'90800'
p778
aS'91400'
p779
aa(lp780
S'CL:Srowing++'
p781
aS'91760'
p782
aS'93000'
p783
aasg36
S'93000'
p784
sg38
Nsg39
(lp785
g753
ag757
ag761
ag765
ag769
ag773
ag777
ag781
asg41
S'I was rowing and thought it was bored.'
p786
sg43
S'87200'
p787
ssI24
(dp788
g2
(lp789
(lp790
S'SAY'
p791
aS'93200'
p792
aS'93280'
p793
aa(lp794
S'IX-1p'
p795
aS'93440'
p796
aS'93520'
p797
aa(lp798
S'BCL:4tapping person'
p799
aS'93720'
p800
aS'93880'
p801
aa(lp802
S'fs-TONY'
p803
aS'94040'
p804
aS'94840'
p805
aa(lp806
S'POSS-1p'
p807
aS'95000'
p808
aS'95080'
p809
aa(lp810
S'FRIEND'
p811
aS'95360'
p812
aS'95880'
p813
aa(lp814
g144
aS'95920'
p815
aasg36
S'95920'
p816
sg38
Nsg39
(lp817
g791
ag795
ag799
ag803
ag807
ag811
ag144
asg41
S'I tapped to my friend Tony.'
p818
sg43
S'93040'
p819
ssI25
(dp820
g2
(lp821
(lp822
S'IX-1p'
p823
aS'96040'
p824
aS'96280'
p825
aa(lp826
S'BCL:5tapping person'
p827
aS'96840'
p828
aS'97520'
p829
aa(lp830
S'THAT'
p831
aS'97760'
p832
aS'98080'
p833
aa(lp834
S'IX-3p:i'
p835
aS'98160'
p836
aS'98280'
p837
aa(lp838
S'WHITE'
p839
aS'98520'
p840
aS'98680'
p841
aa(lp842
S'WATER'
p843
aS'98760'
p844
aS'98880'
p845
aa(lp846
S'BOAT'
p847
aS'99080'
p848
aS'99680'
p849
aasg36
S'99680'
p850
sg38
Nsg39
(lp851
g823
ag827
ag831
ag835
ag839
ag843
ag847
asg41
S'I tapped and asked if that is what white water raft is all about.'
p852
sg43
S'95960'
p853
ssI26
(dp854
g2
(lp855
(lp856
S'CL:5boat floating'
p857
aS'99720'
p858
aS'99920'
p859
aa(lp860
S'CL:5waving++'
p861
aS'100160'
p862
aS'103160'
p863
aasg36
S'103160'
p864
sg38
Nsg39
(lp865
g857
ag861
asg41
S'n??'
p866
sg43
S'99720'
p867
ssI27
(dp868
g2
(lp869
(lp870
S'IX-1p'
p871
aS'103240'
p872
aS'103320'
p873
aa(lp874
S'CL:3falling out'
p875
aS'103480'
p876
aS'104600'
p877
aa(lp878
g144
aS'105120'
p879
aa(lp880
S'IX-1p'
p881
aS'105160'
p882
aS'105280'
p883
aa(lp884
S'part:indef'
p885
aS'105400'
p886
aS'106120'
p887
aasg36
S'106120'
p888
sg38
Nsg39
(lp889
g871
ag875
ag144
ag881
ag885
asg41
S'I fell off and I was overwhelming.'
p890
sg43
S'103200'
p891
ssI28
(dp892
g2
(lp893
(lp894
S'IX-1p'
p895
aS'106240'
p896
aS'106280'
p897
aa(lp898
S'LOSE'
p899
aS'106440'
p900
aS'106840'
p901
aa(lp902
S'IX-1p'
p903
aS'106960'
p904
aS'107080'
p905
aa(lp906
S'CAN-NOT'
p907
aS'107200'
p908
aS'107280'
p909
aa(lp910
S'FIND'
p911
aS'107440'
p912
aS'107600'
p913
aa(lp914
S'BOAT'
p915
aS'107760'
p916
aS'108160'
p917
aa(lp918
g144
aS'109080'
p919
aasg36
S'109160'
p920
sg38
Nsg39
(lp921
g895
ag899
ag903
ag907
ag911
ag915
ag144
asg41
S'I get lost and can not find the boat.'
p922
sg43
S'106160'
p923
ssI29
(dp924
g2
(lp925
(lp926
S'IX-1p'
p927
aS'109320'
p928
aS'109400'
p929
aa(lp930
S'waving'
p931
aS'109640'
p932
aS'110680'
p933
aa(lp934
S'BOAT'
p935
aS'110840'
p936
aS'111000'
p937
aa(lp938
S'GET'
p939
aS'112200'
p940
aS'112400'
p941
aa(lp942
S'IX-1p'
p943
aS'112480'
p944
aS'112680'
p945
aasg36
S'112680'
p946
sg38
Nsg39
(lp947
g927
ag931
ag935
ag939
ag943
asg41
S'I waved at the boat and they came to get me.'
p948
sg43
S'109200'
p949
ssI30
(dp950
g2
(lp951
(lp952
S'AND'
p953
aS'112720'
p954
aS'112800'
p955
aa(lp956
S'ANOTHER'
p957
aS'112960'
p958
aS'113160'
p959
aa(lp960
S'MAN'
p961
aS'113400'
p962
aS'113600'
p963
aa(lp964
S'fs-MIKE'
p965
aS'113760'
p966
aS'114360'
p967
aa(lp968
S'fs-DAISY'
p969
aS'114480'
p970
aS'115440'
p971
aa(lp972
S'IX-3p:i'
p973
aS'115520'
p974
aS'115640'
p975
aa(lp976
S'CL:3falling off'
p977
aS'115720'
p978
aS'116240'
p979
aa(lp980
S'WITH'
p981
aS'116440'
p982
aS'116560'
p983
aa(lp984
S'IX-1p'
p985
aS'116640'
p986
aS'116840'
p987
aa(lp988
S'(2h)CL:3falling off'
p989
aS'116960'
p990
aS'117760'
p991
aasg36
S'117760'
p992
sg38
Nsg39
(lp993
g953
ag957
ag961
ag965
ag969
ag973
ag977
ag981
ag985
ag989
asg41
S'And another guy named Mike Daisy who also fell off with me.'
p994
sg43
S'112720'
p995
ssI31
(dp996
g2
(lp997
(lp998
S'IX-1p'
p999
aS'117920'
p1000
aS'118120'
p1001
aa(lp1002
S'part:indef'
p1003
aS'118240'
p1004
aS'118480'
p1005
aa(lp1006
S'IX-3p:i'
p1007
aS'118920'
p1008
aS'119080'
p1009
aa(lp1010
S'CL:Spulling person out'
p1011
aS'119360'
p1012
aS'120000'
p1013
aa(lp1014
S'IX-1p'
p1015
aS'120120'
p1016
aS'120200'
p1017
aa(lp1018
S'IN'
p1019
aS'120360'
p1020
aS'120480'
p1021
aa(lp1022
S'ON'
p1023
aS'120720'
p1024
aS'120800'
p1025
aa(lp1026
S'BOAT'
p1027
aS'121000'
p1028
aS'121560'
p1029
aasg36
S'121600'
p1030
sg38
Nsg39
(lp1031
g999
ag1003
ag1007
ag1011
ag1015
ag1019
ag1023
ag1027
asg41
S'They pulled me into the boat.'
p1032
sg43
S'117800'
p1033
ssI32
(dp1034
g2
(lp1035
(lp1036
S'IX-1p'
p1037
aS'121720'
p1038
aS'121800'
p1039
aa(lp1040
S'CL:3sitting on++'
p1041
aS'122040'
p1042
aS'122560'
p1043
aa(lp1044
S'IX-1p'
p1045
aS'122640'
p1046
aS'122840'
p1047
aa(lp1048
S'UNKNOWN'
p1049
aS'122920'
p1050
aS'123160'
p1051
aasg36
S'123160'
p1052
sg38
Nsg39
(lp1053
g1037
ag1041
ag1045
ag1049
asg41
S'I got back to sit down.'
p1054
sg43
S'121640'
p1055
ssI33
(dp1056
g2
(lp1057
(lp1058
S'IX-1p'
p1059
aS'123280'
p1060
aS'123360'
p1061
aa(lp1062
S'REALIZE'
p1063
aS'123520'
p1064
aS'123840'
p1065
aa(lp1066
S'UNKNOWN'
p1067
aS'123920'
p1068
aS'124200'
p1069
aa(lp1070
S'SERIOUS'
p1071
aS'124320'
p1072
aS'124640'
p1073
aa(lp1074
S'UNKNOWN'
p1075
aS'124760'
p1076
aS'124880'
p1077
aa(lp1078
S'SERIOUS'
p1079
aS'124960'
p1080
aS'125080'
p1081
aa(lp1082
S'BUSINESS'
p1083
aS'125200'
p1084
aS'125480'
p1085
aa(lp1086
S'UNKNOWN'
p1087
aS'125560'
p1088
aS'125800'
p1089
aasg36
S'125800'
p1090
sg38
Nsg39
(lp1091
g1059
ag1063
ag1067
ag1071
ag1075
ag1079
ag1083
ag1087
asg41
S'I realized its a serious business.'
p1092
sg43
S'123200'
p1093
ssI34
(dp1094
g2
(lp1095
(lp1096
S'IX-1p'
p1097
aS'125960'
p1098
aS'126040'
p1099
aa(lp1100
S'fs-FOOT'
p1101
aS'126360'
p1102
aS'126720'
p1103
aa(lp1104
S'BPCL:4foot under the object'
p1105
aS'127000'
p1106
aS'127800'
p1107
aa(lp1108
S'MAKE'
p1109
aS'128040'
p1110
aS'128120'
p1111
aa(lp1112
S'SURE'
p1113
aS'128200'
p1114
aS'128320'
p1115
aa(lp1116
S'IX-1p'
p1117
aS'128400'
p1118
aS'128480'
p1119
aa(lp1120
S'REFUSE'
p1121
aS'128520'
p1122
aS'128560'
p1123
aa(lp1124
S'FALL'
p1125
aS'128640'
p1126
aS'128960'
p1127
aa(lp1128
S'AGAIN'
p1129
aS'129080'
p1130
aS'129280'
p1131
aa(lp1132
S'BPCL:4foot under the object'
p1133
aS'129360'
p1134
aS'130000'
p1135
aasg36
S'130000'
p1136
sg38
Nsg39
(lp1137
g1097
ag1101
ag1105
ag1109
ag1113
ag1117
ag1121
ag1125
ag1129
ag1133
asg41
S"I had to put my foot under the seat so I won't fall again."
p1138
sg43
S'125840'
p1139
ssI35
(dp1140
g2
(lp1141
(lp1142
S'BCL:Srowing++'
p1143
aS'130160'
p1144
aS'131120'
p1145
aa(lp1146
S'CL:4waving++'
p1147
aS'131240'
p1148
aS'132280'
p1149
aa(lp1150
S'SOME'
p1151
aS'132480'
p1152
aS'132640'
p1153
aa(lp1154
S'CL:3falling off++'
p1155
aS'132760'
p1156
aS'134720'
p1157
aa(lp1158
S'UNKNOWN'
p1159
aS'135000'
p1160
aS'135400'
p1161
aasg36
S'135400'
p1162
sg38
Nsg39
(lp1163
g1143
ag1147
ag1151
ag1155
ag1159
asg41
S'There was waving while we were rowing, and people fell off the raft.'
p1164
sg43
S'130040'
p1165
ssI36
(dp1166
g2
(lp1167
(lp1168
S'#FUN'
p1169
aS'135520'
p1170
aS'135840'
p1171
aa(lp1172
S'GOOD'
p1173
aS'135960'
p1174
aS'136120'
p1175
aa(lp1176
S'TIME'
p1177
aS'136280'
p1178
aS'136480'
p1179
aa(lp1180
S'ALL-DAY'
p1181
aS'136640'
p1182
aS'137280'
p1183
aa(lp1184
S'BREAK'
p1185
aS'137720'
p1186
aS'137880'
p1187
aasg36
S'137880'
p1188
sg38
Nsg39
(lp1189
g1169
ag1173
ag1177
ag1181
ag1185
asg41
S'It was fun all day and we had a good time.  Then we decided to take a break.'
p1190
sg43
S'135440'
p1191
ssI37
(dp1192
g2
(lp1193
(lp1194
S'HAVE'
p1195
aS'138040'
p1196
aS'138240'
p1197
aa(lp1198
S'EAT'
p1199
aS'138320'
p1200
aS'138600'
p1201
aa(lp1202
S'NOON'
p1203
aS'138640'
p1204
aS'138800'
p1205
aa(lp1206
S'BREAK'
p1207
aS'139000'
p1208
aS'139600'
p1209
aa(lp1210
S'IX-1p'
p1211
aS'139720'
p1212
aS'139880'
p1213
aa(lp1214
S'CL:5pulling over'
p1215
aS'140000'
p1216
aS'140440'
p1217
aasg36
S'140440'
p1218
sg38
Nsg39
(lp1219
g1195
ag1199
ag1203
ag1207
ag1211
ag1215
asg41
S'We have a lunch break to eat so we pulled over.'
p1220
sg43
S'137920'
p1221
ssI38
(dp1222
g2
(lp1223
(lp1224
S'HAVE'
p1225
aS'140600'
p1226
aS'140800'
p1227
aa(lp1228
S'STEAK'
p1229
aS'141000'
p1230
aS'141400'
p1231
aa(lp1232
S'#OR'
p1233
aS'141560'
p1234
aS'141640'
p1235
aa(lp1236
S'CHICKEN'
p1237
aS'141760'
p1238
aS'142160'
p1239
aa(lp1240
S'CHOICE'
p1241
aS'142360'
p1242
aS'143000'
p1243
aasg36
S'143000'
p1244
sg38
Nsg39
(lp1245
g1225
ag1229
ag1233
ag1237
ag1241
asg41
S'There was two choice to pick, steak or chicken.'
p1246
sg43
S'140480'
p1247
ssI39
(dp1248
g2
(lp1249
(lp1250
S'IX-1p'
p1251
aS'143240'
p1252
aS'143360'
p1253
aa(lp1254
S'GO'
p1255
aS'143480'
p1256
aS'143640'
p1257
aa(lp1258
S'FOR'
p1259
aS'143720'
p1260
aS'143840'
p1261
aa(lp1262
S'STEAK'
p1263
aS'144000'
p1264
aS'144400'
p1265
aa(lp1266
S'IX-1p'
p1267
aS'144560'
p1268
aS'144840'
p1269
aa(lp1270
S'KISS'
p1271
aS'145000'
p1272
aS'145120'
p1273
aa(lp1274
S'STEAK'
p1275
aS'145240'
p1276
aS'145480'
p1277
aa(lp1278
S'IX-1p'
p1279
aS'145600'
p1280
aS'146040'
p1281
aa(lp1282
S'IX-1p'
p1283
aS'146120'
p1284
aS'146200'
p1285
aa(lp1286
S'GRAB'
p1287
aS'146360'
p1288
aS'146680'
p1289
aa(lp1290
S'EAT'
p1291
aS'146840'
p1292
aS'147360'
p1293
aasg36
S'147440'
p1294
sg38
Nsg39
(lp1295
g1251
ag1255
ag1259
ag1263
ag1267
ag1271
ag1275
ag1279
ag1283
ag1287
ag1291
asg41
S'I decided to go for steak.  I love steak myself so I thought why not eat steak.'
p1296
sg43
S'143080'
p1297
ssI40
(dp1298
g2
(lp1299
(lp1300
S'CL:5etc'
p1301
aS'147560'
p1302
aS'148000'
p1303
aa(lp1304
S'FINISH'
p1305
aS'148360'
p1306
aS'148600'
p1307
aa(lp1308
S'CL:2sitting on'
p1309
aS'148800'
p1310
aS'149120'
p1311
aa(lp1312
S'ON'
p1313
aS'149200'
p1314
aS'149320'
p1315
aa(lp1316
S'fs-RAFT'
p1317
aS'149440'
p1318
aS'150040'
p1319
aa(lp1320
S'AGAIN'
p1321
aS'150280'
p1322
aS'150680'
p1323
aasg36
S'150680'
p1324
sg38
Nsg39
(lp1325
g1301
ag1305
ag1309
ag1313
ag1317
ag1321
asg41
S'We went to sit on the raft again.'
p1326
sg43
S'147480'
p1327
ssI41
(dp1328
g2
(lp1329
(lp1330
S'CL:5vehicle motion'
p1331
aS'150920'
p1332
aS'151560'
p1333
aa(lp1334
S'IX-3p:i'
p1335
aS'151840'
p1336
aS'152240'
p1337
aa(lp1338
g144
aS'152960'
p1339
aa(lp1340
S'MAN'
p1341
aS'153080'
p1342
aS'153360'
p1343
aa(lp1344
S'WHO'
p1345
aS'153440'
p1346
aS'153560'
p1347
aa(lp1348
S'LEAD'
p1349
aS'153720'
p1350
aS'154120'
p1351
aa(lp1352
S'IX-3p-arc'
p1353
aS'154240'
p1354
aS'154400'
p1355
aasg36
S'154400'
p1356
sg38
Nsg39
(lp1357
g1331
ag1335
ag144
ag1341
ag1345
ag1349
ag1353
asg41
S'While the raft was moving, the man behind us is our leader.'
p1358
sg43
S'150720'
p1359
ssI42
(dp1360
g2
(lp1361
(lp1362
S'THUMB-IX-3p-i'
p1363
aS'154520'
p1364
aS'154920'
p1365
aa(lp1366
S'WARN'
p1367
aS'155080'
p1368
aS'155560'
p1369
aa(lp1370
S'SAY'
p1371
aS'155760'
p1372
aS'155960'
p1373
aa(lp1374
S'LATER'
p1375
aS'156280'
p1376
aS'156600'
p1377
aa(lp1378
S'IX-3p:j'
p1379
aS'156720'
p1380
aS'156960'
p1381
aa(lp1382
S'TOUGH'
p1383
aS'157120'
p1384
aS'157840'
p1385
aasg36
S'157840'
p1386
sg38
Nsg39
(lp1387
g1363
ag1367
ag1371
ag1375
ag1379
ag1383
asg41
S'He warned us that later will be tougher.'
p1388
sg43
S'154440'
p1389
ssI43
(dp1390
g2
(lp1391
(lp1392
S'REALLY'
p1393
aS'157960'
p1394
aS'158040'
p1395
aa(lp1396
S'EXPECT'
p1397
aS'158120'
p1398
aS'158560'
p1399
aa(lp1400
S'MANY'
p1401
aS'159080'
p1402
aS'159400'
p1403
aa(lp1404
S'IX-3p-arc'
p1405
aS'159480'
p1406
aS'159640'
p1407
aa(lp1408
S'FALL'
p1409
aS'159880'
p1410
aS'160520'
p1411
aasg36
S'160520'
p1412
sg38
Nsg39
(lp1413
g1393
ag1397
ag1401
ag1405
ag1409
asg41
S'He expected for us all to fall.'
p1414
sg43
S'157880'
p1415
ssI44
(dp1416
g2
(lp1417
(lp1418
S'IX-1p'
p1419
aS'160680'
p1420
aS'160840'
p1421
aa(lp1422
S'LOOK'
p1423
aS'160960'
p1424
aS'161880'
p1425
aa(lp1426
g144
aS'161960'
p1427
aa(lp1428
S'#OK'
p1429
aS'162040'
p1430
aS'162240'
p1431
aa(lp1432
S'FINE'
p1433
aS'162320'
p1434
aS'163160'
p1435
aasg36
S'163160'
p1436
sg38
Nsg39
(lp1437
g1419
ag1423
ag144
ag1429
ag1433
asg41
S'I looked at him and said ok, that is fine.'
p1438
sg43
S'160560'
p1439
ssI45
(dp1440
g2
(lp1441
(lp1442
S'IX-1p'
p1443
aS'168440'
p1444
aS'168720'
p1445
aa(lp1446
S'BCL:Sholding the stick'
p1447
aS'169000'
p1448
aS'169240'
p1449
aa(lp1450
g144
aS'170160'
p1451
aa(lp1452
S'EXPECT'
p1453
aS'170360'
p1454
aS'170680'
p1455
aa(lp1456
S'FALL'
p1457
aS'170800'
p1458
aS'171120'
p1459
aa(lp1460
S'IX-1p'
p1461
aS'171280'
p1462
aS'171360'
p1463
aa(lp1464
S'BCL:Sholding the stick'
p1465
aS'171440'
p1466
aS'172040'
p1467
aasg36
S'172040'
p1468
sg38
Nsg39
(lp1469
g1443
ag1447
ag144
ag1453
ag1457
ag1461
ag1465
asg41
S'I was holding the stick and expected to fall.'
p1470
sg43
S'168320'
p1471
ssI46
(dp1472
g2
(lp1473
(lp1474
S'REALLY'
p1475
aS'173880'
p1476
aS'173960'
p1477
aa(lp1478
S'MANY'
p1479
aS'174120'
p1480
aS'174360'
p1481
aa(lp1482
S'FALL++'
p1483
aS'174480'
p1484
aS'175840'
p1485
aasg36
S'175840'
p1486
sg38
Nsg39
(lp1487
g1475
ag1479
ag1483
asg41
S'We went down and many people fell off.'
p1488
sg43
S'172080'
p1489
ssI47
(dp1490
g2
(lp1491
(lp1492
S'LEAVE'
p1493
aS'176040'
p1494
aS'176440'
p1495
aa(lp1496
S'IX-1p'
p1497
aS'176680'
p1498
aS'176800'
p1499
aa(lp1500
S'ns-MIKE'
p1501
aS'177000'
p1502
aS'177400'
p1503
aa(lp1504
S'ns-DAISY'
p1505
aS'177560'
p1506
aS'178520'
p1507
aa(lp1508
S'SARCASM'
p1509
aS'178640'
p1510
aS'179240'
p1511
aa(lp1512
g144
aS'179880'
p1513
aa(lp1514
S'STRANGE'
p1515
aS'180160'
p1516
aS'180320'
p1517
aasg36
S'180320'
p1518
sg38
Nsg39
(lp1519
g1493
ag1497
ag1501
ag1505
ag1509
ag144
ag1515
asg41
S'The only left was me and Mike Daisy.  I think it is sarcasm that it was just two of us.  It is strange.'
p1520
sg43
S'175880'
p1521
ssI48
(dp1522
g2
(lp1523
(lp1524
S'SARCASM'
p1525
aS'180440'
p1526
aS'181560'
p1527
aa(lp1528
g144
aS'181800'
p1529
aa(lp1530
S'FALL'
p1531
aS'182000'
p1532
aS'182680'
p1533
aa(lp1534
S'PAST'
p1535
aS'182800'
p1536
aS'183480'
p1537
aasg36
S'183480'
p1538
sg38
Nsg39
(lp1539
g1525
ag144
ag1531
ag1535
asg41
S'It was sarcasm because we both fell before.'
p1540
sg43
S'180360'
p1541
ssI49
(dp1542
g2
(lp1543
(lp1544
S'BUT'
p1545
aS'183680'
p1546
aS'183920'
p1547
aa(lp1548
S'IX-3p-pl-2:x/y'
p1549
aS'184240'
p1550
aS'184640'
p1551
aa(lp1552
S'STILL'
p1553
aS'184800'
p1554
aS'185560'
p1555
aa(lp1556
S'part:indef'
p1557
aS'185800'
p1558
aS'186240'
p1559
aa(lp1560
S'LIVE'
p1561
aS'186360'
p1562
aS'186720'
p1563
aa(lp1564
S'THAT'
p1565
aS'186840'
p1566
aS'187120'
p1567
aa(lp1568
S'CL:5falling'
p1569
aS'187440'
p1570
aS'187720'
p1571
aasg36
S'187840'
p1572
sg38
Nsg39
(lp1573
g1545
ag1549
ag1553
ag1557
ag1561
ag1565
ag1569
asg41
S'But, we both were still alive from that kind of fall.'
p1574
sg43
S'183520'
p1575
ssI50
(dp1576
g2
(lp1577
(lp1578
S'IX-1p'
p1579
aS'187960'
p1580
aS'188240'
p1581
aa(lp1582
S'BCL:Sgrabbing person++'
p1583
aS'188800'
p1584
aS'189960'
p1585
aa(lp1586
g144
aS'190120'
p1587
aasg36
S'190120'
p1588
sg38
Nsg39
(lp1589
g1579
ag1583
ag144
asg41
S'I had to grab all people.'
p1590
sg43
S'187880'
p1591
ssI51
(dp1592
g2
(lp1593
(lp1594
S'REALLY'
p1595
aS'190280'
p1596
aS'190360'
p1597
aa(lp1598
S'ONE'
p1599
aS'190560'
p1600
aS'190760'
p1601
aa(lp1602
S'eee'
p1603
aS'190920'
p1604
aS'191280'
p1605
aa(lp1606
S'ONE'
p1607
aS'191400'
p1608
aS'191560'
p1609
aa(lp1610
S'WOMAN'
p1611
aS'191640'
p1612
aS'192240'
p1613
aa(lp1614
S'IX-3p'
p1615
aS'192360'
p1616
aS'192560'
p1617
aa(lp1618
S'RIDE'
p1619
aS'192880'
p1620
aS'193120'
p1621
aa(lp1622
S'WITH'
p1623
aS'193240'
p1624
aS'193360'
p1625
aa(lp1626
S'IX-3p-arc'
p1627
aS'193480'
p1628
aS'193960'
p1629
aasg36
S'193960'
p1630
sg38
Nsg39
(lp1631
g1595
ag1599
ag1603
ag1607
ag1611
ag1615
ag1619
ag1623
ag1627
asg41
S'One woman who was riding with us.'
p1632
sg43
S'190160'
p1633
ssI52
(dp1634
g2
(lp1635
(lp1636
S'STUCK'
p1637
aS'194240'
p1638
aS'194640'
p1639
aa(lp1640
S'UNDER'
p1641
aS'194800'
p1642
aS'195560'
p1643
aa(lp1644
S'BOAT'
p1645
aS'195760'
p1646
aS'196200'
p1647
aa(lp1648
g144
aS'196440'
p1649
aa(lp1650
S'CAN-NOT'
p1651
aS'196560'
p1652
aS'196720'
p1653
aa(lp1654
S'BREATH'
p1655
aS'196800'
p1656
aS'197240'
p1657
aa(lp1658
S'FOR'
p1659
aS'197360'
p1660
aS'197480'
p1661
aa(lp1662
S'A-WHILE'
p1663
aS'197600'
p1664
aS'198200'
p1665
aasg36
S'198200'
p1666
sg38
Nsg39
(lp1667
g1637
ag1641
ag1645
ag144
ag1651
ag1655
ag1659
ag1663
asg41
S'She was stuck under the boat and could not breath for a while.'
p1668
sg43
S'194000'
p1669
ssI53
(dp1670
g2
(lp1671
(lp1672
S'IX-1p'
p1673
aS'198360'
p1674
aS'198640'
p1675
aa(lp1676
S'BCL:5grabbing person'
p1677
aS'199320'
p1678
aS'199640'
p1679
aa(lp1680
S'FIND'
p1681
aS'199760'
p1682
aS'199920'
p1683
aa(lp1684
S'#HER'
p1685
aS'200040'
p1686
aS'200360'
p1687
aa(lp1688
g144
aS'200400'
p1689
aasg36
S'200400'
p1690
sg38
Nsg39
(lp1691
g1673
ag1677
ag1681
ag1685
ag144
asg41
S'I found and grabbed her.'
p1692
sg43
S'198240'
p1693
ssI54
(dp1694
g2
(lp1695
(lp1696
S'BCL:Sgiving the stick to person'
p1697
aS'200480'
p1698
aS'201160'
p1699
aa(lp1700
S'GIFT'
p1701
aS'201280'
p1702
aS'201400'
p1703
aa(lp1704
S'POSS-1p'
p1705
aS'201520'
p1706
aS'201680'
p1707
aa(lp1708
S'ROW'
p1709
aS'201800'
p1710
aS'202200'
p1711
aa(lp1712
S'fs-POLE'
p1713
aS'202320'
p1714
aS'202880'
p1715
aa(lp1716
S'BCLSgiving the stick to person'
p1717
aS'203080'
p1718
aS'203120'
p1719
aasg36
S'203120'
p1720
sg38
Nsg39
(lp1721
g1697
ag1701
ag1705
ag1709
ag1713
ag1717
asg41
S'I gave her my rowing stick.'
p1722
sg43
S'200440'
p1723
ssI55
(dp1724
g2
(lp1725
(lp1726
S'BCL:Sgiving the stick to person'
p1727
aS'203160'
p1728
aS'203840'
p1729
aa(lp1730
S'PULL'
p1731
aS'204040'
p1732
aS'204720'
p1733
aa(lp1734
S'GRAB'
p1735
aS'205200'
p1736
aS'205520'
p1737
aa(lp1738
S'PULL'
p1739
aS'205800'
p1740
aS'206920'
p1741
aasg36
S'206920'
p1742
sg38
Nsg39
(lp1743
g1727
ag1731
ag1735
ag1739
asg41
S'I gave her my stick and pull her in.'
p1744
sg43
S'203160'
p1745
ssI56
(dp1746
g2
(lp1747
(lp1748
S'IX-3p:i'
p1749
aS'206960'
p1750
aS'207080'
p1751
aa(lp1752
S'COUGH++'
p1753
aS'207240'
p1754
aS'208160'
p1755
aa(lp1756
S'THINK'
p1757
aS'208360'
p1758
aS'208560'
p1759
aa(lp1760
S'MAYBE'
p1761
aS'208680'
p1762
aS'208760'
p1763
aa(lp1764
S'MUST'
p1765
aS'208880'
p1766
aS'209000'
p1767
aa(lp1768
S'DO'
p1769
aS'209080'
p1770
aS'209200'
p1771
aa(lp1772
S'fs-CPR'
p1773
aS'209400'
p1774
aS'210000'
p1775
aa(lp1776
S'ON'
p1777
aS'210200'
p1778
aS'210400'
p1779
aa(lp1780
S'IX-3p:i'
p1781
aS'210600'
p1782
aS'210920'
p1783
aasg36
S'210920'
p1784
sg38
Nsg39
(lp1785
g1749
ag1753
ag1757
ag1761
ag1765
ag1769
ag1773
ag1777
ag1781
asg41
S'She was coughing occasionally and I thought maybe I will have to do CPR on her.'
p1786
sg43
S'206960'
p1787
ssI57
(dp1788
g2
(lp1789
(lp1790
S'BUT'
p1791
aS'211120'
p1792
aS'211280'
p1793
aa(lp1794
S'UNKNOWN'
p1795
aS'211360'
p1796
aS'211880'
p1797
aa(lp1798
S'REALLY'
p1799
aS'212080'
p1800
aS'212320'
p1801
aa(lp1802
S'SPIT++'
p1803
aS'212480'
p1804
aS'213200'
p1805
aa(lp1806
S'WATER'
p1807
aS'213320'
p1808
aS'213600'
p1809
aa(lp1810
S'gagging'
p1811
aS'213680'
p1812
aS'214280'
p1813
aasg36
S'214520'
p1814
sg38
Nsg39
(lp1815
g1791
ag1795
ag1799
ag1803
ag1807
ag1811
asg41
S'But, she was gagging and spitting.'
p1816
sg43
S'210960'
p1817
ssI58
(dp1818
g2
(lp1819
(lp1820
S'THROW'
p1821
aS'214680'
p1822
aS'215040'
p1823
aa(lp1824
S'A-LITTLE'
p1825
aS'215200'
p1826
aS'215800'
p1827
aa(lp1828
S'FINISH'
p1829
aS'216040'
p1830
aS'216280'
p1831
aa(lp1832
S'part:indef'
p1833
aS'216600'
p1834
aS'216920'
p1835
aa(lp1836
S'REALLY'
p1837
aS'217040'
p1838
aS'217120'
p1839
aa(lp1840
S'NOTHING'
p1841
aS'217200'
p1842
aS'217440'
p1843
aa(lp1844
S'COLD'
p1845
aS'217640'
p1846
aS'218000'
p1847
aa(lp1848
S'CL:2quotation'
p1849
aS'218120'
p1850
aS'218360'
p1851
aa(lp1852
S'CONCEPT'
p1853
aS'218600'
p1854
aS'218880'
p1855
aa(lp1856
S'CL:1spitting out'
p1857
aS'219040'
p1858
aS'219720'
p1859
aa(lp1860
S'UNKNOWN'
p1861
aS'219920'
p1862
aS'220120'
p1863
aasg36
S'220640'
p1864
sg38
Nsg39
(lp1865
g1821
ag1825
ag1829
ag1833
ag1837
ag1841
ag1845
ag1849
ag1853
ag1857
ag1861
asg41
S'She threw up a little, really, I dont think its nothing big.'
p1866
sg43
S'214560'
p1867
ssI59
(dp1868
g2
(lp1869
(lp1870
S'REALLY'
p1871
aS'221360'
p1872
aS'221480'
p1873
aa(lp1874
S'EVERYTHING'
p1875
aS'221640'
p1876
aS'221880'
p1877
aa(lp1878
S'FINE'
p1879
aS'222000'
p1880
aS'222320'
p1881
aa(lp1882
S'IX-3p:i'
p1883
aS'222400'
p1884
aS'222600'
p1885
aa(lp1886
g144
aS'222720'
p1887
aa(lp1888
S'GIRL'
p1889
aS'222800'
p1890
aS'222960'
p1891
aa(lp1892
S'WORRY'
p1893
aS'223080'
p1894
aS'223640'
p1895
aa(lp1896
S'UNKNOWN'
p1897
aS'223720'
p1898
aS'223840'
p1899
aasg36
S'223920'
p1900
sg38
Nsg39
(lp1901
g1871
ag1875
ag1879
ag1883
ag144
ag1889
ag1893
ag1897
asg41
S'Everything is fine and the girl was worrying.'
p1902
sg43
S'220680'
p1903
ssI60
(dp1904
g2
(lp1905
(lp1906
S'IX-1p'
p1907
aS'224040'
p1908
aS'224160'
p1909
aa(lp1910
g144
aS'224240'
p1911
aa(lp1912
S'ARRIVE'
p1913
aS'224320'
p1914
aS'225000'
p1915
aa(lp1916
S'UNKNOWN'
p1917
aS'225080'
p1918
aS'225440'
p1919
aa(lp1920
g144
aS'225480'
p1921
aasg36
S'225480'
p1922
sg38
Nsg39
(lp1923
g1907
ag144
ag1913
ag1917
ag144
asg41
S'I arrived.'
p1924
sg43
S'223960'
p1925
ssI61
(dp1926
g2
(lp1927
(lp1928
S'IX-1p'
p1929
aS'225600'
p1930
aS'225680'
p1931
aa(lp1932
S'CALL'
p1933
aS'225840'
p1934
aS'226000'
p1935
aa(lp1936
S'#IT'
p1937
aS'226080'
p1938
aS'226240'
p1939
aa(lp1940
S'fs-DAY'
p1941
aS'226360'
p1942
aS'226920'
p1943
aa(lp1944
S'FINISH'
p1945
aS'227040'
p1946
aS'227560'
p1947
aa(lp1948
g144
aS'228040'
p1949
aa(lp1950
S'CL:3pulling over'
p1951
aS'228320'
p1952
aS'228960'
p1953
aasg36
S'228960'
p1954
sg38
Nsg39
(lp1955
g1929
ag1933
ag1937
ag1941
ag1945
ag144
ag1951
asg41
S'I called it the day.  We finished and pulled over.'
p1956
sg43
S'225520'
p1957
ssI62
(dp1958
g2
(lp1959
(lp1960
S'CL:2sitting on'
p1961
aS'229320'
p1962
aS'229520'
p1963
aa(lp1964
S'ON'
p1965
aS'229640'
p1966
aS'229760'
p1967
aa(lp1968
S'#BUS'
p1969
aS'229840'
p1970
aS'230240'
p1971
aa(lp1972
S'CL:Cvehicle motion'
p1973
aS'230600'
p1974
aS'231560'
p1975
aa(lp1976
S'ARRIVE'
p1977
aS'231760'
p1978
aS'231960'
p1979
aa(lp1980
S'CAMP'
p1981
aS'232120'
p1982
aS'232800'
p1983
aa(lp1984
g144
aS'232840'
p1985
aa(lp1986
S'GROUND'
p1987
aS'232920'
p1988
aS'233720'
p1989
aasg36
S'233720'
p1990
sg38
Nsg39
(lp1991
g1961
ag1965
ag1969
ag1973
ag1977
ag1981
ag144
ag1987
asg41
S'We went back on the bus and arrived camping ground.'
p1992
sg43
S'229000'
p1993
ssI63
(dp1994
g2
(lp1995
(lp1996
S'MOST'
p1997
aS'233960'
p1998
aS'234120'
p1999
aa(lp2000
S'IX-1p-arc'
p2001
aS'234240'
p2002
aS'234480'
p2003
aa(lp2004
S'SIT'
p2005
aS'234600'
p2006
aS'234880'
p2007
aa(lp2008
S'ON'
p2009
aS'235040'
p2010
aS'235200'
p2011
aa(lp2012
S'fs-SPA'
p2013
aS'235360'
p2014
aS'236440'
p2015
aasg36
S'236440'
p2016
sg38
Nsg39
(lp2017
g1997
ag2001
ag2005
ag2009
ag2013
asg41
S'Most of us were sitting in SPA.'
p2018
sg43
S'233760'
p2019
ssI64
(dp2020
g2
(lp2021
(lp2022
S'SIT'
p2023
aS'236880'
p2024
aS'237360'
p2025
aa(lp2026
S'UNKNOWN'
p2027
aS'237440'
p2028
aS'237560'
p2029
aa(lp2030
S'RELAX'
p2031
aS'237840'
p2032
aS'238480'
p2033
aa(lp2034
S'sign'
p2035
aS'238880'
p2036
aS'239560'
p2037
aasg36
S'241320'
p2038
sg38
Nsg39
(lp2039
g2023
ag2027
ag2031
ag2035
asg41
S'We sat in and felt relax.  SIGH.'
p2040
sg43
S'236480'
p2041
ss.