(dp0
I0
(dp1
S'Annotated'
p2
(lp3
(lp4
S'MOTHER'
p5
aS'440'
p6
aS'500'
p7
aa(lp8
S'LIKE'
p9
aS'560'
p10
aS'620'
p11
aa(lp12
S'IX-3p:i'
p13
aS'700'
p14
aS'740'
p15
aa(lp16
S'MOVIE'
p17
aS'920'
p18
aS'1040'
p19
aasS'EndFrame'
p20
S'1240'
p21
sS'Video'
p22
S'765_574_master_small.mov'
p23
sS'Words'
p24
(lp25
g5
ag9
ag13
ag17
asS'English'
p26
S'Mother likes the movie.'
p27
sS'StartFrame'
p28
S'340'
p29
ssI1
(dp30
g2
(lp31
(lp32
S'MOTHER'
p33
aS'200'
p34
aS'240'
p35
aa(lp36
S'LIKE'
p37
aS'300'
p38
aS'340'
p39
aa(lp40
S'IX-3p:i'
p41
aS'400'
p42
aS'440'
p43
aa(lp44
S'BOOK'
p45
aS'560'
p46
aS'720'
p47
aasg20
S'820'
p48
sg22
S'767_576_master_small.mov'
p49
sg24
(lp50
g33
ag37
ag41
ag45
asg26
S'Mother likes that book.'
p51
sg28
S'140'
p52
ssI2
(dp53
g2
(lp54
(lp55
S'MOTHER'
p56
aS'480'
p57
aS'520'
p58
aa(lp59
S'IX-3p:j'
p60
aS'600'
p61
aS'600'
p62
aa(lp63
S'NOT'
p64
aS'660'
p65
aS'720'
p66
aa(lp67
S'LIKE'
p68
aS'780'
p69
aS'820'
p70
aa(lp71
S'IX-3p:i'
p72
aS'840'
p73
aS'880'
p74
aa(lp75
S'MOVIE'
p76
aS'1080'
p77
aS'1100'
p78
aa(lp79
S'IX-3p:j'
p80
aS'1180'
p81
aS'1180'
p82
aasg20
S'1400'
p83
sg22
S'768_577_master_small.mov'
p84
sg24
(lp85
g56
ag60
ag64
ag68
ag72
ag76
ag80
asg26
S'Mother does not like the movie.'
p86
sg28
S'320'
p87
ssI3
(dp88
g2
(lp89
(lp90
S'fs-JOHN'
p91
aS'240'
p92
aS'360'
p93
aa(lp94
S'FUTURE^NOT'
p95
aS'500'
p96
aS'620'
p97
aa(lp98
S'LIKE'
p99
aS'680'
p100
aS'720'
p101
aa(lp102
S'IX-3p:i'
p103
aS'800'
p104
aS'840'
p105
aa(lp106
S'MOVIE'
p107
aS'980'
p108
aS'1000'
p109
aa(lp110
S'IX-3p:i'
p111
aS'1040'
p112
aS'1060'
p113
aasg20
S'1420'
p114
sg22
S'769_578_master_small.mov'
p115
sg24
(lp116
g91
ag95
ag99
ag103
ag107
ag111
asg26
S'John will not like the movie.'
p117
sg28
S'160'
p118
ssI4
(dp119
g2
(lp120
(lp121
S'FATHER'
p122
aS'280'
p123
aS'380'
p124
aa(lp125
S'FUTURE'
p126
aS'400'
p127
aS'560'
p128
aa(lp129
S'LIKE'
p130
aS'640'
p131
aS'680'
p132
aa(lp133
S'THAT:i'
p134
aS'780'
p135
aS'800'
p136
aa(lp137
S'BOOK'
p138
aS'860'
p139
aS'900'
p140
aa(lp141
S'IX-loc:i'
p142
aS'960'
p143
aS'1020'
p144
aasg20
S'1180'
p145
sg22
S'770_579_master_small.mov'
p146
sg24
(lp147
g122
ag126
ag130
ag134
ag138
ag142
asg26
S'Father will like that book there.'
p148
sg28
S'180'
p149
ssI5
(dp150
g2
(lp151
(lp152
S'FATHER'
p153
aS'600'
p154
aS'620'
p155
aa(lp156
S'FUTURE'
p157
aS'700'
p158
aS'740'
p159
aa(lp160
S'LIKE'
p161
aS'800'
p162
aS'840'
p163
aa(lp164
S'THAT:i'
p165
aS'900'
p166
aS'920'
p167
aa(lp168
S'BOOK'
p169
aS'1000'
p170
aS'1020'
p171
aa(lp172
S'IX-loc:i'
p173
aS'1060'
p174
aS'1080'
p175
aa(lp176
S'QMwg'
p177
aS'1180'
p178
aS'1400'
p179
aasg20
S'1740'
p180
sg22
S'771_580_master_small.mov'
p181
sg24
(lp182
g153
ag157
ag161
ag165
ag169
ag173
ag177
asg26
S'Will father like that book?'
p183
sg28
S'180'
p184
ssI6
(dp185
g2
(lp186
(lp187
S'FATHER'
p188
aS'400'
p189
aS'420'
p190
aa(lp191
S'FUTURE'
p192
aS'500'
p193
aS'560'
p194
aa(lp195
S'LIKE'
p196
aS'640'
p197
aS'680'
p198
aa(lp199
S'THAT:i'
p200
aS'780'
p201
aS'820'
p202
aa(lp203
S'BOOK'
p204
aS'920'
p205
aS'960'
p206
aa(lp207
S'IX-loc:i'
p208
aS'1060'
p209
aS'1060'
p210
aasg20
S'1200'
p211
sg22
S'773_583_master_small.mov'
p212
sg24
(lp213
g188
ag192
ag196
ag200
ag204
ag208
asg26
S'Father will like that book.'
p214
sg28
S'160'
p215
ssI7
(dp216
g2
(lp217
(lp218
S'FATHER'
p219
aS'720'
p220
aS'740'
p221
aa(lp222
S'LIKE'
p223
aS'840'
p224
aS'860'
p225
aa(lp226
S'THAT'
p227
aS'920'
p228
aS'940'
p229
aa(lp230
S'BOOK'
p231
aS'1020'
p232
aS'1060'
p233
aa(lp234
S'FUTURE'
p235
aS'1160'
p236
aS'1180'
p237
aa(lp238
S'QMwg'
p239
aS'1320'
p240
aS'1500'
p241
aasg20
S'1680'
p242
sg22
S'774_584_master_small.mov'
p243
sg24
(lp244
g219
ag223
ag227
ag231
ag235
ag239
asg26
S'As for father liking that book, will he?'
p245
sg28
S'260'
p246
ssI8
(dp247
g2
(lp248
(lp249
S'FATHER'
p250
aS'460'
p251
aS'520'
p252
aa(lp253
S'GIFT:j'
p254
aS'620'
p255
aS'720'
p256
aa(lp257
S'fs-JOHN'
p258
aS'780'
p259
aS'900'
p260
aa(lp261
S'HOW-MANY'
p262
aS'1000'
p263
aS'1120'
p264
aa(lp265
S'BOOK'
p266
aS'1180'
p267
aS'1360'
p268
aasg20
S'1480'
p269
sg22
S'775_585_master_small.mov'
p270
sg24
(lp271
g250
ag254
ag258
ag262
ag266
asg26
S'How many books did father give to John?'
p272
sg28
S'260'
p273
ssI9
(dp274
g2
(lp275
(lp276
S'fs-JOHN'
p277
aS'400'
p278
aS'580'
p279
aa(lp280
S'GIFT:j'
p281
aS'660'
p282
aS'740'
p283
aa(lp284
S'TEACHER'
p285
aS'900'
p286
aS'1020'
p287
aa(lp288
S'HOW-MANY'
p289
aS'1080'
p290
aS'1220'
p291
aa(lp292
S'CAR'
p293
aS'1260'
p294
aS'1540'
p295
aa(lp296
S'punct'
p297
aS'1600'
p298
aasg20
S'1600'
p299
sg22
S'776_586_master_small.mov'
p300
sg24
(lp301
g277
ag281
ag285
ag289
ag293
ag297
asg26
S'How many cars did John give the teacher?'
p302
sg28
S'240'
p303
ssI10
(dp304
g2
(lp305
(lp306
S'TEACHER'
p307
aS'500'
p308
aS'640'
p309
aa(lp310
S'GIFT:j'
p311
aS'740'
p312
aS'800'
p313
aa(lp314
S'fs-JOHN'
p315
aS'840'
p316
aS'1000'
p317
aa(lp318
S'HOW-MANY'
p319
aS'1100'
p320
aS'1180'
p321
aa(lp322
S'BOOK'
p323
aS'1240'
p324
aS'1340'
p325
aa(lp326
S'part:indef'
p327
aS'1420'
p328
aS'1500'
p329
aasg20
S'1580'
p330
sg22
S'777_587_master_small.mov'
p331
sg24
(lp332
g307
ag311
ag315
ag319
ag323
ag327
asg26
S'How many books did the teacher give John?'
p333
sg28
S'360'
p334
ssI11
(dp335
g2
(lp336
(lp337
S'TEACHER'
p338
aS'260'
p339
aS'320'
p340
aa(lp341
S'NOW'
p342
aS'400'
p343
aS'460'
p344
aa(lp345
S'IN'
p346
aS'560'
p347
aS'600'
p348
aa(lp349
S'IX-3p:i'
p350
aS'680'
p351
aS'700'
p352
aa(lp353
S'HOUSE'
p354
aS'820'
p355
aS'940'
p356
aa(lp357
S'IX-loc:i'
p358
aS'980'
p359
aS'1020'
p360
aasg20
S'1040'
p361
sg22
S'778_588_master_small.mov'
p362
sg24
(lp363
g338
ag342
ag346
ag350
ag354
ag358
asg26
S'The teacher is in the house there right now.'
p364
sg28
S'40'
p365
ssI12
(dp366
g2
(lp367
(lp368
S'TEACHER'
p369
aS'480'
p370
aS'580'
p371
aa(lp372
S'IN'
p373
aS'660'
p374
aS'700'
p375
aa(lp376
S'HOUSE'
p377
aS'780'
p378
aS'840'
p379
aa(lp380
S'IX-loc:i'
p381
aS'880'
p382
aS'920'
p383
aa(lp384
S'QMwg'
p385
aS'1080'
p386
aS'1260'
p387
aasg20
S'1280'
p388
sg22
S'779_589_master_small.mov'
p389
sg24
(lp390
g369
ag373
ag377
ag381
ag385
asg26
S'Is the teacher in that house?'
p391
sg28
S'320'
p392
ssI13
(dp393
g2
(lp394
(lp395
S'TEACHER'
p396
aS'460'
p397
aS'520'
p398
aa(lp399
S'FINISH'
p400
aS'540'
p401
aS'620'
p402
aa(lp403
S'PAST'
p404
aS'680'
p405
aS'780'
p406
aa(lp407
S'IN'
p408
aS'900'
p409
aS'960'
p410
aa(lp411
S'HOUSE'
p412
aS'1040'
p413
aS'1120'
p414
aa(lp415
S'IX-loc:i'
p416
aS'1200'
p417
aS'1240'
p418
aa(lp419
S'QMwg'
p420
aS'1380'
p421
aS'1540'
p422
aasg20
S'1660'
p423
sg22
S'780_590_master_small.mov'
p424
sg24
(lp425
g396
ag400
ag404
ag408
ag412
ag416
ag420
asg26
S'Has the teacher been in the house before?'
p426
sg28
S'180'
p427
ssI14
(dp428
g2
(lp429
(lp430
S'TEACHER'
p431
aS'380'
p432
aS'440'
p433
aa(lp434
S'NOT'
p435
aS'520'
p436
aS'620'
p437
aa(lp438
S'IN'
p439
aS'680'
p440
aS'720'
p441
aa(lp442
S'HOUSE'
p443
aS'800'
p444
aS'900'
p445
aa(lp446
S'IX-loc:i'
p447
aS'1040'
p448
aS'1060'
p449
aasg20
S'1340'
p450
sg22
S'781_591_master_small.mov'
p451
sg24
(lp452
g431
ag435
ag439
ag443
ag447
asg26
S'The teacher is not in the house.'
p453
sg28
S'200'
p454
ssI15
(dp455
g2
(lp456
(lp457
S'STUDENT'
p458
aS'280'
p459
aS'420'
p460
aa(lp461
S'BUY'
p462
aS'500'
p463
aS'560'
p464
aa(lp465
S'CAR'
p466
aS'620'
p467
aS'780'
p468
aa(lp469
S'YESTERDAY'
p470
aS'920'
p471
aS'1060'
p472
aa(lp473
g297
aS'1120'
p474
aasg20
S'1120'
p475
sg22
S'784_594_master_small.mov'
p476
sg24
(lp477
g458
ag462
ag466
ag470
ag297
asg26
S'The student bought a car yesterday.'
p478
sg28
S'100'
p479
ssI16
(dp480
g2
(lp481
(lp482
S'STUDENT'
p483
aS'380'
p484
aS'520'
p485
aa(lp486
S'BUY'
p487
aS'580'
p488
aS'640'
p489
aa(lp490
S'CAR'
p491
aS'680'
p492
aS'780'
p493
aa(lp494
S'YESTERDAY'
p495
aS'880'
p496
aS'980'
p497
aa(lp498
S'QMwg'
p499
aS'1080'
p500
aS'1240'
p501
aasg20
S'1420'
p502
sg22
S'785_595_master_small.mov'
p503
sg24
(lp504
g483
ag487
ag491
ag495
ag499
asg26
S'Did the student buy a car yesterday?'
p505
sg28
S'160'
p506
ssI17
(dp507
g2
(lp508
(lp509
S'TEACHER'
p510
aS'360'
p511
aS'440'
p512
aa(lp513
S'BUY'
p514
aS'520'
p515
aS'580'
p516
aa(lp517
S'HOUSE'
p518
aS'640'
p519
aS'780'
p520
aa(lp521
S'YESTERDAY'
p522
aS'920'
p523
aS'1040'
p524
aa(lp525
S'QMwg'
p526
aS'1180'
p527
aS'1360'
p528
aasg20
S'1460'
p529
sg22
S'786_596_master_small.mov'
p530
sg24
(lp531
g510
ag514
ag518
ag522
ag526
asg26
S'Did the teacher buy a house yesterday?'
p532
sg28
S'200'
p533
ssI18
(dp534
g2
(lp535
(lp536
S'MOTHER'
p537
aS'420'
p538
aS'480'
p539
aa(lp540
S'BUY'
p541
aS'540'
p542
aS'640'
p543
aa(lp544
S'BOOK'
p545
aS'700'
p546
aS'780'
p547
aa(lp548
S'YESTERDAY'
p549
aS'940'
p550
aS'1080'
p551
aasg20
S'1260'
p552
sg22
S'787_597_master_small.mov'
p553
sg24
(lp554
g537
ag541
ag545
ag549
asg26
S'Mother bought a book yesterday.'
p555
sg28
S'180'
p556
ssI19
(dp557
g2
(lp558
(lp559
S'MOTHER'
p560
aS'300'
p561
aS'360'
p562
aa(lp563
S'BUY'
p564
aS'440'
p565
aS'500'
p566
aa(lp567
S'ONE'
p568
aS'560'
p569
aS'620'
p570
aa(lp571
S'BOOK'
p572
aS'720'
p573
aS'740'
p574
aa(lp575
S'YESTERDAY'
p576
aS'880'
p577
aS'1020'
p578
aasg20
S'1160'
p579
sg22
S'788_598_master_small.mov'
p580
sg24
(lp581
g560
ag564
ag568
ag572
ag576
asg26
S'Mother bought one book yesterday.'
p582
sg28
S'180'
p583
ssI20
(dp584
g2
(lp585
(lp586
S'MOTHER'
p587
aS'300'
p588
aS'360'
p589
aa(lp590
S'BUY'
p591
aS'420'
p592
aS'500'
p593
aa(lp594
S'ONE'
p595
aS'560'
p596
aS'620'
p597
aa(lp598
S'BOOK'
p599
aS'720'
p600
aS'740'
p601
aa(lp602
S'YESTERDAY'
p603
aS'880'
p604
aS'1020'
p605
aasg20
S'1160'
p606
sg22
S'789_599_master_small.mov'
p607
sg24
(lp608
g587
ag591
ag595
ag599
ag603
asg26
S'Mother bought one book yesterday.'
p609
sg28
S'180'
p610
ssI21
(dp611
g2
(lp612
(lp613
S'TEACHER'
p614
aS'260'
p615
aS'320'
p616
aa(lp617
S'neu:GIVE:i'
p618
aS'460'
p619
aS'580'
p620
aa(lp621
S'STUDENT'
p622
aS'680'
p623
aS'760'
p624
aa(lp625
S'ONE'
p626
aS'840'
p627
aS'900'
p628
aa(lp629
S'BOOK'
p630
aS'1000'
p631
aS'1080'
p632
aasg20
S'1380'
p633
sg22
S'791_601_master_small.mov'
p634
sg24
(lp635
g614
ag618
ag622
ag626
ag630
asg26
S'The teacher gave the student one book.'
p636
sg28
S'0'
p637
ssI22
(dp638
g2
(lp639
(lp640
S'TEACHER'
p641
aS'940'
p642
aS'1020'
p643
aa(lp644
S'(2h)GIFT-3p-pl-arc'
p645
aS'1300'
p646
aS'1440'
p647
aa(lp648
S'STUDENT'
p649
aS'1580'
p650
aS'1640'
p651
aa(lp652
S'BOOK'
p653
aS'1720'
p654
aS'1740'
p655
aa(lp656
S'ONE-distributive-3p-pl-arc'
p657
aS'1880'
p658
aS'2220'
p659
aasg20
S'2640'
p660
sg22
S'792_602_master_small.mov'
p661
sg24
(lp662
g641
ag645
ag649
ag653
ag657
asg26
S'The teacher gave each of the students one book.'
p663
sg28
S'800'
p664
ssI23
(dp665
g2
(lp666
(lp667
S'STUDENT'
p668
aS'740'
p669
aS'780'
p670
aa(lp671
S'IX-loc-arc'
p672
aS'820'
p673
aS'920'
p674
aa(lp675
S'PCL:crvd-5group-together'
p676
aS'1120'
p677
aS'1220'
p678
aa(lp679
S'PITCH-IN'
p680
aS'1420'
p681
aS'1520'
p682
aa(lp683
S'GIFT:j'
p684
aS'1700'
p685
aS'1800'
p686
aa(lp687
S'TEACHER'
p688
aS'1960'
p689
aS'2040'
p690
aa(lp691
S'BOOK'
p692
aS'2140'
p693
aS'2260'
p694
aasg20
S'2660'
p695
sg22
S'793_603_master_small.mov'
p696
sg24
(lp697
g668
ag672
ag676
ag680
ag684
ag688
ag692
asg26
S'The students contributed money to buy the teacher a book.'
p698
sg28
S'200'
p699
ssI24
(dp700
g2
(lp701
(lp702
S'STUDENT'
p703
aS'500'
p704
aS'520'
p705
aa(lp706
S'EACH'
p707
aS'640'
p708
aS'720'
p709
aa(lp710
S'IX-loc-arc'
p711
aS'860'
p712
aS'980'
p713
aa(lp714
S'GIFT-distributive:i'
p715
aS'1100'
p716
aS'1460'
p717
aa(lp718
S'TEACHER'
p719
aS'1620'
p720
aS'1740'
p721
aa(lp722
S'BOOK'
p723
aS'1820'
p724
aS'1960'
p725
aasg20
S'2140'
p726
sg22
S'794_604_master_small.mov'
p727
sg24
(lp728
g703
ag707
ag711
ag715
ag719
ag723
asg26
S'Each of the students gave the teacher a book.'
p729
sg28
S'360'
p730
ssI25
(dp731
g2
(lp732
(lp733
S'TEACHER'
p734
aS'260'
p735
aS'340'
p736
aa(lp737
S'GIFT-distributive-3p-pl-arc'
p738
aS'500'
p739
aS'780'
p740
aa(lp741
S'BOOK'
p742
aS'860'
p743
aS'960'
p744
aa(lp745
S'STUDENT'
p746
aS'1080'
p747
aS'1260'
p748
aasg20
S'1420'
p749
sg22
S'795_605_master_small.mov'
p750
sg24
(lp751
g734
ag738
ag742
ag746
asg26
S'The teacher gave each student a book.'
p752
sg28
S'200'
p753
ssI26
(dp754
g2
(lp755
(lp756
S'STUDENT'
p757
aS'1160'
p758
aS'1380'
p759
aa(lp760
S'BOOK'
p761
aS'1580'
p762
aS'1680'
p763
aa(lp764
S'(2h)alt.GIVE-recip++'
p765
aS'1760'
p766
aS'2500'
p767
aasg20
S'2520'
p768
sg22
S'796_606_master_small.mov'
p769
sg24
(lp770
g757
ag761
ag765
asg26
S'The students exchanged books.'
p771
sg28
S'820'
p772
ssI27
(dp773
g2
(lp774
(lp775
S'fs-JOHN'
p776
aS'220'
p777
aS'320'
p778
aa(lp779
S'BUY'
p780
aS'420'
p781
aS'500'
p782
aa(lp783
S'BOOK'
p784
aS'620'
p785
aS'700'
p786
aa(lp787
S'(1h)HOW-MANY'
p788
aS'840'
p789
aS'1020'
p790
aasg20
S'1200'
p791
sg22
S'797_607_master_small.mov'
p792
sg24
(lp793
g776
ag780
ag784
ag788
asg26
S'How many books did John buy?'
p794
sg28
S'160'
p795
ssI28
(dp796
g2
(lp797
(lp798
S'fs-JOHN'
p799
aS'220'
p800
aS'320'
p801
aa(lp802
S'WANT'
p803
aS'400'
p804
aS'480'
p805
aa(lp806
S'BUY'
p807
aS'540'
p808
aS'620'
p809
aa(lp810
S'BOOK'
p811
aS'720'
p812
aS'820'
p813
aa(lp814
S'HOW-MANY'
p815
aS'940'
p816
aS'1080'
p817
aasg20
S'1380'
p818
sg22
S'801_611_master_small.mov'
p819
sg24
(lp820
g799
ag803
ag807
ag811
ag815
asg26
S'How many books does John want to buy?'
p821
sg28
S'20'
p822
ssI29
(dp823
g2
(lp824
(lp825
S'TEACHER'
p826
aS'240'
p827
aS'280'
p828
aa(lp829
S'LIKE'
p830
aS'420'
p831
aS'480'
p832
aa(lp833
S'MOVIE'
p834
aS'560'
p835
aS'700'
p836
aasg20
S'820'
p837
sg22
S'805_618_master_small.mov'
p838
sg24
(lp839
g826
ag830
ag834
asg26
S'The teacher likes movies.'
p840
sg28
S'100'
p841
ssI30
(dp842
g2
(lp843
(lp844
S'TEACHER'
p845
aS'260'
p846
aS'300'
p847
aa(lp848
S'LIKE'
p849
aS'360'
p850
aS'420'
p851
aa(lp852
S'MOVIE'
p853
aS'520'
p854
aS'580'
p855
aa(lp856
S'IX-3p:i'
p857
aS'820'
p858
aS'820'
p859
aa(lp860
S'STUDENT'
p861
aS'940'
p862
aS'1020'
p863
aa(lp864
S'NOT'
p865
aS'1140'
p866
aS'1160'
p867
aa(lp868
S'LIKE'
p869
aS'1240'
p870
aS'1380'
p871
aasg20
S'1800'
p872
sg22
S'806_619_master_small.mov'
p873
sg24
(lp874
g845
ag849
ag853
ag857
ag861
ag865
ag869
asg26
S"The teacher liked the movie but the student didn't."
p875
sg28
S'120'
p876
ssI31
(dp877
g2
(lp878
(lp879
S'TEACHER'
p880
aS'220'
p881
aS'240'
p882
aa(lp883
S'NOT'
p884
aS'340'
p885
aS'360'
p886
aa(lp887
S'LIKE'
p888
aS'440'
p889
aS'500'
p890
aa(lp891
S'MOVIE'
p892
aS'580'
p893
aS'640'
p894
aa(lp895
S'IX-loc:i'
p896
aS'720'
p897
aS'740'
p898
aasg20
S'900'
p899
sg22
S'807_621_master_small.mov'
p900
sg24
(lp901
g880
ag884
ag888
ag892
ag896
asg26
S"The teacher doesn't like the movie."
p902
sg28
S'180'
p903
ssI32
(dp904
g2
(lp905
(lp906
S'TEACHER'
p907
aS'300'
p908
aS'360'
p909
aa(lp910
S'LIKE'
p911
aS'540'
p912
aS'580'
p913
aa(lp914
S'BOOK'
p915
aS'660'
p916
aS'700'
p917
aa(lp918
g297
aS'800'
p919
aa(lp920
S'MOVIE'
p921
aS'1000'
p922
aS'1040'
p923
aa(lp924
g297
aS'1100'
p925
aa(lp926
S'NOT'
p927
aS'1180'
p928
aS'1300'
p929
aasg20
S'1500'
p930
sg22
S'808_622_master_small.mov'
p931
sg24
(lp932
g907
ag911
ag915
ag297
ag921
ag297
ag927
asg26
S"The teacher likes books, but doesn't like movies."
p933
sg28
S'40'
p934
ssI33
(dp935
g2
(lp936
(lp937
S'TEACHER'
p938
aS'220'
p939
aS'280'
p940
aa(lp941
S'IX-3p:i'
p942
aS'360'
p943
aS'360'
p944
aa(lp945
S'LIKE'
p946
aS'480'
p947
aS'540'
p948
aa(lp949
S'MOVIE'
p950
aS'640'
p951
aS'700'
p952
aa(lp953
S'IX-3p:i'
p954
aS'800'
p955
aS'800'
p956
aasg20
S'1060'
p957
sg22
S'809_623_master_small.mov'
p958
sg24
(lp959
g938
ag942
ag946
ag950
ag954
asg26
S'The teacher, does s/he like movies?'
p960
sg28
S'180'
p961
ssI34
(dp962
g2
(lp963
(lp964
S'TEACHER'
p965
aS'180'
p966
aS'260'
p967
aa(lp968
S'WATCH'
p969
aS'340'
p970
aS'360'
p971
aa(lp972
S'MOVIE'
p973
aS'460'
p974
aS'520'
p975
aa(lp976
S'LIKE'
p977
aS'700'
p978
aS'760'
p979
aa(lp980
S'part:indef'
p981
aS'800'
p982
aS'960'
p983
aa(lp984
g297
aS'1060'
p985
aasg20
S'1280'
p986
sg22
S'810_624_master_small.mov'
p987
sg24
(lp988
g965
ag969
ag973
ag977
ag981
ag297
asg26
S'Did the teacher like the movie that s/he saw?'
p989
sg28
S'60'
p990
ssI35
(dp991
g2
(lp992
(lp993
S'MOTHER'
p994
aS'260'
p995
aS'280'
p996
aa(lp997
S'BUY'
p998
aS'380'
p999
aS'460'
p1000
aa(lp1001
S'CAR'
p1002
aS'500'
p1003
aS'660'
p1004
aa(lp1005
S'GIFT:j'
p1006
aS'740'
p1007
aS'880'
p1008
aa(lp1009
S'fs-JOHN'
p1010
aS'960'
p1011
aS'1140'
p1012
aa(lp1013
g297
aS'1260'
p1014
aasg20
S'1380'
p1015
sg22
S'811_625_master_small.mov'
p1016
sg24
(lp1017
g994
ag998
ag1002
ag1006
ag1010
ag297
asg26
S'Mother bought a car and gave it to John.'
p1018
sg28
S'140'
p1019
ssI36
(dp1020
g2
(lp1021
(lp1022
S'fs-JOHN'
p1023
aS'200'
p1024
aS'320'
p1025
aa(lp1026
S'BUY'
p1027
aS'460'
p1028
aS'500'
p1029
aa(lp1030
S'CAR'
p1031
aS'540'
p1032
aS'600'
p1033
aa(lp1034
S'YESTERDAY'
p1035
aS'720'
p1036
aS'880'
p1037
aa(lp1038
S'GIFT:j'
p1039
aS'940'
p1040
aS'1100'
p1041
aa(lp1042
S'MOTHERwg'
p1043
aS'1220'
p1044
aS'1380'
p1045
aasg20
S'1600'
p1046
sg22
S'812_626_master_small.mov'
p1047
sg24
(lp1048
g1023
ag1027
ag1031
ag1035
ag1039
ag1043
asg26
S'John bought a car yesterday and gave it to mother.'
p1049
sg28
g637
ssI37
(dp1050
g2
(lp1051
(lp1052
S'fs-MARY'
p1053
aS'200'
p1054
aS'320'
p1055
aa(lp1056
S'BUY'
p1057
aS'480'
p1058
aS'620'
p1059
aa(lp1060
S'POSS:i'
p1061
aS'660'
p1062
aS'740'
p1063
aa(lp1064
S'MOTHER'
p1065
aS'840'
p1066
aS'860'
p1067
aa(lp1068
S'CAR'
p1069
aS'960'
p1070
aS'1180'
p1071
aa(lp1072
S'GIFT:k'
p1073
aS'1240'
p1074
aS'1360'
p1075
aa(lp1076
S'fs-JOHN'
p1077
aS'1440'
p1078
aS'1640'
p1079
aasg20
S'1880'
p1080
sg22
S'813_627_master_small.mov'
p1081
sg24
(lp1082
g1053
ag1057
ag1061
ag1065
ag1069
ag1073
ag1077
asg26
S"Mary bought her mother's car and gave it to John."
p1083
sg28
S'20'
p1084
ssI38
(dp1085
g2
(lp1086
(lp1087
S'fs-JOHN'
p1088
aS'180'
p1089
aS'280'
p1090
aa(lp1091
S'BUY'
p1092
aS'400'
p1093
aS'480'
p1094
aa(lp1095
S'MOTHER'
p1096
aS'580'
p1097
aS'600'
p1098
aa(lp1099
S'CAR'
p1100
aS'660'
p1101
aS'740'
p1102
aa(lp1103
S'NOT'
p1104
aS'840'
p1105
aS'940'
p1106
aasg20
S'1260'
p1107
sg22
S'814_628_master_small.mov'
p1108
sg24
(lp1109
g1088
ag1092
ag1096
ag1100
ag1104
asg26
S"Did John buy mother's car? No, he did not."
p1110
sg28
S'80'
p1111
ssI39
(dp1112
g2
(lp1113
(lp1114
S'MOTHER'
p1115
aS'240'
p1116
aS'260'
p1117
aa(lp1118
S'BUY'
p1119
aS'340'
p1120
aS'440'
p1121
aa(lp1122
S'CAR'
p1123
aS'500'
p1124
aS'560'
p1125
aa(lp1126
S'FOR'
p1127
aS'640'
p1128
aS'660'
p1129
aa(lp1130
S'fs-JOHN'
p1131
aS'700'
p1132
aS'820'
p1133
aa(lp1134
S'#NO'
p1135
aS'860'
p1136
aS'940'
p1137
aa(lp1138
g297
aS'1140'
p1139
aasg20
S'1300'
p1140
sg22
S'815_629_master_small.mov'
p1141
sg24
(lp1142
g1115
ag1119
ag1123
ag1127
ag1131
ag1135
ag297
asg26
S'Did mother buy a car for John? No, she did not.'
p1143
sg28
S'60'
p1144
ss.