(dp0
I0
(dp1
S'Annotated'
p2
(lp3
(lp4
S'STUDENT'
p5
aS'180'
p6
aS'320'
p7
aa(lp8
S'LIKE'
p9
aS'400'
p10
aS'460'
p11
aa(lp12
S'CHOCOLATE'
p13
aS'580'
p14
aS'740'
p15
aasS'EndFrame'
p16
S'900'
p17
sS'Video'
p18
S'816_630_master_small.mov'
p19
sS'Words'
p20
(lp21
g5
ag9
ag13
asS'English'
p22
S'The student likes chocolate.'
p23
sS'StartFrame'
p24
S'60'
p25
ssI1
(dp26
g2
(lp27
(lp28
S'TEACHER'
p29
aS'320'
p30
aS'440'
p31
aa(lp32
S'LIKE'
p33
aS'480'
p34
aS'540'
p35
aa(lp36
S'CHOCOLATE'
p37
aS'660'
p38
aS'820'
p39
aasg16
S'920'
p40
sg18
S'817_631_master_small.mov'
p41
sg20
(lp42
g29
ag33
ag37
asg22
S'The teacher likes chocolate.'
p43
sg24
S'260'
p44
ssI2
(dp45
g2
(lp46
(lp47
S'STUDENT'
p48
aS'280'
p49
aS'360'
p50
aa(lp51
S'NOT'
p52
aS'480'
p53
aS'500'
p54
aa(lp55
S'LIKE'
p56
aS'560'
p57
aS'620'
p58
aa(lp59
S'CHOCOLATE'
p60
aS'700'
p61
aS'800'
p62
aa(lp63
S'punct'
p64
aS'880'
p65
aasg16
S'980'
p66
sg18
S'818_632_master_small.mov'
p67
sg20
(lp68
g48
ag52
ag56
ag60
ag64
asg22
S'The student does not like chocolate.'
p69
sg24
S'180'
p70
ssI3
(dp71
g2
(lp72
(lp73
S'TEACHER'
p74
aS'240'
p75
aS'300'
p76
aa(lp77
S'LIKE'
p78
aS'400'
p79
aS'440'
p80
aa(lp81
S'CHOCOLATE'
p82
aS'580'
p83
aS'720'
p84
aasg16
S'900'
p85
sg18
S'819_633_master_small.mov'
p86
sg20
(lp87
g74
ag78
ag82
asg22
S'Does the teacher like chocolate?'
p88
sg24
S'160'
p89
ssI4
(dp90
g2
(lp91
(lp92
S'(25)WHY'
p93
aS'160'
p94
aS'260'
p95
aa(lp96
S'fs-JOHN'
p97
aS'340'
p98
aS'400'
p99
aa(lp100
S'NOT'
p101
aS'440'
p102
aS'480'
p103
aa(lp104
S'LIKE'
p105
aS'560'
p106
aS'600'
p107
aa(lp108
S'CHOCOLATE'
p109
aS'700'
p110
aS'720'
p111
aa(lp112
S'part:indef'
p113
aS'800'
p114
aS'900'
p115
aa(lp116
g64
aS'1040'
p117
aasg16
S'1160'
p118
sg18
S'821_635_master_small.mov'
p119
sg20
(lp120
g93
ag97
ag101
ag105
ag109
ag113
ag64
asg22
S"Why doesn't John like chocolate?"
p121
sg24
S'100'
p122
ssI5
(dp123
g2
(lp124
(lp125
S'MOTHER'
p126
aS'360'
p127
aS'480'
p128
aa(lp129
S'GIFT:i'
p130
aS'580'
p131
aS'640'
p132
aa(lp133
S'CHOCOLATE'
p134
aS'820'
p135
aS'840'
p136
aa(lp137
S'IX-3p:i'
p138
aS'920'
p139
aS'940'
p140
aa(lp141
S'fs-JOHN'
p142
aS'1000'
p143
aS'1180'
p144
aa(lp145
S'YESTERDAY'
p146
aS'1300'
p147
aS'1480'
p148
aa(lp149
g64
aS'1520'
p150
aasg16
S'1800'
p151
sg18
S'825_642_master_small.mov'
p152
sg20
(lp153
g126
ag130
ag134
ag138
ag142
ag146
ag64
asg22
S'Mother gave chocolate to John yesterday.'
p154
sg24
S'280'
p155
ssI6
(dp156
g2
(lp157
(lp158
S'CHOCOLATE'
p159
aS'320'
p160
aS'380'
p161
aa(lp162
S'fs-JOHN'
p163
aS'440'
p164
aS'580'
p165
aa(lp166
g64
aS'640'
p167
aa(lp168
S'GIFT:i'
p169
aS'740'
p170
aS'820'
p171
aa(lp172
S'MOTHERwg'
p173
aS'920'
p174
aS'1000'
p175
aa(lp176
g64
aS'1080'
p177
aa(lp178
S'IX-3p:i'
p179
aS'1140'
p180
aS'1140'
p181
aasg16
S'1320'
p182
sg18
S'826_643_master_small.mov'
p183
sg20
(lp184
g159
ag163
ag64
ag169
ag173
ag64
ag179
asg22
S'John is giving mother chocolate.'
p185
sg24
S'180'
p186
ssI7
(dp187
g2
(lp188
(lp189
S'fs-JOHN'
p190
aS'200'
p191
aS'260'
p192
aa(lp193
S'NOW'
p194
aS'360'
p195
aS'400'
p196
aa(lp197
S'i:GIVE:j'
p198
aS'560'
p199
aS'720'
p200
aa(lp201
S'CHOCOLATE'
p202
aS'860'
p203
aS'920'
p204
aa(lp205
S'MOTHERwg'
p206
aS'1020'
p207
aS'1120'
p208
aa(lp209
S'IX-3p:j'
p210
aS'1220'
p211
aS'1240'
p212
aasg16
S'1480'
p213
sg18
S'827_644_master_small.mov'
p214
sg20
(lp215
g190
ag194
ag198
ag202
ag206
ag210
asg22
S'John is right now giving chocolate to mother.'
p216
sg24
S'100'
p217
ssI8
(dp218
g2
(lp219
(lp220
S'fs-JOHN'
p221
aS'280'
p222
aS'320'
p223
aa(lp224
S'FUTURE'
p225
aS'480'
p226
aS'500'
p227
aa(lp228
S'neu:GIVE:j'
p229
aS'580'
p230
aS'680'
p231
aa(lp232
S'CHOCOLATE'
p233
aS'860'
p234
aS'880'
p235
aa(lp236
S'MOTHERwg'
p237
aS'960'
p238
aS'1020'
p239
aa(lp240
S'IX-3p:j'
p241
aS'1160'
p242
aS'1160'
p243
aasg16
S'1360'
p244
sg18
S'828_645_master_small.mov'
p245
sg20
(lp246
g221
ag225
ag229
ag233
ag237
ag241
asg22
S'John will give chocolate to mother.'
p247
sg24
S'240'
p248
ssI9
(dp249
g2
(lp250
(lp251
S'fs-JOHN'
p252
aS'240'
p253
aS'280'
p254
aa(lp255
S'IX-loc:i'
p256
aS'360'
p257
aS'360'
p258
aa(lp259
S'FUTURE'
p260
aS'480'
p261
aS'520'
p262
aa(lp263
S'neu:GIVE:j'
p264
aS'600'
p265
aS'660'
p266
aa(lp267
S'CHOCOLATE'
p268
aS'800'
p269
aS'820'
p270
aa(lp271
S'IX-loc:j'
p272
aS'960'
p273
aS'960'
p274
aa(lp275
S'MOTHER'
p276
aS'1020'
p277
aS'1100'
p278
aa(lp279
S'IX-3p:j'
p280
aS'1160'
p281
aS'1180'
p282
aasg16
S'1440'
p283
sg18
S'829_646_master_small.mov'
p284
sg20
(lp285
g252
ag256
ag260
ag264
ag268
ag272
ag276
ag280
asg22
S'Will John give chocolate to mother?'
p286
sg24
S'140'
p287
ssI10
(dp288
g2
(lp289
(lp290
S'FINISH'
p291
aS'300'
p292
aS'360'
p293
aa(lp294
S'MOTHER'
p295
aS'400'
p296
aS'460'
p297
aa(lp298
S'FINISH'
p299
aS'540'
p300
aS'580'
p301
aa(lp302
S'GIFT:i'
p303
aS'680'
p304
aS'760'
p305
aa(lp306
S'fs-JOHN'
p307
aS'920'
p308
aS'1040'
p309
aa(lp310
S'CHOCOLATE'
p311
aS'1160'
p312
aS'1320'
p313
aasg16
S'1580'
p314
sg18
S'830_647_master_small.mov'
p315
sg20
(lp316
g291
ag295
ag299
ag303
ag307
ag311
asg22
S'Did mother already give John chocolate?'
p317
sg24
S'120'
p318
ssI11
(dp319
g2
(lp320
(lp321
S'IX-3p:i'
p322
aS'240'
p323
aS'240'
p324
aa(lp325
S'STUDENT'
p326
aS'600'
p327
aS'660'
p328
aa(lp329
S'!LIKE!'
p330
aS'840'
p331
aS'940'
p332
aa(lp333
S'CHOCOLATE'
p334
aS'1200'
p335
aS'1320'
p336
aa(lp337
S'NOT'
p338
aS'1500'
p339
aS'1540'
p340
aa(lp341
S'LIKE'
p342
aS'1620'
p343
aS'1640'
p344
aa(lp345
S'READ+'
p346
aS'1720'
p347
aS'1860'
p348
aa(lp349
S'BOOK'
p350
aS'1940'
p351
aS'2000'
p352
aasg16
S'2220'
p353
sg18
S'837_654_master_small.mov'
p354
sg20
(lp355
g322
ag326
ag330
ag334
ag338
ag342
ag346
ag350
asg22
S"The student likes chocolate but doesn't like to read books."
p356
sg24
S'140'
p357
ssI12
(dp358
g2
(lp359
(lp360
S'TEACHER'
p361
aS'340'
p362
aS'440'
p363
aa(lp364
S'LIKE'
p365
aS'560'
p366
aS'620'
p367
aa(lp368
S'READ+'
p369
aS'700'
p370
aS'900'
p371
aa(lp372
g64
aS'1020'
p373
aa(lp374
S'LIKE'
p375
aS'1220'
p376
aS'1260'
p377
aa(lp378
S'MOVIE'
p379
aS'1380'
p380
aS'1460'
p381
aa(lp382
S'#NO'
p383
aS'1520'
p384
aS'1620'
p385
aa(lp386
S'NOT'
p387
aS'1760'
p388
aS'1860'
p389
aasg16
S'2020'
p390
sg18
S'838_655_master_small.mov'
p391
sg20
(lp392
g361
ag365
ag369
ag64
ag375
ag379
ag383
ag387
asg22
S"The teacher likes reading, but does she like movies? no, she doesn't."
p393
sg24
S'220'
p394
ssI13
(dp395
g2
(lp396
(lp397
S'FATHER'
p398
aS'660'
p399
aS'700'
p400
aa(lp401
S'LIKE'
p402
aS'860'
p403
aS'900'
p404
aa(lp405
S'fs-JOHN'
p406
aS'940'
p407
aS'1040'
p408
aa(lp409
S'HOUSE'
p410
aS'1160'
p411
aS'1380'
p412
aa(lp413
g64
aS'1420'
p414
aa(lp415
S'LIKE'
p416
aS'1780'
p417
aS'1820'
p418
aa(lp419
S'POSS-3p:j'
p420
aS'1880'
p421
aS'1940'
p422
aa(lp423
S'CAR'
p424
aS'2040'
p425
aS'2120'
p426
aa(lp427
S'#NO'
p428
aS'2180'
p429
aS'2240'
p430
aa(lp431
S'NOT'
p432
aS'2340'
p433
aS'2420'
p434
aasg16
S'2620'
p435
sg18
S'840_657_master_small.mov'
p436
sg20
(lp437
g398
ag402
ag406
ag410
ag64
ag416
ag420
ag424
ag428
ag432
asg22
S"Father likes John's house, but does he like John's car? No, he doesn't."
p438
sg24
S'400'
p439
ssI14
(dp440
g2
(lp441
(lp442
S'FATHER'
p443
aS'20'
p444
aS'60'
p445
aa(lp446
g64
aS'120'
p447
aa(lp448
S'LIKE'
p449
aS'240'
p450
aS'300'
p451
aa(lp452
S'BOTH'
p453
aS'420'
p454
aS'540'
p455
aa(lp456
S'BOOK'
p457
aS'680'
p458
aS'740'
p459
aa(lp460
S'AND'
p461
aS'760'
p462
aS'760'
p463
aa(lp464
S'MOVIE'
p465
aS'860'
p466
aS'1040'
p467
aa(lp468
g64
aS'1060'
p469
aasg16
S'1220'
p470
sg18
S'841_658_master_small.mov'
p471
sg20
(lp472
g443
ag64
ag449
ag453
ag457
ag461
ag465
ag64
asg22
S'Father likes both books and movies.'
p473
sg24
S'0'
p474
ssI15
(dp475
g2
(lp476
(lp477
S'um'
p478
aS'260'
p479
aS'300'
p480
aa(lp481
S'fs-JOHN'
p482
aS'360'
p483
aS'460'
p484
aa(lp485
S'LIKE'
p486
aS'600'
p487
aS'680'
p488
aa(lp489
S'POSS-3p:j'
p490
aS'760'
p491
aS'800'
p492
aa(lp493
S'FATHERwg'
p494
aS'940'
p495
aS'1040'
p496
aa(lp497
S'HOUSE'
p498
aS'1220'
p499
aS'1320'
p500
aa(lp501
S'CAR'
p502
aS'1540'
p503
aS'1640'
p504
aa(lp505
g64
aS'1740'
p506
aasg16
S'1780'
p507
sg18
S'842_659_master_small.mov'
p508
sg20
(lp509
g478
ag482
ag486
ag490
ag494
ag498
ag502
ag64
asg22
S"John likes his father's house and car."
p510
sg24
S'180'
p511
ssI16
(dp512
g2
(lp513
(lp514
S'fs-JOHN'
p515
aS'160'
p516
aS'260'
p517
aa(lp518
S'LIKE'
p519
aS'380'
p520
aS'440'
p521
aa(lp522
S'CAR'
p523
aS'540'
p524
aS'640'
p525
aa(lp526
S'BOOK+'
p527
aS'800'
p528
aS'960'
p529
aasg16
S'1020'
p530
sg18
S'843_660_master_small.mov'
p531
sg20
(lp532
g515
ag519
ag523
ag527
asg22
S'John likes cars and books.'
p533
sg24
S'100'
p534
ssI17
(dp535
g2
(lp536
(lp537
S'TEACHER'
p538
aS'240'
p539
aS'340'
p540
aa(lp541
S'FINISH'
p542
aS'420'
p543
aS'480'
p544
aa(lp545
S'READ'
p546
aS'560'
p547
aS'600'
p548
aa(lp549
S'MAGAZINE'
p550
aS'760'
p551
aS'880'
p552
aa(lp553
g64
aS'940'
p554
aa(lp555
S'!NOW!'
p556
aS'1060'
p557
aS'1140'
p558
aa(lp559
S'READ'
p560
aS'1260'
p561
aS'1320'
p562
aa(lp563
S'BOOK+'
p564
aS'1400'
p565
aS'1580'
p566
aasg16
S'1680'
p567
sg18
S'844_661_master_small.mov'
p568
sg20
(lp569
g538
ag542
ag546
ag550
ag64
ag556
ag560
ag564
asg22
S'The teacher finished reading the magazine and is now reading a book.'
p570
sg24
S'160'
p571
ssI18
(dp572
g2
(lp573
(lp574
S'IX-2p:i'
p575
aS'320'
p576
aS'320'
p577
aa(lp578
g64
aS'420'
p579
aa(lp580
S'FINISH'
p581
aS'620'
p582
aS'720'
p583
aa(lp584
S'READ+'
p585
aS'840'
p586
aS'960'
p587
aa(lp588
S'MAGAZINE'
p589
aS'1060'
p590
aS'1200'
p591
aa(lp592
g64
aS'1240'
p593
aa(lp594
S'(L)FUTURE'
p595
aS'1380'
p596
aS'1420'
p597
aa(lp598
S'READ'
p599
aS'1500'
p600
aS'1560'
p601
aa(lp602
S'BOOK'
p603
aS'1640'
p604
aS'1740'
p605
aa(lp606
g64
aS'1760'
p607
aasg16
S'1880'
p608
sg18
S'845_662_master_small.mov'
p609
sg20
(lp610
g575
ag64
ag581
ag585
ag589
ag64
ag595
ag599
ag603
ag64
asg22
S'When you finish reading the magazine, you will read a book.'
p611
sg24
S'220'
p612
ssI19
(dp613
g2
(lp614
(lp615
S'TEACHER'
p616
aS'500'
p617
aS'560'
p618
aa(lp619
S'FINISH'
p620
aS'700'
p621
aS'780'
p622
aa(lp623
S'READ'
p624
aS'860'
p625
aS'920'
p626
aa(lp627
S'MAGAZINE'
p628
aS'1060'
p629
aS'1120'
p630
aa(lp631
S'FUTURE'
p632
aS'1300'
p633
aS'1320'
p634
aa(lp635
S'READ'
p636
aS'1400'
p637
aS'1480'
p638
aa(lp639
S'BOOK'
p640
aS'1580'
p641
aS'1640'
p642
aa(lp643
g64
aS'1700'
p644
aasg16
S'1800'
p645
sg18
S'846_663_master_small.mov'
p646
sg20
(lp647
g616
ag620
ag624
ag628
ag632
ag636
ag640
ag64
asg22
S'When the teacher finishes reading the magazine, she will read a book.'
p648
sg24
S'420'
p649
ssI20
(dp650
g2
(lp651
(lp652
S'fs-JOHN'
p653
aS'260'
p654
aS'360'
p655
aa(lp656
S'SHOULD'
p657
aS'440'
p658
aS'480'
p659
aa(lp660
S'NOT'
p661
aS'540'
p662
aS'580'
p663
aa(lp664
S'BUY'
p665
aS'680'
p666
aS'720'
p667
aa(lp668
S'HOUSE'
p669
aS'820'
p670
aS'1040'
p671
aasg16
S'1140'
p672
sg18
S'847_664_master_small.mov'
p673
sg20
(lp674
g653
ag657
ag661
ag665
ag669
asg22
S'John should not buy a house.'
p675
sg24
S'220'
p676
ssI21
(dp677
g2
(lp678
(lp679
S'MOTHER'
p680
aS'100'
p681
aS'160'
p682
aa(lp683
S'LIKE'
p684
aS'260'
p685
aS'300'
p686
aa(lp687
S'MOVIE'
p688
aS'380'
p689
aS'520'
p690
aa(lp691
g64
aS'540'
p692
aasg16
S'620'
p693
sg18
S'849_666_master_small.mov'
p694
sg20
(lp695
g680
ag684
ag688
ag64
asg22
S'Mother likes movies.'
p696
sg24
S'60'
p697
ssI22
(dp698
g2
(lp699
(lp700
S'MOTHER'
p701
aS'640'
p702
aS'700'
p703
aa(lp704
S'LIKE'
p705
aS'780'
p706
aS'800'
p707
aa(lp708
S'IX-3p:i'
p709
aS'880'
p710
aS'900'
p711
aa(lp712
S'BOOK+'
p713
aS'980'
p714
aS'1200'
p715
aasg16
S'1240'
p716
sg18
S'850_667_master_small.mov'
p717
sg20
(lp718
g701
ag705
ag709
ag713
asg22
S'Mother likes this book.'
p719
sg24
S'600'
p720
ssI23
(dp721
g2
(lp722
(lp723
S'MOTHER'
p724
aS'80'
p725
aS'120'
p726
aa(lp727
S'NOT'
p728
aS'180'
p729
aS'220'
p730
aa(lp731
S'LIKE'
p732
aS'340'
p733
aS'360'
p734
aa(lp735
S'MOVIE'
p736
aS'480'
p737
aS'620'
p738
aa(lp739
S'IX-3p:i'
p740
aS'740'
p741
aS'760'
p742
aa(lp743
g64
aS'820'
p744
aasg16
S'980'
p745
sg18
S'851_668_master_small.mov'
p746
sg20
(lp747
g724
ag728
ag732
ag736
ag740
ag64
asg22
S'Mother does not like the movie.'
p748
sg24
g474
ssI24
(dp749
g2
(lp750
(lp751
S'fs-JOHN'
p752
aS'200'
p753
aS'260'
p754
aa(lp755
S'FUTURE^NOT'
p756
aS'360'
p757
aS'440'
p758
aa(lp759
S'LIKE'
p760
aS'600'
p761
aS'620'
p762
aa(lp763
S'MOVIE'
p764
aS'800'
p765
aS'840'
p766
aa(lp767
S'IX-3p:i'
p768
aS'940'
p769
aS'940'
p770
aa(lp771
g64
aS'1020'
p772
aasg16
S'1240'
p773
sg18
S'852_669_master_small.mov'
p774
sg20
(lp775
g752
ag756
ag760
ag764
ag768
ag64
asg22
S"John won't like the movie."
p776
sg24
S'100'
p777
ssI25
(dp778
g2
(lp779
(lp780
S'FATHERwg'
p781
aS'540'
p782
aS'620'
p783
aa(lp784
S'FUTURE'
p785
aS'820'
p786
aS'860'
p787
aa(lp788
S'LIKE'
p789
aS'920'
p790
aS'940'
p791
aa(lp792
S'IX-3p:i'
p793
aS'980'
p794
aS'1000'
p795
aa(lp796
S'THAT:i'
p797
aS'1080'
p798
aS'1100'
p799
aa(lp800
S'BOOK+'
p801
aS'1200'
p802
aS'1380'
p803
aa(lp804
S'FUTURE'
p805
aS'1460'
p806
aS'1540'
p807
aa(lp808
g64
aS'1620'
p809
aasg16
S'1740'
p810
sg18
S'853_670_master_small.mov'
p811
sg20
(lp812
g781
ag785
ag789
ag793
ag797
ag801
ag805
ag64
asg22
S'Father will really like that book!'
p813
sg24
S'320'
p814
ssI26
(dp815
g2
(lp816
(lp817
S'(1h)HOW-MANY'
p818
aS'800'
p819
aS'860'
p820
aa(lp821
S'BOOK+'
p822
aS'1000'
p823
aS'1140'
p824
aa(lp825
S'fs-JOHN'
p826
aS'1340'
p827
aS'1400'
p828
aa(lp829
S'FATHER'
p830
aS'1500'
p831
aS'1540'
p832
aa(lp833
S'GIFT:i'
p834
aS'1660'
p835
aS'1760'
p836
aa(lp837
S'fs-JOHN'
p838
aS'1880'
p839
aS'2000'
p840
aa(lp841
S'part:indef'
p842
aS'2060'
p843
aS'2100'
p844
aa(lp845
g64
aS'2260'
p846
aasg16
S'2420'
p847
sg18
S'855_672_master_small.mov'
p848
sg20
(lp849
g818
ag822
ag826
ag830
ag834
ag838
ag842
ag64
asg22
S"How many books did John's father give John?"
p850
sg24
S'600'
p851
ssI27
(dp852
g2
(lp853
(lp854
S'CAR'
p855
aS'140'
p856
aS'240'
p857
aa(lp858
S'fs-JOHN'
p859
aS'320'
p860
aS'400'
p861
aa(lp862
g64
aS'440'
p863
aa(lp864
S'GIFT:i'
p865
aS'520'
p866
aS'600'
p867
aa(lp868
S'TEACHER'
p869
aS'660'
p870
aS'760'
p871
aa(lp872
S'HOW-MANY'
p873
aS'900'
p874
aS'1060'
p875
aa(lp876
S'CAR'
p877
aS'1160'
p878
aS'1220'
p879
aa(lp880
g64
aS'1400'
p881
aasg16
S'1620'
p882
sg18
S'856_673_master_small.mov'
p883
sg20
(lp884
g855
ag859
ag64
ag865
ag869
ag873
ag877
ag64
asg22
S'As for John giving the teacher cars, how many did he give him/her?'
p885
sg24
g474
ssI28
(dp886
g2
(lp887
(lp888
S'TEACHER'
p889
aS'240'
p890
aS'280'
p891
aa(lp892
S'NOW'
p893
aS'340'
p894
aS'380'
p895
aa(lp896
S'IX-3p:i'
p897
aS'460'
p898
aS'500'
p899
aa(lp900
S'HOUSE'
p901
aS'620'
p902
aS'760'
p903
aa(lp904
S'IX-loc:i'
p905
aS'800'
p906
aS'820'
p907
aa(lp908
g64
aS'920'
p909
aasg16
S'1080'
p910
sg18
S'858_675_master_small.mov'
p911
sg20
(lp912
g889
ag893
ag897
ag901
ag905
ag64
asg22
S'The teacher now is at the house there.'
p913
sg24
S'120'
p914
ssI29
(dp915
g2
(lp916
(lp917
S'IX-3p:i'
p918
aS'240'
p919
aS'280'
p920
aa(lp921
S'TEACHER'
p922
aS'380'
p923
aS'420'
p924
aa(lp925
S'IN'
p926
aS'520'
p927
aS'540'
p928
aa(lp929
S'(2h)IX-3p:j'
p930
aS'600'
p931
aS'600'
p932
aa(lp933
S'HOUSE'
p934
aS'720'
p935
aS'760'
p936
aa(lp937
S'IX-loc:j'
p938
aS'780'
p939
aS'840'
p940
aa(lp941
g64
aS'980'
p942
aasg16
S'1200'
p943
sg18
S'859_676_master_small.mov'
p944
sg20
(lp945
g918
ag922
ag926
ag930
ag934
ag938
ag64
asg22
S'Is the teacher in the house there?'
p946
sg24
S'140'
p947
ssI30
(dp948
g2
(lp949
(lp950
S'(1h)TEACHER'
p951
aS'280'
p952
aS'400'
p953
aa(lp954
S'FINISH'
p955
aS'500'
p956
aS'640'
p957
aa(lp958
S'IN'
p959
aS'740'
p960
aS'780'
p961
aa(lp962
S'HOUSE'
p963
aS'900'
p964
aS'960'
p965
aa(lp966
S'IX-loc:i'
p967
aS'1000'
p968
aS'1040'
p969
aa(lp970
g64
aS'1240'
p971
aasg16
S'1440'
p972
sg18
S'860_677_master_small.mov'
p973
sg20
(lp974
g951
ag955
ag959
ag963
ag967
ag64
asg22
S'Is the teacher already in the house?'
p975
sg24
S'140'
p976
ssI31
(dp977
g2
(lp978
(lp979
S'TEACHER'
p980
aS'140'
p981
aS'180'
p982
aa(lp983
S'NOT'
p984
aS'280'
p985
aS'280'
p986
aa(lp987
S'IN'
p988
aS'360'
p989
aS'380'
p990
aa(lp991
S'HOUSE'
p992
aS'480'
p993
aS'500'
p994
aa(lp995
S'IX-loc:i'
p996
aS'600'
p997
aS'640'
p998
aa(lp999
g64
aS'720'
p1000
aasg16
S'960'
p1001
sg18
S'861_678_master_small.mov'
p1002
sg20
(lp1003
g980
ag984
ag988
ag992
ag996
ag64
asg22
S'The teacher is not in (that) house there.'
p1004
sg24
S'80'
p1005
ssI32
(dp1006
g2
(lp1007
(lp1008
S'TEACHER'
p1009
aS'260'
p1010
aS'300'
p1011
aa(lp1012
S'IN'
p1013
aS'380'
p1014
aS'400'
p1015
aa(lp1016
S'IX-3p:i'
p1017
aS'500'
p1018
aS'500'
p1019
aa(lp1020
S'CAR'
p1021
aS'580'
p1022
aS'800'
p1023
aasg16
S'1020'
p1024
sg18
S'862_679_master_small.mov'
p1025
sg20
(lp1026
g1009
ag1013
ag1017
ag1021
asg22
S'The teacher is in the car.'
p1027
sg24
S'200'
p1028
ss.