(dp0
I0
(dp1
S'Annotated'
p2
(lp3
(lp4
S'fs-JOHN'
p5
aS'360'
p6
aS'560'
p7
aa(lp8
S'FINISH'
p9
aS'660'
p10
aS'720'
p11
aa(lp12
S'READ+'
p13
aS'920'
p14
aS'1100'
p15
aa(lp16
S'BOOK+'
p17
aS'1240'
p18
aS'1400'
p19
aasS'EndFrame'
p20
S'1620'
p21
sS'Video'
p22
S'669_474_master_small.mov'
p23
sS'Words'
p24
(lp25
g5
ag9
ag13
ag17
asS'English'
p26
S'John finished reading the book.'
p27
sS'StartFrame'
p28
S'100'
p29
ssI1
(dp30
g2
(lp31
(lp32
S'fs-JOHN'
p33
aS'400'
p34
aS'520'
p35
aa(lp36
S'FINISH'
p37
aS'600'
p38
aS'700'
p39
aa(lp40
S'READ'
p41
aS'760'
p42
aS'800'
p43
aa(lp44
S'BOOK'
p45
aS'920'
p46
aS'940'
p47
aa(lp48
S'WHEN'
p49
aS'1040'
p50
aS'1260'
p51
aa(lp52
S'punct'
p53
aS'1600'
p54
aasg20
S'1740'
p55
sg22
S'670_475_master_small.mov'
p56
sg24
(lp57
g33
ag37
ag41
ag45
ag49
ag53
asg26
S'When did John finish reading the book?'
p58
sg28
S'220'
p59
ssI2
(dp60
g2
(lp61
(lp62
S'fs-JOHN'
p63
aS'220'
p64
aS'340'
p65
aa(lp66
S'FINISH'
p67
aS'400'
p68
aS'460'
p69
aa(lp70
S'READ'
p71
aS'540'
p72
aS'580'
p73
aa(lp74
S'BOOK'
p75
aS'680'
p76
aS'700'
p77
aa(lp78
S'WHEN'
p79
aS'840'
p80
aS'1060'
p81
aa(lp82
g53
aS'1260'
p83
aasg20
S'1420'
p84
sg22
S'671_476_master_small.mov'
p85
sg24
(lp86
g63
ag67
ag71
ag75
ag79
ag53
asg26
S'When did John finish reading the book?'
p87
sg28
S'0'
p88
ssI3
(dp89
g2
(lp90
(lp91
S'fs-JOHN'
p92
aS'420'
p93
aS'600'
p94
aa(lp95
S'NOT-YET'
p96
aS'700'
p97
aS'900'
p98
aa(lp99
S'FINISH'
p100
aS'980'
p101
aS'1060'
p102
aa(lp103
S'READ'
p104
aS'1160'
p105
aS'1200'
p106
aa(lp107
S'BOOK'
p108
aS'1340'
p109
aS'1460'
p110
aasg20
S'1620'
p111
sg22
S'672_477_master_small.mov'
p112
sg24
(lp113
g92
ag96
ag100
ag104
ag108
asg26
S'John has not yet finished reading the book.'
p114
sg28
S'200'
p115
ssI4
(dp116
g2
(lp117
(lp118
S'fs-JOHN'
p119
aS'560'
p120
aS'720'
p121
aa(lp122
S'FUTURE'
p123
aS'920'
p124
aS'980'
p125
aa(lp126
S'FINISH'
p127
aS'1140'
p128
aS'1220'
p129
aa(lp130
S'READ'
p131
aS'1320'
p132
aS'1380'
p133
aa(lp134
S'BOOK'
p135
aS'1460'
p136
aS'1520'
p137
aa(lp138
S'WHEN'
p139
aS'1620'
p140
aS'1820'
p141
aa(lp142
g53
aS'2000'
p143
aasg20
S'2140'
p144
sg22
S'673_478_master_small.mov'
p145
sg24
(lp146
g119
ag123
ag127
ag131
ag135
ag139
ag53
asg26
S'When will John finish reading the book?'
p147
sg28
S'260'
p148
ssI5
(dp149
g2
(lp150
(lp151
S'fs-JOHN'
p152
aS'1100'
p153
aS'1280'
p154
aa(lp155
S'FUTURE'
p156
aS'1400'
p157
aS'1460'
p158
aa(lp159
S'FINISH'
p160
aS'1540'
p161
aS'1580'
p162
aa(lp163
S'READ'
p164
aS'1640'
p165
aS'1680'
p166
aa(lp167
S'BOOK'
p168
aS'1720'
p169
aS'1740'
p170
aa(lp171
S'WHEN'
p172
aS'1820'
p173
aS'2080'
p174
aa(lp175
g53
aS'2320'
p176
aasg20
S'2480'
p177
sg22
S'674_479_master_small.mov'
p178
sg24
(lp179
g152
ag156
ag160
ag164
ag168
ag172
ag53
asg26
S'When will John finish reading the book?'
p180
sg28
S'840'
p181
ssI6
(dp182
g2
(lp183
(lp184
S'fs-JOHN'
p185
aS'500'
p186
aS'620'
p187
aa(lp188
S'FINISH'
p189
aS'680'
p190
aS'740'
p191
aa(lp192
S'READ+'
p193
aS'840'
p194
aS'960'
p195
aa(lp196
S'BOOK'
p197
aS'1060'
p198
aS'1160'
p199
aa(lp200
g53
aS'1460'
p201
aasg20
S'1580'
p202
sg22
S'675_480_master_small.mov'
p203
sg24
(lp204
g185
ag189
ag193
ag197
ag53
asg26
S'Has John finished reading the book?'
p205
sg28
S'400'
p206
ssI7
(dp207
g2
(lp208
(lp209
S'fs-JOHN'
p210
aS'600'
p211
aS'740'
p212
aa(lp213
S'FINISH'
p214
aS'840'
p215
aS'920'
p216
aa(lp217
S'READ'
p218
aS'1020'
p219
aS'1060'
p220
aa(lp221
S'BOOK'
p222
aS'1140'
p223
aS'1220'
p224
aa(lp225
S'QMwg'
p226
aS'1340'
p227
aS'1680'
p228
aa(lp229
g53
aS'1840'
p230
aasg20
S'1980'
p231
sg22
S'676_481_master_small.mov'
p232
sg24
(lp233
g210
ag214
ag218
ag222
ag226
ag53
asg26
S'Did John finish reading the book?'
p234
sg28
S'360'
p235
ssI8
(dp236
g2
(lp237
(lp238
S'THAT:i'
p239
aS'380'
p240
aS'420'
p241
aa(lp242
S'BOOK'
p243
aS'520'
p244
aS'540'
p245
aa(lp246
S'IX-loc:i'
p247
aS'600'
p248
aS'640'
p249
aa(lp250
g53
aS'700'
p251
aa(lp252
S'fs-JOHN'
p253
aS'800'
p254
aS'920'
p255
aa(lp256
S'FINISH'
p257
aS'1000'
p258
aS'1060'
p259
aa(lp260
S'READ'
p261
aS'1220'
p262
aS'1260'
p263
aa(lp264
S'YESTERDAY'
p265
aS'1420'
p266
aS'1580'
p267
aa(lp268
g53
aS'1640'
p269
aasg20
S'1760'
p270
sg22
S'681_482_master_small.mov'
p271
sg24
(lp272
g239
ag243
ag247
ag53
ag253
ag257
ag261
ag265
ag53
asg26
S'That book there, John (already) read it yesterday.'
p273
sg28
S'280'
p274
ssI9
(dp275
g2
(lp276
(lp277
S'AFTER'
p278
aS'420'
p279
aS'480'
p280
aa(lp281
S'CLASS'
p282
aS'620'
p283
aS'720'
p284
aa(lp285
S'fs-JOHN'
p286
aS'800'
p287
aS'880'
p288
aa(lp289
S'FINISH'
p290
aS'940'
p291
aS'1000'
p292
aa(lp293
S'READ'
p294
aS'1080'
p295
aS'1160'
p296
aa(lp297
S'BOOK'
p298
aS'1240'
p299
aS'1300'
p300
aa(lp301
g53
aS'1340'
p302
aasg20
S'1500'
p303
sg22
S'677_483_master_small.mov'
p304
sg24
(lp305
g278
ag282
ag286
ag290
ag294
ag298
ag53
asg26
S'After class, John read the book.'
p306
sg28
S'160'
p307
ssI10
(dp308
g2
(lp309
(lp310
S'SUPPOSE'
p311
aS'640'
p312
aS'680'
p313
aa(lp314
S'TEACHER'
p315
aS'800'
p316
aS'880'
p317
aa(lp318
S'REQUIRE'
p319
aS'1260'
p320
aS'1380'
p321
aa(lp322
g53
aS'1420'
p323
aa(lp324
S'fs-JOHN'
p325
aS'1520'
p326
aS'1600'
p327
aa(lp328
S'FUTURE'
p329
aS'1680'
p330
aS'1720'
p331
aa(lp332
S'READ+'
p333
aS'1800'
p334
aS'1900'
p335
aa(lp336
S'BOOK'
p337
aS'1960'
p338
aS'2060'
p339
aa(lp340
S'part:indef'
p341
aS'2080'
p342
aS'2160'
p343
aasg20
S'2280'
p344
sg22
S'678_484_master_small.mov'
p345
sg24
(lp346
g311
ag315
ag319
ag53
ag325
ag329
ag333
ag337
ag341
asg26
S'If the teacher requires it, John will read the book.'
p347
sg28
S'460'
p348
ssI11
(dp349
g2
(lp350
(lp351
S'fs-JOHN'
p352
aS'440'
p353
aS'560'
p354
aa(lp355
S'READ'
p356
aS'660'
p357
aS'760'
p358
aa(lp359
S'BOOK'
p360
aS'840'
p361
aS'940'
p362
aa(lp363
g53
aS'1020'
p364
aa(lp365
S'FINISH'
p366
aS'1140'
p367
aS'1220'
p368
aasg20
S'1540'
p369
sg22
S'679_485_master_small.mov'
p370
sg24
(lp371
g352
ag356
ag360
ag53
ag366
asg26
S'Did John read the book?  Yes, he already did.'
p372
sg28
S'240'
p373
ssI12
(dp374
g2
(lp375
(lp376
S'fs-JOHN'
p377
aS'460'
p378
aS'580'
p379
aa(lp380
S'READ'
p381
aS'740'
p382
aS'800'
p383
aa(lp384
S'BOOK'
p385
aS'880'
p386
aS'920'
p387
aa(lp388
S'ABOUT'
p389
aS'980'
p390
aS'1080'
p391
aa(lp392
S'WHAT'
p393
aS'1180'
p394
aS'1340'
p395
aa(lp396
g53
aS'1500'
p397
aasg20
S'1600'
p398
sg22
S'680_486_master_small.mov'
p399
sg24
(lp400
g377
ag381
ag385
ag389
ag393
ag53
asg26
S'What is John reading a book about?'
p401
sg28
S'200'
p402
ssI13
(dp403
g2
(lp404
(lp405
S'fs-JOHN'
p406
aS'480'
p407
aS'600'
p408
aa(lp409
S'READ'
p410
aS'740'
p411
aS'780'
p412
aa(lp413
S'BOOK'
p414
aS'840'
p415
aS'880'
p416
aa(lp417
S'ABOUT'
p418
aS'1000'
p419
aS'1080'
p420
aa(lp421
S'WHAT'
p422
aS'1180'
p423
aS'1340'
p424
aa(lp425
g53
aS'1460'
p426
aasg20
S'1600'
p427
sg22
S'682_487_master_small.mov'
p428
sg24
(lp429
g406
ag410
ag414
ag418
ag422
ag53
asg26
S'What is John reading a book about?'
p430
sg28
S'340'
p431
ssI14
(dp432
g2
(lp433
(lp434
S'fs-JOHN'
p435
aS'480'
p436
aS'600'
p437
aa(lp438
S'READ'
p439
aS'740'
p440
aS'780'
p441
aa(lp442
S'BOOK'
p443
aS'840'
p444
aS'880'
p445
aa(lp446
S'ABOUT'
p447
aS'1000'
p448
aS'1080'
p449
aa(lp450
S'WHAT'
p451
aS'1160'
p452
aS'1320'
p453
aa(lp454
g53
aS'1480'
p455
aasg20
S'1640'
p456
sg22
S'683_488_master_small.mov'
p457
sg24
(lp458
g435
ag439
ag443
ag447
ag451
ag53
asg26
S'What is John reading a book about?'
p459
sg28
S'320'
p460
ssI15
(dp461
g2
(lp462
(lp463
S'fs-JOHN'
p464
aS'600'
p465
aS'720'
p466
aa(lp467
S'NEED'
p468
aS'800'
p469
aS'840'
p470
aa(lp471
S'MORE'
p472
aS'960'
p473
aS'1040'
p474
aa(lp475
S'INFORMATION'
p476
aS'1180'
p477
aS'1300'
p478
aa(lp479
g53
aS'1400'
p480
aa(lp481
S'FUTURE'
p482
aS'1540'
p483
aS'1580'
p484
aa(lp485
S'READ+'
p486
aS'1680'
p487
aS'1820'
p488
aa(lp489
S'BOOK'
p490
aS'1880'
p491
aS'1980'
p492
aa(lp493
S'THUMB-IX-3p:i'
p494
aS'2060'
p495
aS'2160'
p496
aasg20
S'2300'
p497
sg22
S'684_489_master_small.mov'
p498
sg24
(lp499
g464
ag468
ag472
ag476
ag53
ag482
ag486
ag490
ag494
asg26
S'If John needs more information, he will read the book.'
p500
sg28
S'220'
p501
ssI16
(dp502
g2
(lp503
(lp504
S'fs-JOHN'
p505
aS'440'
p506
aS'560'
p507
aa(lp508
S'READ'
p509
aS'620'
p510
aS'660'
p511
aa(lp512
S'BOOK'
p513
aS'800'
p514
aS'860'
p515
aa(lp516
g53
aS'960'
p517
aa(lp518
S'FUTURE'
p519
aS'1140'
p520
aS'1220'
p521
aa(lp522
S'KNOW'
p523
aS'1260'
p524
aS'1300'
p525
aa(lp526
S'MORE'
p527
aS'1420'
p528
aS'1480'
p529
aa(lp530
S'ABOUT'
p531
aS'1540'
p532
aS'1660'
p533
aa(lp534
S'ns-LINCOLN'
p535
aS'1820'
p536
aS'1860'
p537
aa(lp538
S'POSS-3p:i'
p539
aS'1940'
p540
aS'2000'
p541
aa(lp542
S'LIFE'
p543
aS'2140'
p544
aS'2240'
p545
aa(lp546
g53
aS'2420'
p547
aasg20
S'2660'
p548
sg22
S'685_490_master_small.mov'
p549
sg24
(lp550
g505
ag509
ag513
ag53
ag519
ag523
ag527
ag531
ag535
ag539
ag543
ag53
asg26
S"If John reads the book, he will know more about Lincoln's life."
p551
sg28
S'180'
p552
ssI17
(dp553
g2
(lp554
(lp555
S'fs-JOHN'
p556
aS'380'
p557
aS'520'
p558
aa(lp559
S'READ'
p560
aS'660'
p561
aS'700'
p562
aa(lp563
S'BOOK'
p564
aS'740'
p565
aS'840'
p566
aa(lp567
g53
aS'900'
p568
aa(lp569
S'FUTURE'
p570
aS'1100'
p571
aS'1140'
p572
aa(lp573
S'KNOW'
p574
aS'1220'
p575
aS'1240'
p576
aa(lp577
S'MORE'
p578
aS'1360'
p579
aS'1440'
p580
aa(lp581
S'ABOUT'
p582
aS'1480'
p583
aS'1600'
p584
aa(lp585
S'ns-LINCOLN'
p586
aS'1760'
p587
aS'1780'
p588
aa(lp589
S'POSS-3p:j'
p590
aS'1900'
p591
aS'1920'
p592
aa(lp593
S'LIFE'
p594
aS'2080'
p595
aS'2180'
p596
aasg20
S'2460'
p597
sg22
S'686_491_master_small.mov'
p598
sg24
(lp599
g556
ag560
ag564
ag53
ag570
ag574
ag578
ag582
ag586
ag590
ag594
asg26
S"If John reads the book, he will know more about Lincoln's life."
p600
sg28
S'260'
p601
ssI18
(dp602
g2
(lp603
(lp604
S'fs-JOHN'
p605
aS'360'
p606
aS'460'
p607
aa(lp608
S'FIND/FIND-OUT'
p609
aS'520'
p610
aS'600'
p611
aa(lp612
S'FUTURE'
p613
aS'700'
p614
aS'740'
p615
aa(lp616
S'EXAM'
p617
aS'900'
p618
aS'1340'
p619
aa(lp620
S'(L)FUTURE'
p621
aS'1500'
p622
aS'1540'
p623
aa(lp624
S'(1h)DCL:Bhair on head raising'
p625
aS'1680'
p626
aS'1740'
p627
aa(lp628
S'PROCEED'
p629
aS'1920'
p630
aS'2020'
p631
aa(lp632
S'READ'
p633
aS'2100'
p634
aS'2160'
p635
aa(lp636
S'BOOK'
p637
aS'2280'
p638
aS'2380'
p639
aasg20
S'2520'
p640
sg22
S'687_492_master_small.mov'
p641
sg24
(lp642
g605
ag609
ag613
ag617
ag621
ag625
ag629
ag633
ag637
asg26
S'When John finds out there will be a test, he will panic and be compelled to read the book.'
p643
sg28
S'140'
p644
ssI19
(dp645
g2
(lp646
(lp647
S'TEACHER'
p648
aS'800'
p649
aS'900'
p650
aa(lp651
S'(2h)GIVE-indef'
p652
aS'1000'
p653
aS'1060'
p654
aa(lp655
S'EXAM'
p656
aS'1200'
p657
aS'1520'
p658
aa(lp659
S'IX-3p:i'
p660
aS'1600'
p661
aS'1620'
p662
aa(lp663
S'fs-JOHN'
p664
aS'1680'
p665
aS'1740'
p666
aa(lp667
S'FUTURE'
p668
aS'1820'
p669
aS'1860'
p670
aa(lp671
S'READ'
p672
aS'1920'
p673
aS'2000'
p674
aa(lp675
S'BOOK'
p676
aS'2080'
p677
aS'2140'
p678
aa(lp679
S'IX-loc:j'
p680
aS'2220'
p681
aS'2240'
p682
aasg20
S'2240'
p683
sg22
S'688_493_master_small.mov'
p684
sg24
(lp685
g648
ag652
ag656
ag660
ag664
ag668
ag672
ag676
ag680
asg26
S'When the teacher gives out the test, John will read the book.'
p686
sg28
S'520'
p687
ssI20
(dp688
g2
(lp689
(lp690
S'STUDENT'
p691
aS'520'
p692
aS'700'
p693
aa(lp694
S'POSS-3p:i'
p695
aS'820'
p696
aS'860'
p697
aa(lp698
S'FATHER'
p699
aS'980'
p700
aS'1060'
p701
aa(lp702
S'BUY'
p703
aS'1220'
p704
aS'1280'
p705
aa(lp706
S'HOUSE'
p707
aS'1400'
p708
aS'1560'
p709
aa(lp710
g53
aS'1580'
p711
aasg20
S'1660'
p712
sg22
S'689_494_master_small.mov'
p713
sg24
(lp714
g691
ag695
ag699
ag703
ag707
ag53
asg26
S"The student's father bought a house."
p715
sg28
S'400'
p716
ssI21
(dp717
g2
(lp718
(lp719
S'STUDENT'
p720
aS'580'
p721
aS'720'
p722
aa(lp723
S'POSS-3p:i'
p724
aS'820'
p725
aS'860'
p726
aa(lp727
S'MOTHER'
p728
aS'960'
p729
aS'1060'
p730
aa(lp731
S'BUY'
p732
aS'1200'
p733
aS'1240'
p734
aa(lp735
S'CAR'
p736
aS'1320'
p737
aS'1560'
p738
aasg20
S'1600'
p739
sg22
S'690_495_master_small.mov'
p740
sg24
(lp741
g720
ag724
ag728
ag732
ag736
asg26
S"The student's mother bought a car."
p742
sg28
S'300'
p743
ssI22
(dp744
g2
(lp745
(lp746
S'STUDENT'
p747
aS'440'
p748
aS'540'
p749
aa(lp750
S'FUTURE'
p751
aS'640'
p752
aS'660'
p753
aa(lp754
S'BUY'
p755
aS'760'
p756
aS'820'
p757
aa(lp758
S'POSS-3p:i'
p759
aS'980'
p760
aS'1020'
p761
aa(lp762
S'MOTHER+'
p763
aS'1120'
p764
aS'1220'
p765
aa(lp766
S'CAR'
p767
aS'1360'
p768
aS'1580'
p769
aasg20
S'1740'
p770
sg22
S'691_496_master_small.mov'
p771
sg24
(lp772
g747
ag751
ag755
ag759
ag763
ag767
asg26
S"The student will buy his/her mother's car."
p773
sg28
S'300'
p774
ssI23
(dp775
g2
(lp776
(lp777
S'STUDENT'
p778
aS'620'
p779
aS'760'
p780
aa(lp781
S'POSS-3p:i'
p782
aS'880'
p783
aS'900'
p784
aa(lp785
S'FATHER'
p786
aS'1040'
p787
aS'1080'
p788
aa(lp789
S'FUTURE'
p790
aS'1180'
p791
aS'1200'
p792
aa(lp793
S'BUY'
p794
aS'1260'
p795
aS'1320'
p796
aa(lp797
S'WHICH'
p798
aS'1400'
p799
aS'1580'
p800
aa(lp801
S'HOUSE'
p802
aS'1660'
p803
aS'1800'
p804
aa(lp805
S'part:indef'
p806
aS'1860'
p807
aS'1920'
p808
aasg20
S'2120'
p809
sg22
S'692_497_master_small.mov'
p810
sg24
(lp811
g778
ag782
ag786
ag790
ag794
ag798
ag802
ag806
asg26
S"Which house will the student's father buy?"
p812
sg28
S'180'
p813
ssI24
(dp814
g2
(lp815
(lp816
S'MOTHER'
p817
aS'720'
p818
aS'740'
p819
aa(lp820
S'READ+'
p821
aS'840'
p822
aS'1000'
p823
aa(lp824
S'BOOK'
p825
aS'1120'
p826
aS'1280'
p827
aasg20
S'1420'
p828
sg22
S'693_498_master_small.mov'
p829
sg24
(lp830
g817
ag821
ag825
asg26
S'Mother is reading a book.'
p831
sg28
S'660'
p832
ssI25
(dp833
g2
(lp834
(lp835
S'MOTHER'
p836
aS'280'
p837
aS'360'
p838
aa(lp839
S'READ+'
p840
aS'740'
p841
aS'880'
p842
aa(lp843
S'BOOK'
p844
aS'960'
p845
aS'1020'
p846
aa(lp847
g53
aS'1060'
p848
aasg20
S'1180'
p849
sg22
S'694_499_master_small.mov'
p850
sg24
(lp851
g836
ag840
ag844
ag53
asg26
S'Mother was reading a book.'
p852
sg28
S'60'
p853
ssI26
(dp854
g2
(lp855
(lp856
S'MOTHER'
p857
aS'540'
p858
aS'580'
p859
aa(lp860
S'PLAN'
p861
aS'660'
p862
aS'760'
p863
aa(lp864
S'READ'
p865
aS'860'
p866
aS'900'
p867
aa(lp868
S'THAT:i'
p869
aS'1000'
p870
aS'1040'
p871
aa(lp872
S'BOOK'
p873
aS'1100'
p874
aS'1160'
p875
aa(lp876
S'IX-3p:i'
p877
aS'1200'
p878
aS'1280'
p879
aasg20
S'1480'
p880
sg22
S'695_500_master_small.mov'
p881
sg24
(lp882
g857
ag861
ag865
ag869
ag873
ag877
asg26
S'Mother plans to read that book.'
p883
sg28
S'300'
p884
ssI27
(dp885
g2
(lp886
(lp887
S'MOTHER'
p888
aS'300'
p889
aS'380'
p890
aa(lp891
S'FUTURE'
p892
aS'500'
p893
aS'520'
p894
aa(lp895
S'READ'
p896
aS'620'
p897
aS'660'
p898
aa(lp899
S'THAT:i'
p900
aS'740'
p901
aS'780'
p902
aa(lp903
S'BOOK'
p904
aS'840'
p905
aS'880'
p906
aa(lp907
S'IX-3p:i'
p908
aS'980'
p909
aS'1080'
p910
aa(lp911
g53
aS'1180'
p912
aa(lp913
S'QMwg'
p914
aS'1300'
p915
aS'1460'
p916
aa(lp917
g53
aS'1480'
p918
aasg20
S'1860'
p919
sg22
S'696_501_master_small.mov'
p920
sg24
(lp921
g888
ag892
ag896
ag900
ag904
ag908
ag53
ag914
ag53
asg26
S'Will mother read that book?'
p922
sg28
S'100'
p923
ssI28
(dp924
g2
(lp925
(lp926
S'MOTHER'
p927
aS'680'
p928
aS'720'
p929
aa(lp930
S'FINISH'
p931
aS'800'
p932
aS'840'
p933
aa(lp934
S'READ'
p935
aS'900'
p936
aS'960'
p937
aa(lp938
S'IX-3p:i'
p939
aS'1080'
p940
aS'1120'
p941
aa(lp942
S'BOOK'
p943
aS'1180'
p944
aS'1200'
p945
aa(lp946
S'IX-3p:j'
p947
aS'1260'
p948
aS'1300'
p949
aa(lp950
S'QMwg'
p951
aS'1460'
p952
aS'1660'
p953
aa(lp954
g53
aS'1780'
p955
aasg20
S'2000'
p956
sg22
S'697_502_master_small.mov'
p957
sg24
(lp958
g927
ag931
ag935
ag939
ag943
ag947
ag951
ag53
asg26
S'Has mother already read that book?'
p959
sg28
S'400'
p960
ssI29
(dp961
g2
(lp962
(lp963
S'MOTHER'
p964
aS'360'
p965
aS'380'
p966
aa(lp967
S'SHOULD'
p968
aS'440'
p969
aS'600'
p970
aa(lp971
S'BUY'
p972
aS'720'
p973
aS'760'
p974
aa(lp975
S'CAR'
p976
aS'840'
p977
aS'1160'
p978
aasg20
S'1240'
p979
sg22
S'698_503_master_small.mov'
p980
sg24
(lp981
g964
ag968
ag972
ag976
asg26
S'Mother should buy a car.'
p982
sg28
S'320'
p983
ssI30
(dp984
g2
(lp985
(lp986
S'FATHER'
p987
aS'360'
p988
aS'380'
p989
aa(lp990
S'SHOULD'
p991
aS'460'
p992
aS'600'
p993
aa(lp994
S'BUY'
p995
aS'720'
p996
aS'780'
p997
aa(lp998
S'BOOK'
p999
aS'840'
p1000
aS'1000'
p1001
aasg20
S'1040'
p1002
sg22
S'699_504_master_small.mov'
p1003
sg24
(lp1004
g987
ag991
ag995
ag999
asg26
S'Father should buy a book.'
p1005
sg28
S'240'
p1006
ssI31
(dp1007
g2
(lp1008
(lp1009
S'FATHER'
p1010
aS'340'
p1011
aS'440'
p1012
aa(lp1013
S'SHOULD'
p1014
aS'480'
p1015
aS'540'
p1016
aa(lp1017
S'BUY'
p1018
aS'660'
p1019
aS'700'
p1020
aa(lp1021
S'THAT'
p1022
aS'780'
p1023
aS'800'
p1024
aa(lp1025
S'BOOK'
p1026
aS'860'
p1027
aS'880'
p1028
aa(lp1029
S'(Y)WHY'
p1030
aS'1000'
p1031
aS'1060'
p1032
aa(lp1033
g53
aS'1380'
p1034
aasg20
S'1560'
p1035
sg22
S'700_505_master_small.mov'
p1036
sg24
(lp1037
g1010
ag1014
ag1018
ag1022
ag1026
ag1030
ag53
asg26
S'Why should father buy that book?'
p1038
sg28
S'220'
p1039
ssI32
(dp1040
g2
(lp1041
(lp1042
S'MOTHER'
p1043
aS'480'
p1044
aS'520'
p1045
aa(lp1046
S'SHOULD'
p1047
aS'560'
p1048
aS'660'
p1049
aa(lp1050
S'NOT'
p1051
aS'780'
p1052
aS'840'
p1053
aa(lp1054
S'BUY'
p1055
aS'940'
p1056
aS'1000'
p1057
aa(lp1058
S'CAR'
p1059
aS'1060'
p1060
aS'1320'
p1061
aa(lp1062
S'part:indef'
p1063
aS'1420'
p1064
aS'1440'
p1065
aasg20
S'2480'
p1066
sg22
S'701_506_master_small.mov'
p1067
sg24
(lp1068
g1043
ag1047
ag1051
ag1055
ag1059
ag1063
asg26
S'Mother should not have bought a car.'
p1069
sg28
S'260'
p1070
ssI33
(dp1071
g2
(lp1072
(lp1073
S'MOTHER'
p1074
aS'380'
p1075
aS'420'
p1076
aa(lp1077
S'SHOULD'
p1078
aS'460'
p1079
aS'520'
p1080
aa(lp1081
S'BUY'
p1082
aS'620'
p1083
aS'640'
p1084
aa(lp1085
S'CAR'
p1086
aS'700'
p1087
aS'780'
p1088
aa(lp1089
S'(Y)WHY'
p1090
aS'860'
p1091
aS'1020'
p1092
aa(lp1093
g53
aS'1040'
p1094
aa(lp1095
S'(1h)part:indef'
p1096
aS'1060'
p1097
aS'1140'
p1098
aa(lp1099
g53
aS'1360'
p1100
aasg20
S'1380'
p1101
sg22
S'703_508_master_small.mov'
p1102
sg24
(lp1103
g1074
ag1078
ag1082
ag1086
ag1090
ag53
ag1096
ag53
asg26
S'Why should mother buy a car?'
p1104
sg28
S'180'
p1105
ssI34
(dp1106
g2
(lp1107
(lp1108
S'IX-1p'
p1109
aS'540'
p1110
aS'560'
p1111
aa(lp1112
S'NEVER'
p1113
aS'720'
p1114
aS'840'
p1115
aa(lp1116
S'SEE'
p1117
aS'980'
p1118
aS'1000'
p1119
aa(lp1120
S'fs-JOHN'
p1121
aS'1060'
p1122
aS'1160'
p1123
aa(lp1124
S'POSS-3p:j'
p1125
aS'1240'
p1126
aS'1280'
p1127
aa(lp1128
S'CAR'
p1129
aS'1360'
p1130
aS'1600'
p1131
aa(lp1132
S'part:indef'
p1133
aS'1680'
p1134
aS'1720'
p1135
aasg20
S'1780'
p1136
sg22
S'704_509_master_small.mov'
p1137
sg24
(lp1138
g1109
ag1113
ag1117
ag1121
ag1125
ag1129
ag1133
asg26
S"I've never seen John's car."
p1139
sg28
S'320'
p1140
ssI35
(dp1141
g2
(lp1142
(lp1143
S'fs-JOHN'
p1144
aS'380'
p1145
aS'520'
p1146
aa(lp1147
S'POSS-3p:i'
p1148
aS'600'
p1149
aS'620'
p1150
aa(lp1151
S'CAR'
p1152
aS'680'
p1153
aS'860'
p1154
aa(lp1155
S'IX-1p'
p1156
aS'960'
p1157
aS'980'
p1158
aa(lp1159
S'NEVER'
p1160
aS'1040'
p1161
aS'1160'
p1162
aa(lp1163
S'SEE:j'
p1164
aS'1320'
p1165
aS'1460'
p1166
aa(lp1167
g53
aS'1540'
p1168
aasg20
S'1660'
p1169
sg22
S'705_510_master_small.mov'
p1170
sg24
(lp1171
g1144
ag1148
ag1152
ag1156
ag1160
ag1164
ag53
asg26
S"I've never seen John's car."
p1172
sg28
S'220'
p1173
ssI36
(dp1174
g2
(lp1175
(lp1176
S'fs-JOHN'
p1177
aS'460'
p1178
aS'620'
p1179
aa(lp1180
S'POSS-3p:i'
p1181
aS'680'
p1182
aS'720'
p1183
aa(lp1184
S'CAR'
p1185
aS'800'
p1186
aS'940'
p1187
aa(lp1188
S'IX-1p'
p1189
aS'1080'
p1190
aS'1100'
p1191
aa(lp1192
S'NEVER'
p1193
aS'1200'
p1194
aS'1320'
p1195
aa(lp1196
S'SEE:j'
p1197
aS'1440'
p1198
aS'1560'
p1199
aasg20
S'1720'
p1200
sg22
S'706_511_master_small.mov'
p1201
sg24
(lp1202
g1177
ag1181
ag1185
ag1189
ag1193
ag1197
asg26
S"As for John's car, I've never seen (it)."
p1203
sg28
S'280'
p1204
ssI37
(dp1205
g2
(lp1206
(lp1207
S'IX-3p:i'
p1208
aS'260'
p1209
aS'300'
p1210
aa(lp1211
S'fs-JOHN'
p1212
aS'460'
p1213
aS'580'
p1214
aa(lp1215
S'POSS-3p:j'
p1216
aS'660'
p1217
aS'680'
p1218
aa(lp1219
S'CAR'
p1220
aS'760'
p1221
aS'920'
p1222
aa(lp1223
g53
aS'980'
p1224
aasg20
S'980'
p1225
sg22
S'707_512_master_small.mov'
p1226
sg24
(lp1227
g1208
ag1212
ag1216
ag1220
ag53
asg26
S"That (right over there) is John's car."
p1228
sg28
S'140'
p1229
ssI38
(dp1230
g2
(lp1231
(lp1232
S'IX-3p:i'
p1233
aS'320'
p1234
aS'340'
p1235
aa(lp1236
S'fs-JOHN'
p1237
aS'420'
p1238
aS'500'
p1239
aa(lp1240
S'POSS-3p:j'
p1241
aS'620'
p1242
aS'640'
p1243
aa(lp1244
S'FATHER'
p1245
aS'780'
p1246
aS'820'
p1247
aa(lp1248
S'CAR'
p1249
aS'920'
p1250
aS'1120'
p1251
aasg20
S'1260'
p1252
sg22
S'708_513_master_small.mov'
p1253
sg24
(lp1254
g1233
ag1237
ag1241
ag1245
ag1249
asg26
S"That (right over there) is John's father's car."
p1255
sg28
S'160'
p1256
ssI39
(dp1257
g2
(lp1258
(lp1259
S'IX-3p:i'
p1260
aS'520'
p1261
aS'580'
p1262
aa(lp1263
S'fs-JOHN'
p1264
aS'740'
p1265
aS'840'
p1266
aa(lp1267
S'POSS-3p:j'
p1268
aS'920'
p1269
aS'940'
p1270
aa(lp1271
S'FATHER'
p1272
aS'1020'
p1273
aS'1040'
p1274
aa(lp1275
S'CAR'
p1276
aS'1140'
p1277
aS'1220'
p1278
aa(lp1279
S'QMwg'
p1280
aS'1340'
p1281
aS'1500'
p1282
aa(lp1283
g53
aS'1560'
p1284
aasg20
S'1680'
p1285
sg22
S'709_514_master_small.mov'
p1286
sg24
(lp1287
g1260
ag1264
ag1268
ag1272
ag1276
ag1280
ag53
asg26
S"Is that John's father's car?"
p1288
sg28
S'520'
p1289
ssI40
(dp1290
g2
(lp1291
(lp1292
S'WHO'
p1293
aS'440'
p1294
aS'460'
p1295
aa(lp1296
S'CAR'
p1297
aS'500'
p1298
aS'580'
p1299
aa(lp1300
S'IX-3p:i'
p1301
aS'660'
p1302
aS'680'
p1303
aa(lp1304
S'POSS-3p:j'
p1305
aS'820'
p1306
aS'840'
p1307
aa(lp1308
S'WHO'
p1309
aS'940'
p1310
aS'1040'
p1311
aa(lp1312
S'part:indef'
p1313
aS'1100'
p1314
aS'1220'
p1315
aa(lp1316
g53
aS'1400'
p1317
aasg20
S'1440'
p1318
sg22
S'710_515_master_small.mov'
p1319
sg24
(lp1320
g1293
ag1297
ag1301
ag1305
ag1309
ag1313
ag53
asg26
S'Whose car is that?'
p1321
sg28
S'260'
p1322
ssI41
(dp1323
g2
(lp1324
(lp1325
S'IX-3p:i'
p1326
aS'220'
p1327
aS'240'
p1328
aa(lp1329
S'FORMERLY'
p1330
aS'380'
p1331
aS'540'
p1332
aa(lp1333
S'POSS-3p:j'
p1334
aS'640'
p1335
aS'660'
p1336
aa(lp1337
S'fs-JOHN'
p1338
aS'720'
p1339
aS'840'
p1340
aa(lp1341
S'CAR'
p1342
aS'920'
p1343
aS'1180'
p1344
aasg20
S'1280'
p1345
sg22
S'711_516_master_small.mov'
p1346
sg24
(lp1347
g1326
ag1330
ag1334
ag1338
ag1342
asg26
S"That was John's car."
p1348
sg28
S'100'
p1349
ssI42
(dp1350
g2
(lp1351
(lp1352
S'FATHER'
p1353
aS'700'
p1354
aS'740'
p1355
aa(lp1356
S'!MUST!'
p1357
aS'1000'
p1358
aS'1100'
p1359
aa(lp1360
S'GIFT:j'
p1361
aS'1240'
p1362
aS'1340'
p1363
aa(lp1364
S'CAR'
p1365
aS'1400'
p1366
aS'1560'
p1367
aa(lp1368
S'fs-JOHN'
p1369
aS'1580'
p1370
aS'1720'
p1371
aa(lp1372
S'part:indef'
p1373
aS'1780'
p1374
aS'1940'
p1375
aasg20
S'2020'
p1376
sg22
S'712_517_master_small.mov'
p1377
sg24
(lp1378
g1353
ag1357
ag1361
ag1365
ag1369
ag1373
asg26
S'Father MUST give the car to John.'
p1379
sg28
S'460'
p1380
ssI43
(dp1381
g2
(lp1382
(lp1383
S'fs-JOHN'
p1384
aS'180'
p1385
aS'380'
p1386
aa(lp1387
S'POSS-3p:i'
p1388
aS'500'
p1389
aS'520'
p1390
aa(lp1391
S'FATHER'
p1392
aS'640'
p1393
aS'680'
p1394
aa(lp1395
S'MUST'
p1396
aS'760'
p1397
aS'840'
p1398
aa(lp1399
S'GIFT:j'
p1400
aS'940'
p1401
aS'1000'
p1402
aa(lp1403
S'CAR'
p1404
aS'1040'
p1405
aS'1200'
p1406
aa(lp1407
S'fs-MARY'
p1408
aS'1280'
p1409
aS'1420'
p1410
aa(lp1411
S'part:indef'
p1412
aS'1500'
p1413
aS'1680'
p1414
aasg20
S'1720'
p1415
sg22
S'713_518_master_small.mov'
p1416
sg24
(lp1417
g1384
ag1388
ag1392
ag1396
ag1400
ag1404
ag1408
ag1412
asg26
S"John's father must give a car to Mary."
p1418
sg28
S'120'
p1419
ssI44
(dp1420
g2
(lp1421
(lp1422
S'fs-JOHN'
p1423
aS'120'
p1424
aS'240'
p1425
aa(lp1426
S'(2h)SHOULD'
p1427
aS'280'
p1428
aS'340'
p1429
aa(lp1430
S'GIFT:j'
p1431
aS'460'
p1432
aS'560'
p1433
aa(lp1434
S'FATHER'
p1435
aS'720'
p1436
aS'740'
p1437
aa(lp1438
S'CAR'
p1439
aS'800'
p1440
aS'900'
p1441
aa(lp1442
S'part:indef'
p1443
aS'1040'
p1444
aS'1120'
p1445
aasg20
S'1180'
p1446
sg22
S'714_519_master_small.mov'
p1447
sg24
(lp1448
g1423
ag1427
ag1431
ag1435
ag1439
ag1443
asg26
S'John should give (his) father a car.'
p1449
sg28
S'100'
p1450
ssI45
(dp1451
g2
(lp1452
(lp1453
S'fs-JOHN'
p1454
aS'360'
p1455
aS'440'
p1456
aa(lp1457
S'FUTURE'
p1458
aS'620'
p1459
aS'700'
p1460
aa(lp1461
S'GIFT:j'
p1462
aS'820'
p1463
aS'900'
p1464
aa(lp1465
S'FATHER'
p1466
aS'1040'
p1467
aS'1060'
p1468
aa(lp1469
S'CAR'
p1470
aS'1160'
p1471
aS'1240'
p1472
aasg20
S'1340'
p1473
sg22
S'715_520_master_small.mov'
p1474
sg24
(lp1475
g1454
ag1458
ag1462
ag1466
ag1470
asg26
S'John will give (his) father a car.'
p1476
sg28
S'220'
p1477
ssI46
(dp1478
g2
(lp1479
(lp1480
S'MOTHER'
p1481
aS'600'
p1482
aS'620'
p1483
aa(lp1484
S'FUTURE'
p1485
aS'740'
p1486
aS'780'
p1487
aa(lp1488
S'BUY'
p1489
aS'900'
p1490
aS'980'
p1491
aa(lp1492
S'HOUSE'
p1493
aS'1080'
p1494
aS'1300'
p1495
aasg20
S'1620'
p1496
sg22
S'716_521_master_small.mov'
p1497
sg24
(lp1498
g1481
ag1485
ag1489
ag1493
asg26
S'Mother will buy a house.'
p1499
sg28
S'340'
p1500
ssI47
(dp1501
g2
(lp1502
(lp1503
S'MOTHER'
p1504
aS'700'
p1505
aS'740'
p1506
aa(lp1507
S'FUTURE'
p1508
aS'840'
p1509
aS'920'
p1510
aa(lp1511
S'NOT'
p1512
aS'940'
p1513
aS'1000'
p1514
aa(lp1515
S'BUY'
p1516
aS'1120'
p1517
aS'1180'
p1518
aa(lp1519
S'HOUSE'
p1520
aS'1280'
p1521
aS'1420'
p1522
aasg20
S'1540'
p1523
sg22
S'717_522_master_small.mov'
p1524
sg24
(lp1525
g1504
ag1508
ag1512
ag1516
ag1520
asg26
S'Mother will not buy a house.'
p1526
sg28
S'480'
p1527
ss.