(dp0
I0
(dp1
S'Annotated'
p2
(lp3
(lp4
S'REALLY'
p5
aS'620'
p6
aS'740'
p7
aa(lp8
S'(1h)WOW/AWFUL'
p9
aS'840'
p10
aS'960'
p11
aa(lp12
S'IX-3p:i'
p13
aS'1080'
p14
aS'1080'
p15
aa(lp16
S'fs-JOHN'
p17
aS'1140'
p18
aS'1280'
p19
aa(lp20
S'punct'
p21
aS'1340'
p22
aa(lp23
S'CAR'
p24
aS'1400'
p25
aS'1460'
p26
aa(lp27
S'STEAL'
p28
aS'1600'
p29
aS'1740'
p30
aasS'EndFrame'
p31
S'1920'
p32
sS'Video'
p33
S'_1000_small_0.mov'
p34
sS'Words'
p35
(lp36
g5
ag9
ag13
ag17
ag21
ag24
ag28
asS'English'
p37
S"WOW.   As for John's car, it was stolen."
p38
sS'StartFrame'
p39
S'580'
p40
ssI1
(dp41
g2
(lp42
(lp43
S'IX-loc:i'
p44
aS'540'
p45
aS'660'
p46
aa(lp47
S'THAT:i'
p48
aS'760'
p49
aS'780'
p50
aa(lp51
S'CAR'
p52
aS'840'
p53
aS'900'
p54
aa(lp55
S'IX-loc:i'
p56
aS'960'
p57
aS'1000'
p58
aa(lp59
S'fs-JOHN'
p60
aS'1080'
p61
aS'1180'
p62
aa(lp63
S'FATHERwg'
p64
aS'1320'
p65
aS'1420'
p66
aa(lp67
S'IX-loc:i'
p68
aS'1520'
p69
aS'1540'
p70
aasg31
S'1700'
p71
sg33
S'_1001_small_0.mov'
p72
sg35
(lp73
g44
ag48
ag52
ag56
ag60
ag64
ag68
asg37
S"It--that car there--is John's father's."
p74
sg39
S'400'
p75
ssI2
(dp76
g2
(lp77
(lp78
S'IX-3p:i'
p79
aS'680'
p80
aS'680'
p81
aa(lp82
S'CAR'
p83
aS'760'
p84
aS'820'
p85
aa(lp86
S'IX-loc:i'
p87
aS'940'
p88
aS'940'
p89
aa(lp90
g21
aS'960'
p91
aa(lp92
S'fs-JOHN'
p93
aS'1080'
p94
aS'1220'
p95
aa(lp96
S'FATHER'
p97
aS'1380'
p98
aS'1420'
p99
aasg31
S'1580'
p100
sg33
S'_1002_small_0.mov'
p101
sg35
(lp102
g79
ag83
ag87
ag21
ag93
ag97
asg37
S"Is that car there John's father's?"
p103
sg39
S'500'
p104
ssI3
(dp105
g2
(lp106
(lp107
S'IX-3p:i'
p108
aS'400'
p109
aS'440'
p110
aa(lp111
S'CAR'
p112
aS'500'
p113
aS'700'
p114
aa(lp115
S'WHO'
p116
aS'800'
p117
aS'960'
p118
aasg31
S'1240'
p119
sg33
S'_1003_small_0.mov'
p120
sg35
(lp121
g108
ag112
ag116
asg37
S'Whose car is that?'
p122
sg39
S'340'
p123
ssI4
(dp124
g2
(lp125
(lp126
S'IX-3p:i'
p127
aS'480'
p128
aS'480'
p129
aa(lp130
S'fs-JOHN'
p131
aS'540'
p132
aS'680'
p133
aa(lp134
S'FORMERLY'
p135
aS'780'
p136
aS'900'
p137
aa(lp138
S'CAR'
p139
aS'980'
p140
aS'1140'
p141
aa(lp142
S'IX-loc:j'
p143
aS'1300'
p144
aS'1300'
p145
aa(lp146
g21
aS'1360'
p147
aasg31
S'1500'
p148
sg33
S'_1004_small_0.mov'
p149
sg35
(lp150
g127
ag131
ag135
ag139
ag143
ag21
asg37
S"Is that John's former car?"
p151
sg39
S'380'
p152
ssI5
(dp153
g2
(lp154
(lp155
S'IX-3p:i'
p156
aS'260'
p157
aS'360'
p158
aa(lp159
g21
aS'620'
p160
aa(lp161
S'FATHERwg'
p162
aS'780'
p163
aS'860'
p164
aa(lp165
S'MUST'
p166
aS'960'
p167
aS'1040'
p168
aa(lp169
S'BUY'
p170
aS'1120'
p171
aS'1280'
p172
aa(lp173
S'CAR'
p174
aS'1360'
p175
aS'1500'
p176
aa(lp177
S'fs-JOHN'
p178
aS'1560'
p179
aS'1740'
p180
aa(lp181
S'IX-loc:i'
p182
aS'1820'
p183
aS'1900'
p184
aa(lp185
S'5attitude-marker'
p186
aS'2060'
p187
aS'2140'
p188
aasg31
S'2255'
p189
sg33
S'_1005_small_0.mov'
p190
sg35
(lp191
g156
ag21
ag162
ag166
ag170
ag174
ag178
ag182
ag186
asg37
S"He, father, must buy a car for John (I'm telling you)."
p192
sg39
S'200'
p193
ssI6
(dp194
g2
(lp195
(lp196
S'IX-3p:i'
p197
aS'420'
p198
aS'520'
p199
aa(lp200
S'fs-JOHN'
p201
aS'620'
p202
aS'720'
p203
aa(lp204
S'FATHER'
p205
aS'860'
p206
aS'900'
p207
aa(lp208
S'IX-loc:i'
p209
aS'1000'
p210
aS'1140'
p211
aa(lp212
S'MUST'
p213
aS'1220'
p214
aS'1280'
p215
aa(lp216
S'BUY'
p217
aS'1320'
p218
aS'1600'
p219
aa(lp220
g21
aS'1700'
p221
aa(lp222
S'IX-3p:j'
p223
aS'1880'
p224
aS'1880'
p225
aa(lp226
S'fs-MARY'
p227
aS'2080'
p228
aS'2320'
p229
aa(lp230
S'IX-loc:k'
p231
aS'2440'
p232
aS'2460'
p233
aasg31
S'2620'
p234
sg33
S'_1006_small_0.mov'
p235
sg35
(lp236
g197
ag201
ag205
ag209
ag213
ag217
ag21
ag223
ag227
ag231
asg37
S"He, John's father there, must buy this/that for Mary there."
p237
sg39
S'340'
p238
ssI7
(dp239
g2
(lp240
(lp241
S'fs-JOHN'
p242
aS'580'
p243
aS'700'
p244
aa(lp245
S'FATHERwg'
p246
aS'860'
p247
aS'920'
p248
aa(lp249
S'IX-loc:i'
p250
aS'1120'
p251
aS'1140'
p252
aa(lp253
g21
aS'1300'
p254
aa(lp255
S'neu:GIFT:j'
p256
aS'1440'
p257
aS'1520'
p258
aa(lp259
S'CAR'
p260
aS'1660'
p261
aS'1960'
p262
aa(lp263
S'fs-JOHN'
p264
aS'2040'
p265
aS'2200'
p266
aa(lp267
g21
aS'2360'
p268
aasg31
S'2380'
p269
sg33
S'_1007_small_0.mov'
p270
sg35
(lp271
g242
ag246
ag250
ag21
ag256
ag260
ag264
ag21
asg37
S"John's father there is giving a car to John."
p272
sg39
S'520'
p273
ssI8
(dp274
g2
(lp275
(lp276
S'IX-3p:i'
p277
aS'680'
p278
aS'780'
p279
aa(lp280
S'CAR'
p281
aS'920'
p282
aS'1020'
p283
aa(lp284
S'fs-JOHN'
p285
aS'1100'
p286
aS'1200'
p287
aa(lp288
S'(L)FUTURE'
p289
aS'1260'
p290
aS'1440'
p291
aa(lp292
S'FATHERwg'
p293
aS'1580'
p294
aS'1720'
p295
aasg31
S'1860'
p296
sg33
S'_1008_small_0.mov'
p297
sg35
(lp298
g277
ag281
ag285
ag289
ag293
asg37
S'Will John give his father THAT CAR?'
p299
sg39
S'560'
p300
ssI9
(dp301
g2
(lp302
(lp303
S'IX-3p:i'
p304
aS'580'
p305
aS'580'
p306
aa(lp307
g21
aS'960'
p308
aa(lp309
S'fs-JOHN'
p310
aS'1020'
p311
aS'1120'
p312
aa(lp313
S'MOTHERwg'
p314
aS'1260'
p315
aS'1360'
p316
aa(lp317
S'IX-loc:j'
p318
aS'1460'
p319
aS'1520'
p320
aa(lp321
S'HOUSE'
p322
aS'1640'
p323
aS'1780'
p324
aa(lp325
S'BUY'
p326
aS'1840'
p327
aS'2020'
p328
aa(lp329
g21
aS'2140'
p330
aa(lp331
S'IX-3p:i'
p332
aS'2200'
p333
aS'2260'
p334
aasg31
S'2380'
p335
sg33
S'_1009_small_0.mov'
p336
sg35
(lp337
g304
ag21
ag310
ag314
ag318
ag322
ag326
ag21
ag332
asg37
S"It's John's mother? she's buying A HOUSE?"
p338
sg39
S'420'
p339
ssI10
(dp340
g2
(lp341
(lp342
S'IX-3p:i'
p343
aS'340'
p344
aS'500'
p345
aa(lp346
S'HOUSE'
p347
aS'620'
p348
aS'720'
p349
aa(lp350
S'BUY'
p351
aS'800'
p352
aS'940'
p353
aa(lp354
S'NO'
p355
aS'1020'
p356
aS'1260'
p357
aa(lp358
S'fs-JOHN'
p359
aS'1320'
p360
aS'1420'
p361
aa(lp362
S'MOTHERwg'
p363
aS'1500'
p364
aS'1580'
p365
aa(lp366
S'NOT-WANT'
p367
aS'1700'
p368
aS'1780'
p369
aa(lp370
g21
aS'1900'
p371
aasg31
S'2020'
p372
sg33
S'_1010_small_0.mov'
p373
sg35
(lp374
g343
ag347
ag351
ag355
ag359
ag363
ag367
ag21
asg37
S"No, will she buy a house?  No,  John's mother doesn't want to buy a house."
p375
sg39
S'200'
p376
ssI11
(dp377
g2
(lp378
(lp379
S'MOTHER'
p380
aS'520'
p381
aS'560'
p382
aa(lp383
S'NOT-WANT'
p384
aS'680'
p385
aS'740'
p386
aa(lp387
S'BUY'
p388
aS'820'
p389
aS'920'
p390
aa(lp391
S'HOUSE'
p392
aS'960'
p393
aS'1180'
p394
aa(lp395
S'IX-3p:i'
p396
aS'1280'
p397
aS'1320'
p398
aasg31
S'1420'
p399
sg33
S'_1011_small_0.mov'
p400
sg35
(lp401
g380
ag384
ag388
ag392
ag396
asg37
S"Mother doesn't want to buy a house."
p402
sg39
S'460'
p403
ssI12
(dp404
g2
(lp405
(lp406
S'IX-3p:i'
p407
aS'1120'
p408
aS'1260'
p409
aa(lp410
S'fs-JOHN'
p411
aS'1360'
p412
aS'1460'
p413
aa(lp414
S'BUY'
p415
aS'1520'
p416
aS'1680'
p417
aa(lp418
S'MANY'
p419
aS'1740'
p420
aS'1860'
p421
aa(lp422
S'BOOK++'
p423
aS'1980'
p424
aS'2380'
p425
aasg31
S'2380'
p426
sg33
S'_1012_small_0.mov'
p427
sg35
(lp428
g407
ag411
ag415
ag419
ag423
asg37
S'John bought many books.'
p429
sg39
S'1040'
p430
ssI13
(dp431
g2
(lp432
(lp433
S'IX-3p:i'
p434
aS'300'
p435
aS'360'
p436
aa(lp437
S'fs-JOHN'
p438
aS'500'
p439
aS'660'
p440
aa(lp441
g21
aS'740'
p442
aa(lp443
S'MANY'
p444
aS'900'
p445
aS'1000'
p446
aa(lp447
S'BOOK'
p448
aS'1080'
p449
aS'1200'
p450
aa(lp451
S'BUY'
p452
aS'1260'
p453
aS'1400'
p454
aa(lp455
S'HOW-MANY'
p456
aS'1480'
p457
aS'1620'
p458
aa(lp459
g21
aS'1700'
p460
aa(lp461
S'part:indef'
p462
aS'1720'
p463
aS'1820'
p464
aasg31
S'1980'
p465
sg33
S'_1013_small_0.mov'
p466
sg35
(lp467
g434
ag438
ag21
ag444
ag448
ag452
ag456
ag21
ag462
asg37
S'Did John buy many books? How many did he buy?'
p468
sg39
S'220'
p469
ssI14
(dp470
g2
(lp471
(lp472
S'IX-3p:i'
p473
aS'260'
p474
aS'320'
p475
aa(lp476
S'REALLY'
p477
aS'400'
p478
aS'460'
p479
aa(lp480
S'TEACHER'
p481
aS'520'
p482
aS'660'
p483
aa(lp484
S'MOVIE'
p485
aS'800'
p486
aS'880'
p487
aa(lp488
S'REALLY'
p489
aS'1000'
p490
aS'1040'
p491
aa(lp492
S'LIKE'
p493
aS'1120'
p494
aS'1280'
p495
aasg31
S'1320'
p496
sg33
S'_1014_small_0.mov'
p497
sg35
(lp498
g473
ag477
ag481
ag485
ag489
ag493
asg37
S'Teacher really liked the movie.'
p499
sg39
S'220'
p500
ssI15
(dp501
g2
(lp502
(lp503
S'IX-3p:i'
p504
aS'220'
p505
aS'280'
p506
aa(lp507
S'TEACHER'
p508
aS'380'
p509
aS'460'
p510
aa(lp511
S'ENJOY'
p512
aS'600'
p513
aS'1000'
p514
aa(lp515
S'BUT'
p516
aS'1220'
p517
aS'1260'
p518
aa(lp519
S'IX-3p:j'
p520
aS'1280'
p521
aS'1300'
p522
aa(lp523
S'KID'
p524
aS'1420'
p525
aS'1440'
p526
aa(lp527
S'NOT'
p528
aS'1500'
p529
aS'1580'
p530
aa(lp531
S'LIKE'
p532
aS'1660'
p533
aS'1700'
p534
aa(lp535
S'MOVIE'
p536
aS'1780'
p537
aS'1980'
p538
aa(lp539
S'part:indef'
p540
aS'2060'
p541
aS'2120'
p542
aasg31
S'2260'
p543
sg33
S'_1015_small_0.mov'
p544
sg35
(lp545
g504
ag508
ag512
ag516
ag520
ag524
ag528
ag532
ag536
ag540
asg37
S'The teacher enjoyed (the movie) but the kids did not like the movie.'
p546
sg39
S'180'
p547
ssI16
(dp548
g2
(lp549
(lp550
S'IX-3p:i'
p551
aS'500'
p552
aS'640'
p553
aa(lp554
g21
aS'780'
p555
aa(lp556
S'TEACHER'
p557
aS'900'
p558
aS'1000'
p559
aa(lp560
S'VOMIT'
p561
aS'1080'
p562
aS'1200'
p563
aa(lp564
S'MOVIE'
p565
aS'1340'
p566
aS'1540'
p567
aasg31
S'1740'
p568
sg33
S'_1016_small_0.mov'
p569
sg35
(lp570
g551
ag21
ag557
ag561
ag565
asg37
S"The teacher doesn't like the movie."
p571
sg39
S'440'
p572
ssI17
(dp573
g2
(lp574
(lp575
S'IX-3p:i'
p576
aS'720'
p577
aS'800'
p578
aa(lp579
S'NOT-KNOW'
p580
aS'960'
p581
aS'1020'
p582
aa(lp583
S'TEACHER'
p584
aS'1100'
p585
aS'1200'
p586
aa(lp587
S'LIKE'
p588
aS'1300'
p589
aS'1360'
p590
aa(lp591
S'MOVIE'
p592
aS'1420'
p593
aS'1480'
p594
aa(lp595
S'NOT-KNOW'
p596
aS'1640'
p597
aS'1720'
p598
aa(lp599
S'part:indef'
p600
aS'1760'
p601
aS'1900'
p602
aasg31
S'1960'
p603
sg33
S'_1017_small_0.mov'
p604
sg35
(lp605
g576
ag580
ag584
ag588
ag592
ag596
ag600
asg37
S"I don't know if the teacher likes the movie, I (just) don't know."
p606
sg39
S'640'
p607
ssI18
(dp608
g2
(lp609
(lp610
S'IX-3p:i'
p611
aS'400'
p612
aS'460'
p613
aa(lp614
S'MOTHERwg'
p615
aS'580'
p616
aS'660'
p617
aa(lp618
S'IX-loc:i'
p619
aS'720'
p620
aS'820'
p621
aa(lp622
S'BUY'
p623
aS'920'
p624
aS'1040'
p625
aa(lp626
S'CAR'
p627
aS'1100'
p628
aS'1260'
p629
aa(lp630
S'FOR'
p631
aS'1380'
p632
aS'1400'
p633
aa(lp634
S'fs-JOHN'
p635
aS'1440'
p636
aS'1620'
p637
aa(lp638
g21
aS'1760'
p639
aasg31
S'1980'
p640
sg33
S'_1019_small_0.mov'
p641
sg35
(lp642
g611
ag615
ag619
ag623
ag627
ag631
ag635
ag21
asg37
S"Mother isn't buying a car for John."
p643
sg39
S'380'
p644
ssI19
(dp645
g2
(lp646
(lp647
S'CHOCOLATE'
p648
aS'1160'
p649
aS'1320'
p650
aa(lp651
S'REALLY'
p652
aS'1380'
p653
aS'1400'
p654
aa(lp655
S'STUDENT'
p656
aS'1480'
p657
aS'1620'
p658
aa(lp659
S'LIKE'
p660
aS'1720'
p661
aS'1840'
p662
aa(lp663
g21
aS'1940'
p664
aasg31
S'2000'
p665
sg33
S'_1020_small_0.mov'
p666
sg35
(lp667
g648
ag652
ag656
ag660
ag21
asg37
S'The student likes CHOCOLATE.'
p668
sg39
S'1060'
p669
ssI20
(dp670
g2
(lp671
(lp672
S'CHOCOLATE'
p673
aS'820'
p674
aS'1040'
p675
aa(lp676
S'TEACHER'
p677
aS'1160'
p678
aS'1220'
p679
aa(lp680
S'IX-3p:i'
p681
aS'1280'
p682
aS'1320'
p683
aa(lp684
S'LIKE'
p685
aS'1440'
p686
aS'1540'
p687
aa(lp688
g21
aS'1600'
p689
aasg31
S'1660'
p690
sg33
S'_1021_small_0.mov'
p691
sg35
(lp692
g673
ag677
ag681
ag685
ag21
asg37
S'The teacher likes CHOCOLATE.'
p693
sg39
S'660'
p694
ssI21
(dp695
g2
(lp696
(lp697
S'fs-JOHN'
p698
aS'260'
p699
aS'420'
p700
aa(lp701
S'CHOCOLATE'
p702
aS'580'
p703
aS'700'
p704
aa(lp705
S'NOT'
p706
aS'840'
p707
aS'860'
p708
aa(lp709
S'LIKE'
p710
aS'1000'
p711
aS'1080'
p712
aa(lp713
S'(25)WHY'
p714
aS'1180'
p715
aS'1340'
p716
aa(lp717
S'part:indef'
p718
aS'1380'
p719
aS'1500'
p720
aasg31
S'1640'
p721
sg33
S'_1070_small_0.mov'
p722
sg35
(lp723
g698
ag702
ag706
ag710
ag714
ag718
asg37
S"Why doesn't John like chocolate?"
p724
sg39
S'220'
p725
ssI22
(dp726
g2
(lp727
(lp728
S'fs-JOHN'
p729
aS'160'
p730
aS'280'
p731
aa(lp732
S'READ+'
p733
aS'340'
p734
aS'560'
p735
aa(lp736
S'HOW-MANY'
p737
aS'620'
p738
aS'700'
p739
aa(lp740
S'BOOK+'
p741
aS'780'
p742
aS'1000'
p743
aa(lp744
S'UP-TO-NOW'
p745
aS'1120'
p746
aS'1240'
p747
aa(lp748
g21
aS'1300'
p749
aasg31
S'1380'
p750
sg33
S'_1071_small_0.mov'
p751
sg35
(lp752
g729
ag733
ag737
ag741
ag745
ag21
asg37
S'How many books has John read so far?'
p753
sg39
S'100'
p754
ssI23
(dp755
g2
(lp756
(lp757
S'STUDENT'
p758
aS'160'
p759
aS'220'
p760
aa(lp761
S'READ+'
p762
aS'280'
p763
aS'480'
p764
aa(lp765
S'HOW-MANY'
p766
aS'580'
p767
aS'640'
p768
aa(lp769
S'BOOK'
p770
aS'740'
p771
aS'820'
p772
aa(lp773
g21
aS'1000'
p774
aasg31
S'1100'
p775
sg33
S'_1072_small_0.mov'
p776
sg35
(lp777
g758
ag762
ag766
ag770
ag21
asg37
S'How many books did the student read?'
p778
sg39
S'100'
p779
ssI24
(dp780
g2
(lp781
(lp782
S'IX-3p:i'
p783
aS'140'
p784
aS'160'
p785
aa(lp786
S'STUDENT'
p787
aS'260'
p788
aS'420'
p789
aa(lp790
S'IX-3p:i'
p791
aS'500'
p792
aS'580'
p793
aa(lp794
S'READ+'
p795
aS'640'
p796
aS'780'
p797
aa(lp798
S'BOOK'
p799
aS'840'
p800
aS'940'
p801
aa(lp802
S'UP-TO-NOW'
p803
aS'1080'
p804
aS'1220'
p805
aa(lp806
S'part:indef'
p807
aS'1280'
p808
aS'1360'
p809
aasg31
S'1500'
p810
sg33
S'_1074_small_0.mov'
p811
sg35
(lp812
g783
ag787
ag791
ag795
ag799
ag803
ag807
asg37
S'For how long has that student been reading the book?'
p813
sg39
S'51'
p814
ssI25
(dp815
g2
(lp816
(lp817
S'IX-3p:i'
p818
aS'140'
p819
aS'180'
p820
aa(lp821
S'MOTHERwg'
p822
aS'260'
p823
aS'480'
p824
aa(lp825
S'neu:GIVE:j'
p826
aS'600'
p827
aS'700'
p828
aa(lp829
S'fs-JOHN'
p830
aS'800'
p831
aS'900'
p832
aa(lp833
S'CHOCOLATE'
p834
aS'980'
p835
aS'1020'
p836
aa(lp837
S'YESTERDAY'
p838
aS'1200'
p839
aS'1360'
p840
aa(lp841
g21
aS'1560'
p842
aasg31
S'1580'
p843
sg33
S'_1075_small_0.mov'
p844
sg35
(lp845
g818
ag822
ag826
ag830
ag834
ag838
ag21
asg37
S'Mother gave John chocolate yesterday.'
p846
sg39
S'100'
p847
ssI26
(dp848
g2
(lp849
(lp850
S'fs-JOHN'
p851
aS'540'
p852
aS'680'
p853
aa(lp854
g21
aS'760'
p855
aa(lp856
S'CHOCOLATE'
p857
aS'860'
p858
aS'920'
p859
aa(lp860
g21
aS'1080'
p861
aa(lp862
S'MOTHERwg'
p863
aS'1260'
p864
aS'1380'
p865
aasg31
S'1580'
p866
sg33
S'_1076_small_0.mov'
p867
sg35
(lp868
g851
ag21
ag857
ag21
ag863
asg37
S'He, John, gave his mother chocolate.'
p869
sg39
S'380'
p870
ssI27
(dp871
g2
(lp872
(lp873
S'fs-JOHN'
p874
aS'180'
p875
aS'340'
p876
aa(lp877
g21
aS'500'
p878
aa(lp879
S'IX-3p:i'
p880
aS'600'
p881
aS'680'
p882
aa(lp883
S'NOW'
p884
aS'840'
p885
aS'920'
p886
aa(lp887
g21
aS'1000'
p888
aa(lp889
S'CHOCOLATE'
p890
aS'1440'
p891
aS'1560'
p892
aa(lp893
S'MOTHERwg'
p894
aS'1680'
p895
aS'1780'
p896
aasg31
S'1980'
p897
sg33
S'_1077_small_0.mov'
p898
sg35
(lp899
g874
ag21
ag880
ag884
ag21
ag890
ag894
asg37
S'John, he is giving chocolate to his mother now.'
p900
sg39
S'120'
p901
ssI28
(dp902
g2
(lp903
(lp904
S'fs-JOHN'
p905
aS'200'
p906
aS'320'
p907
aa(lp908
S'(2h)GIVE:j'
p909
aS'400'
p910
aS'480'
p911
aa(lp912
S'MOTHER'
p913
aS'640'
p914
aS'660'
p915
aa(lp916
S'CHOCOLATE'
p917
aS'760'
p918
aS'1060'
p919
aa(lp920
S'(L)FUTURE'
p921
aS'1260'
p922
aS'1320'
p923
aa(lp924
S'SOON'
p925
aS'1400'
p926
aS'1540'
p927
aasg31
S'1780'
p928
sg33
S'_1078_small_0.mov'
p929
sg35
(lp930
g905
ag909
ag913
ag917
ag921
ag925
asg37
S'About John giving mother chocolate, will he do it soon?'
p931
sg39
S'140'
p932
ssI29
(dp933
g2
(lp934
(lp935
S'MOTHER'
p936
aS'200'
p937
aS'240'
p938
aa(lp939
S'(2h)GIVE:j'
p940
aS'300'
p941
aS'480'
p942
aa(lp943
g21
aS'720'
p944
aa(lp945
S'CHOCOLATE'
p946
aS'1120'
p947
aS'1260'
p948
aa(lp949
S'fs-JOHN'
p950
aS'1340'
p951
aS'1480'
p952
aa(lp953
g21
aS'1700'
p954
aasg31
S'1800'
p955
sg33
S'_1079_small_0.mov'
p956
sg35
(lp957
g936
ag940
ag21
ag946
ag950
ag21
asg37
S'Did mother give chocolate to John?'
p958
sg39
S'140'
p959
ssI30
(dp960
g2
(lp961
(lp962
S'IX-3p:i'
p963
aS'100'
p964
aS'120'
p965
aa(lp966
S'TEACHER'
p967
aS'240'
p968
aS'340'
p969
aa(lp970
S'IX-loc:i'
p971
aS'400'
p972
aS'440'
p973
aa(lp974
S'CAR'
p975
aS'520'
p976
aS'680'
p977
aa(lp978
S'BUY+'
p979
aS'760'
p980
aS'1040'
p981
aa(lp982
S'UP-TO-NOW'
p983
aS'1180'
p984
aS'1400'
p985
aasg31
S'1500'
p986
sg33
S'_1080_small_0.mov'
p987
sg35
(lp988
g963
ag967
ag971
ag975
ag979
ag983
asg37
S'The teacher has been car shopping for a while now.'
p989
sg39
S'0'
p990
ssI31
(dp991
g2
(lp992
(lp993
S'IX-3p:i'
p994
aS'40'
p995
aS'60'
p996
aa(lp997
S'TEACHER'
p998
aS'160'
p999
aS'260'
p1000
aa(lp1001
S'CAR'
p1002
aS'440'
p1003
aS'720'
p1004
aa(lp1005
S'BUY++'
p1006
aS'820'
p1007
aS'1300'
p1008
aa(lp1009
S'UP-TO-NOW'
p1010
aS'1400'
p1011
aS'1580'
p1012
aa(lp1013
g21
aS'1660'
p1014
aasg31
S'1720'
p1015
sg33
S'_1081_small_0.mov'
p1016
sg35
(lp1017
g994
ag998
ag1002
ag1006
ag1010
ag21
asg37
S'Has the teacher been car shopping lately(all this time)?'
p1018
sg39
g990
ssI32
(dp1019
g2
(lp1020
(lp1021
S'STUDENT'
p1022
aS'160'
p1023
aS'200'
p1024
aa(lp1025
S'IX-loc:i'
p1026
aS'280'
p1027
aS'320'
p1028
aa(lp1029
S'PAY'
p1030
aS'380'
p1031
aS'480'
p1032
aa(lp1033
S'HOW-MANY'
p1034
aS'660'
p1035
aS'740'
p1036
aa(lp1037
S'CAR'
p1038
aS'780'
p1039
aS'980'
p1040
aa(lp1041
g21
aS'1100'
p1042
aasg31
S'1200'
p1043
sg33
S'_1084_small_0.mov'
p1044
sg35
(lp1045
g1022
ag1026
ag1030
ag1034
ag1038
ag21
asg37
S'How many cars did the student buy (pay for)?'
p1046
sg39
S'100'
p1047
ssI33
(dp1048
g2
(lp1049
(lp1050
S'IX-3p:i'
p1051
aS'180'
p1052
aS'260'
p1053
aa(lp1054
S'STUDENT'
p1055
aS'360'
p1056
aS'500'
p1057
aa(lp1058
S'IX-loc:i'
p1059
aS'540'
p1060
aS'560'
p1061
aa(lp1062
S'KISS-FIST'
p1063
aS'700'
p1064
aS'840'
p1065
aa(lp1066
S'CHOCOLATE'
p1067
aS'960'
p1068
aS'1280'
p1069
aa(lp1070
S'VOMIT'
p1071
aS'1420'
p1072
aS'1680'
p1073
aa(lp1074
g21
aS'1840'
p1075
aa(lp1076
S'READ+'
p1077
aS'1900'
p1078
aS'2220'
p1079
aa(lp1080
g21
aS'2280'
p1081
aasg31
S'2360'
p1082
sg33
S'_1085_small_0.mov'
p1083
sg35
(lp1084
g1051
ag1055
ag1059
ag1063
ag1067
ag1071
ag21
ag1077
ag21
asg37
S"The student there loves chocolate but doesn't like reading."
p1085
sg39
S'100'
p1086
ssI34
(dp1087
g2
(lp1088
(lp1089
S'STUDENT'
p1090
aS'200'
p1091
aS'300'
p1092
aa(lp1093
S'READ+'
p1094
aS'360'
p1095
aS'540'
p1096
aa(lp1097
S'VOMIT'
p1098
aS'660'
p1099
aS'840'
p1100
aa(lp1101
g21
aS'1020'
p1102
aa(lp1103
S'KISS-FIST'
p1104
aS'1220'
p1105
aS'1320'
p1106
aa(lp1107
S'CHOCOLATE'
p1108
aS'1420'
p1109
aS'1680'
p1110
aa(lp1111
S'part:indef'
p1112
aS'1760'
p1113
aS'1860'
p1114
aasg31
S'1960'
p1115
sg33
S'_1086_small_0.mov'
p1116
sg35
(lp1117
g1090
ag1094
ag1098
ag21
ag1104
ag1108
ag1112
asg37
S"The student doesn't like to read but loves chocolate."
p1118
sg39
S'140'
p1119
ssI35
(dp1120
g2
(lp1121
(lp1122
S'TEACHER'
p1123
aS'260'
p1124
aS'360'
p1125
aa(lp1126
S'ENJOY'
p1127
aS'480'
p1128
aS'740'
p1129
aa(lp1130
S'READ++'
p1131
aS'840'
p1132
aS'1260'
p1133
aa(lp1134
S'BUT'
p1135
aS'1360'
p1136
aS'1400'
p1137
aa(lp1138
S'MOVIE'
p1139
aS'1500'
p1140
aS'1580'
p1141
aa(lp1142
S'NOT'
p1143
aS'1720'
p1144
aS'1820'
p1145
aa(lp1146
g21
aS'1920'
p1147
aasg31
S'2140'
p1148
sg33
S'_1087_small_0.mov'
p1149
sg35
(lp1150
g1123
ag1127
ag1131
ag1135
ag1139
ag1143
ag21
asg37
S'The teacher enjoys reading but not movies.'
p1151
sg39
S'180'
p1152
ss.