(dp0
I0
(dp1
S'Annotated'
p2
(lp3
(lp4
S'STUDENT'
p5
aS'540'
p6
aS'680'
p7
aa(lp8
S'BUY+'
p9
aS'720'
p10
aS'940'
p11
aa(lp12
S'MANY'
p13
aS'980'
p14
aS'1100'
p15
aa(lp16
S'BOOK'
p17
aS'1160'
p18
aS'1220'
p19
aa(lp20
S'part:indef'
p21
aS'1340'
p22
aS'1500'
p23
aasS'EndFrame'
p24
S'1780'
p25
sS'Video'
p26
S'914_731_master_small.mov'
p27
sS'Words'
p28
(lp29
g5
ag9
ag13
ag17
ag21
asS'English'
p30
S'Did the student buy many books?'
p31
sS'StartFrame'
p32
S'280'
p33
ssI1
(dp34
g2
(lp35
(lp36
S'STUDENT'
p37
aS'280'
p38
aS'400'
p39
aa(lp40
S'BUY+'
p41
aS'480'
p42
aS'680'
p43
aa(lp44
S'MANY'
p45
aS'740'
p46
aS'840'
p47
aa(lp48
S'BOOK'
p49
aS'900'
p50
aS'960'
p51
aa(lp52
S'part:indef'
p53
aS'1080'
p54
aS'1220'
p55
aasg24
S'1360'
p56
sg26
S'915_732_master_small.mov'
p57
sg28
(lp58
g37
ag41
ag45
ag49
ag53
asg30
S'Did the student buy many books?'
p59
sg32
S'220'
p60
ssI2
(dp61
g2
(lp62
(lp63
S'fs-JOHN'
p64
aS'140'
p65
aS'360'
p66
aa(lp67
S'FINISH'
p68
aS'400'
p69
aS'480'
p70
aa(lp71
S'READ+'
p72
aS'560'
p73
aS'700'
p74
aa(lp75
S'BOOK+'
p76
aS'760'
p77
aS'980'
p78
aasg24
S'1120'
p79
sg26
S'916_733_master_small.mov'
p80
sg28
(lp81
g64
ag68
ag72
ag76
asg30
S'John finished reading the book.'
p82
sg32
S'100'
p83
ssI3
(dp84
g2
(lp85
(lp86
S'fs-JOHN'
p87
aS'280'
p88
aS'380'
p89
aa(lp90
S'FINISH'
p91
aS'460'
p92
aS'520'
p93
aa(lp94
S'READ'
p95
aS'600'
p96
aS'640'
p97
aa(lp98
S'BOOK'
p99
aS'720'
p100
aS'760'
p101
aa(lp102
S'#WHEN'
p103
aS'860'
p104
aS'920'
p105
aa(lp106
S'punct'
p107
aS'1200'
p108
aasg24
S'1320'
p109
sg26
S'917_734_master_small.mov'
p110
sg28
(lp111
g87
ag91
ag95
ag99
ag103
ag107
asg30
S'When did John finish reading the book?'
p112
sg32
S'80'
p113
ssI4
(dp114
g2
(lp115
(lp116
S'fs-JOHN'
p117
aS'160'
p118
aS'280'
p119
aa(lp120
S'FINISH'
p121
aS'320'
p122
aS'400'
p123
aa(lp124
S'READ'
p125
aS'480'
p126
aS'560'
p127
aa(lp128
S'BOOK'
p129
aS'660'
p130
aS'740'
p131
aa(lp132
S'#WHEN'
p133
aS'840'
p134
aS'920'
p135
aa(lp136
g107
aS'1180'
p137
aasg24
S'1400'
p138
sg26
S'919_736_master_small.mov'
p139
sg28
(lp140
g117
ag121
ag125
ag129
ag133
ag107
asg30
S'When did John finish reading the book?'
p141
sg32
S'140'
p142
ssI5
(dp143
g2
(lp144
(lp145
S'fs-JOHN'
p146
aS'300'
p147
aS'420'
p148
aa(lp149
S'FINISH'
p150
aS'460'
p151
aS'520'
p152
aa(lp153
S'READ'
p154
aS'580'
p155
aS'680'
p156
aa(lp157
S'BOOK'
p158
aS'800'
p159
aS'840'
p160
aa(lp161
S'WHEN'
p162
aS'960'
p163
aS'1080'
p164
aa(lp165
g107
aS'1140'
p166
aasg24
S'1340'
p167
sg26
S'920_737_master_small.mov'
p168
sg28
(lp169
g146
ag150
ag154
ag158
ag162
ag107
asg30
S'When did John finish reading the book?'
p170
sg32
S'260'
p171
ssI6
(dp172
g2
(lp173
(lp174
S'fs-JOHN'
p175
aS'200'
p176
aS'280'
p177
aa(lp178
S'NOT-YET'
p179
aS'360'
p180
aS'500'
p181
aa(lp182
S'FINISH'
p183
aS'580'
p184
aS'640'
p185
aa(lp186
S'READ'
p187
aS'740'
p188
aS'820'
p189
aa(lp190
S'BOOK'
p191
aS'940'
p192
aS'980'
p193
aa(lp194
g107
aS'1040'
p195
aasg24
S'1240'
p196
sg26
S'921_738_master_small.mov'
p197
sg28
(lp198
g175
ag179
ag183
ag187
ag191
ag107
asg30
S"John hasn't finished reading the book yet."
p199
sg32
S'160'
p200
ssI7
(dp201
g2
(lp202
(lp203
S'fs-JOHN'
p204
aS'240'
p205
aS'300'
p206
aa(lp207
S'FUTURE'
p208
aS'400'
p209
aS'440'
p210
aa(lp211
S'FINISH'
p212
aS'520'
p213
aS'580'
p214
aa(lp215
S'READ'
p216
aS'660'
p217
aS'740'
p218
aa(lp219
S'BOOK'
p220
aS'820'
p221
aS'900'
p222
aa(lp223
g107
aS'980'
p224
aa(lp225
S'WHEN'
p226
aS'1040'
p227
aS'1200'
p228
aa(lp229
g107
aS'1360'
p230
aasg24
S'1600'
p231
sg26
S'922_739_master_small.mov'
p232
sg28
(lp233
g204
ag208
ag212
ag216
ag220
ag107
ag226
ag107
asg30
S'When will John finish reading the book?'
p234
sg32
S'80'
p235
ssI8
(dp236
g2
(lp237
(lp238
S'fs-JOHN'
p239
aS'560'
p240
aS'680'
p241
aa(lp242
S'FINISH'
p243
aS'780'
p244
aS'860'
p245
aa(lp246
S'READ'
p247
aS'880'
p248
aS'1020'
p249
aa(lp250
S'BOOK'
p251
aS'1120'
p252
aS'1140'
p253
aa(lp254
S'FINISH'
p255
aS'1200'
p256
aS'1280'
p257
aa(lp258
g107
aS'1440'
p259
aasg24
S'1540'
p260
sg26
S'923_740_master_small.mov'
p261
sg28
(lp262
g239
ag243
ag247
ag251
ag255
ag107
asg30
S'Has John already read the book, has he?'
p263
sg32
S'560'
p264
ssI9
(dp265
g2
(lp266
(lp267
S'fs-JOHN'
p268
aS'300'
p269
aS'400'
p270
aa(lp271
S'FINISH'
p272
aS'480'
p273
aS'560'
p274
aa(lp275
S'READ'
p276
aS'620'
p277
aS'700'
p278
aa(lp279
S'BOOK'
p280
aS'820'
p281
aS'900'
p282
aa(lp283
g107
aS'960'
p284
aasg24
S'1120'
p285
sg26
S'924_741_master_small.mov'
p286
sg28
(lp287
g268
ag272
ag276
ag280
ag107
asg30
S'Has John already read the book?'
p288
sg32
S'180'
p289
ssI10
(dp290
g2
(lp291
(lp292
S'fs-JOHN'
p293
aS'380'
p294
aS'480'
p295
aa(lp296
S'FINISH'
p297
aS'520'
p298
aS'580'
p299
aa(lp300
S'READ'
p301
aS'640'
p302
aS'720'
p303
aa(lp304
S'BOOK'
p305
aS'780'
p306
aS'860'
p307
aa(lp308
S'QMwg'
p309
aS'900'
p310
aS'1080'
p311
aa(lp312
g107
aS'1140'
p313
aasg24
S'1300'
p314
sg26
S'925_742_master_small.mov'
p315
sg28
(lp316
g293
ag297
ag301
ag305
ag309
ag107
asg30
S'Did John finish reading the book?'
p317
sg32
S'340'
p318
ssI11
(dp319
g2
(lp320
(lp321
S'THAT'
p322
aS'200'
p323
aS'280'
p324
aa(lp325
S'BOOK+'
p326
aS'380'
p327
aS'540'
p328
aa(lp329
S'fs-JOHN'
p330
aS'620'
p331
aS'700'
p332
aa(lp333
S'FINISH'
p334
aS'760'
p335
aS'860'
p336
aa(lp337
S'READ'
p338
aS'900'
p339
aS'1000'
p340
aa(lp341
S'YESTERDAY'
p342
aS'1140'
p343
aS'1300'
p344
aasg24
S'1580'
p345
sg26
S'926_743_master_small.mov'
p346
sg28
(lp347
g322
ag326
ag330
ag334
ag338
ag342
asg30
S'That book, John finished reading it yesterday.'
p348
sg32
S'180'
p349
ssI12
(dp350
g2
(lp351
(lp352
S'THAT'
p353
aS'260'
p354
aS'360'
p355
aa(lp356
S'BOOK'
p357
aS'460'
p358
aS'520'
p359
aa(lp360
S'fs-JOHN'
p361
aS'660'
p362
aS'740'
p363
aa(lp364
S'FINISH'
p365
aS'780'
p366
aS'860'
p367
aa(lp368
S'READ'
p369
aS'920'
p370
aS'980'
p371
aa(lp372
S'BOOK'
p373
aS'1100'
p374
aS'1140'
p375
aa(lp376
S'YESTERDAY'
p377
aS'1240'
p378
aS'1380'
p379
aasg24
S'1540'
p380
sg26
S'927_744_master_small.mov'
p381
sg28
(lp382
g353
ag357
ag361
ag365
ag369
ag373
ag377
asg30
S'That book, John finished reading it yesterday.'
p383
sg32
S'160'
p384
ssI13
(dp385
g2
(lp386
(lp387
S'THAT'
p388
aS'180'
p389
aS'260'
p390
aa(lp391
S'BOOK'
p392
aS'380'
p393
aS'500'
p394
aa(lp395
S'fs-JOHN'
p396
aS'600'
p397
aS'700'
p398
aa(lp399
S'FINISH'
p400
aS'760'
p401
aS'860'
p402
aa(lp403
S'READ'
p404
aS'920'
p405
aS'1020'
p406
aa(lp407
S'YESTERDAY'
p408
aS'1140'
p409
aS'1300'
p410
aasg24
S'1580'
p411
sg26
S'928_745_master_small.mov'
p412
sg28
(lp413
g388
ag392
ag396
ag400
ag404
ag408
asg30
S'That book, John finished reading it yesterday.'
p414
sg32
S'160'
p415
ssI14
(dp416
g2
(lp417
(lp418
S'OVER/AFTER'
p419
aS'200'
p420
aS'260'
p421
aa(lp422
S'CLASS'
p423
aS'360'
p424
aS'400'
p425
aa(lp426
S'NOW'
p427
aS'420'
p428
aS'420'
p429
aa(lp430
S'fs-JOHN'
p431
aS'480'
p432
aS'580'
p433
aa(lp434
S'FINISH'
p435
aS'640'
p436
aS'720'
p437
aa(lp438
S'READ'
p439
aS'780'
p440
aS'880'
p441
aa(lp442
S'BOOK'
p443
aS'1020'
p444
aS'1080'
p445
aa(lp446
g107
aS'1100'
p447
aasg24
S'1300'
p448
sg26
S'929_746_master_small.mov'
p449
sg28
(lp450
g419
ag423
ag427
ag431
ag435
ag439
ag443
ag107
asg30
S'After class, John has finished reading the book.'
p451
sg32
S'80'
p452
ssI15
(dp453
g2
(lp454
(lp455
S'#IF'
p456
aS'160'
p457
aS'240'
p458
aa(lp459
S'TEACHER'
p460
aS'300'
p461
aS'360'
p462
aa(lp463
S'REQUIRE'
p464
aS'500'
p465
aS'560'
p466
aa(lp467
g107
aS'720'
p468
aa(lp469
S'fs-JOHN'
p470
aS'860'
p471
aS'900'
p472
aa(lp473
S'FUTURE'
p474
aS'980'
p475
aS'1020'
p476
aa(lp477
S'READ'
p478
aS'1060'
p479
aS'1140'
p480
aa(lp481
S'BOOK'
p482
aS'1260'
p483
aS'1320'
p484
aasg24
S'1500'
p485
sg26
S'930_747_master_small.mov'
p486
sg28
(lp487
g456
ag460
ag464
ag107
ag470
ag474
ag478
ag482
asg30
S'If the teacher requires it, then John will read a book.'
p488
sg32
S'120'
p489
ssI16
(dp490
g2
(lp491
(lp492
S'fs-JOHN'
p493
aS'100'
p494
aS'280'
p495
aa(lp496
S'READ'
p497
aS'380'
p498
aS'480'
p499
aa(lp500
S'BOOK'
p501
aS'560'
p502
aS'640'
p503
aa(lp504
g107
aS'720'
p505
aa(lp506
S'FINISH'
p507
aS'800'
p508
aS'940'
p509
aa(lp510
g107
aS'1100'
p511
aasg24
S'1300'
p512
sg26
S'931_748_master_small.mov'
p513
sg28
(lp514
g493
ag497
ag501
ag107
ag507
ag107
asg30
S'As for John reading a book, he already did!'
p515
sg32
S'0'
p516
ssI17
(dp517
g2
(lp518
(lp519
S'fs-JOHN'
p520
aS'180'
p521
aS'260'
p522
aa(lp523
S'READ'
p524
aS'360'
p525
aS'440'
p526
aa(lp527
S'BOOK'
p528
aS'520'
p529
aS'580'
p530
aa(lp531
S'ABOUT'
p532
aS'600'
p533
aS'700'
p534
aa(lp535
S'WHAT'
p536
aS'740'
p537
aS'920'
p538
aa(lp539
g107
aS'1020'
p540
aasg24
S'1160'
p541
sg26
S'933_750_master_small.mov'
p542
sg28
(lp543
g520
ag524
ag528
ag532
ag536
ag107
asg30
S'What is John reading a book about?'
p544
sg32
S'120'
p545
ssI18
(dp546
g2
(lp547
(lp548
S'fs-JOHN'
p549
aS'380'
p550
aS'520'
p551
aa(lp552
S'READ'
p553
aS'600'
p554
aS'700'
p555
aa(lp556
S'BOOK'
p557
aS'780'
p558
aS'820'
p559
aa(lp560
S'ABOUT'
p561
aS'880'
p562
aS'980'
p563
aa(lp564
S'WHAT'
p565
aS'1020'
p566
aS'1100'
p567
aa(lp568
g107
aS'1360'
p569
aasg24
S'1480'
p570
sg26
S'934_751_master_small.mov'
p571
sg28
(lp572
g549
ag553
ag557
ag561
ag565
ag107
asg30
S'What is John reading a book about?'
p573
sg32
S'220'
p574
ssI19
(dp575
g2
(lp576
(lp577
S'fs-JOHN'
p578
aS'520'
p579
aS'640'
p580
aa(lp581
S'NEED'
p582
aS'700'
p583
aS'860'
p584
aa(lp585
S'MORE'
p586
aS'940'
p587
aS'980'
p588
aa(lp589
S'INFORMATION'
p590
aS'1020'
p591
aS'1200'
p592
aa(lp593
g107
aS'1280'
p594
aa(lp595
S'IX-3p:i'
p596
aS'1360'
p597
aS'1400'
p598
aa(lp599
S'FUTURE'
p600
aS'1520'
p601
aS'1560'
p602
aa(lp603
S'READ'
p604
aS'1600'
p605
aS'1680'
p606
aa(lp607
S'BOOK'
p608
aS'1780'
p609
aS'1840'
p610
aa(lp611
g107
aS'1920'
p612
aasg24
S'2040'
p613
sg26
S'935_752_master_small.mov'
p614
sg28
(lp615
g578
ag582
ag586
ag590
ag107
ag596
ag600
ag604
ag608
ag107
asg30
S'If John needs more information, he will read the book.'
p616
sg32
S'440'
p617
ssI20
(dp618
g2
(lp619
(lp620
S'fs-JOHN'
p621
aS'180'
p622
aS'260'
p623
aa(lp624
S'READ+'
p625
aS'360'
p626
aS'560'
p627
aa(lp628
S'BOOK'
p629
aS'660'
p630
aS'780'
p631
aa(lp632
g107
aS'1140'
p633
aa(lp634
S'FUTURE'
p635
aS'1260'
p636
aS'1320'
p637
aa(lp638
S'KNOW'
p639
aS'1360'
p640
aS'1400'
p641
aa(lp642
S'MORE'
p643
aS'1480'
p644
aS'1520'
p645
aa(lp646
S'ABOUT'
p647
aS'1580'
p648
aS'1640'
p649
aa(lp650
S'ns-LINCOLN'
p651
aS'1780'
p652
aS'1820'
p653
aa(lp654
S'POSS-3p:i'
p655
aS'2000'
p656
aS'2020'
p657
aa(lp658
S'LIFE'
p659
aS'2200'
p660
aS'2300'
p661
aa(lp662
g107
aS'2380'
p663
aasg24
S'2660'
p664
sg26
S'936_753_master_small.mov'
p665
sg28
(lp666
g621
ag625
ag629
ag107
ag635
ag639
ag643
ag647
ag651
ag655
ag659
ag107
asg30
S"When John reads the book, he will know more about LIncoln's life."
p667
sg32
S'160'
p668
ssI21
(dp669
g2
(lp670
(lp671
S'fs-JOHN'
p672
aS'280'
p673
aS'440'
p674
aa(lp675
S'FIND^#OUT'
p676
aS'480'
p677
aS'660'
p678
aa(lp679
g107
aS'900'
p680
aa(lp681
S'TEST'
p682
aS'1120'
p683
aS'1280'
p684
aa(lp685
S'(2h)DCL:Bhair on head raising'
p686
aS'1520'
p687
aS'1640'
p688
aa(lp689
S'(2h)NEED'
p690
aS'1760'
p691
aS'1800'
p692
aa(lp693
S'READ'
p694
aS'1860'
p695
aS'1920'
p696
aa(lp697
S'BOOK'
p698
aS'2040'
p699
aS'2220'
p700
aasg24
S'2420'
p701
sg26
S'938_755_master_small.mov'
p702
sg28
(lp703
g672
ag676
ag107
ag682
ag686
ag690
ag694
ag698
asg30
S'When John finds out about the test, he will freak out and need to read the book.'
p704
sg32
S'100'
p705
ssI22
(dp706
g2
(lp707
(lp708
S'fs-JOHN'
p709
aS'260'
p710
aS'380'
p711
aa(lp712
S'FIND^#OUT'
p713
aS'500'
p714
aS'640'
p715
aa(lp716
g107
aS'920'
p717
aa(lp718
S'TEST'
p719
aS'1120'
p720
aS'1220'
p721
aa(lp722
g107
aS'1300'
p723
aa(lp724
S'(2h)DCL:Bhair on head raising'
p725
aS'1520'
p726
aS'1620'
p727
aa(lp728
S'(2h)NEED'
p729
aS'1760'
p730
aS'1800'
p731
aa(lp732
S'READ'
p733
aS'1860'
p734
aS'1920'
p735
aa(lp736
S'BOOK'
p737
aS'2040'
p738
aS'2240'
p739
aasg24
S'2440'
p740
sg26
S'939_756_master_small.mov'
p741
sg28
(lp742
g709
ag713
ag107
ag719
ag107
ag725
ag729
ag733
ag737
asg30
S'When John finds out about the test, he will freak out and need to read the book.'
p743
sg32
S'220'
p744
ssI23
(dp745
g2
(lp746
(lp747
S'fs-J'
p748
aS'300'
p749
aS'340'
p750
aa(lp751
S'FIND^#OUT'
p752
aS'460'
p753
aS'580'
p754
aa(lp755
g107
aS'760'
p756
aa(lp757
S'TEST+'
p758
aS'1060'
p759
aS'1280'
p760
aa(lp761
S'FINISH'
p762
aS'1380'
p763
aS'1520'
p764
aa(lp765
g107
aS'1680'
p766
aa(lp767
S'READ+++'
p768
aS'1740'
p769
aS'1940'
p770
aa(lp771
S'BOOK++'
p772
aS'2000'
p773
aS'2180'
p774
aa(lp775
g107
aS'2260'
p776
aasg24
S'2340'
p777
sg26
S'940_757_master_small.mov'
p778
sg28
(lp779
g748
ag752
ag107
ag758
ag762
ag107
ag768
ag772
ag107
asg30
S'Once John had found out that there is a test, he read the book.'
p780
sg32
S'180'
p781
ssI24
(dp782
g2
(lp783
(lp784
S'STUDENT'
p785
aS'380'
p786
aS'460'
p787
aa(lp788
S'IX-loc:i'
p789
aS'520'
p790
aS'540'
p791
aa(lp792
g107
aS'660'
p793
aa(lp794
S'POSS-3p:i'
p795
aS'860'
p796
aS'880'
p797
aa(lp798
S'FATHERwg'
p799
aS'1020'
p800
aS'1060'
p801
aa(lp802
S'BUY'
p803
aS'1160'
p804
aS'1260'
p805
aa(lp806
S'HOUSE'
p807
aS'1320'
p808
aS'1520'
p809
aasg24
S'1620'
p810
sg26
S'941_758_master_small.mov'
p811
sg28
(lp812
g785
ag789
ag107
ag795
ag799
ag803
ag807
asg30
S"It's that student's father that is buying a house."
p813
sg32
S'320'
p814
ssI25
(dp815
g2
(lp816
(lp817
S'STUDENT'
p818
aS'240'
p819
aS'380'
p820
aa(lp821
S'POSS-3p:i'
p822
aS'500'
p823
aS'540'
p824
aa(lp825
S'FATHERwg'
p826
aS'700'
p827
aS'800'
p828
aa(lp829
S'FUTURE'
p830
aS'880'
p831
aS'900'
p832
aa(lp833
S'BUY'
p834
aS'1000'
p835
aS'1020'
p836
aa(lp837
S'HOUSE'
p838
aS'1080'
p839
aS'1260'
p840
aasg24
S'1420'
p841
sg26
S'942_759_master_small.mov'
p842
sg28
(lp843
g818
ag822
ag826
ag830
ag834
ag838
asg30
S"That student's father will buy a house."
p844
sg32
S'180'
p845
ssI26
(dp846
g2
(lp847
(lp848
S'STUDENT'
p849
aS'120'
p850
aS'220'
p851
aa(lp852
S'POSS-3p:i'
p853
aS'280'
p854
aS'340'
p855
aa(lp856
S'MOTHER+'
p857
aS'480'
p858
aS'620'
p859
aa(lp860
g107
aS'680'
p861
aa(lp862
S'BUY'
p863
aS'800'
p864
aS'860'
p865
aa(lp866
S'CAR'
p867
aS'920'
p868
aS'1100'
p869
aasg24
S'1180'
p870
sg26
S'943_760_master_small.mov'
p871
sg28
(lp872
g849
ag853
ag857
ag107
ag863
ag867
asg30
S"It's that student's mother that is buying a car."
p873
sg32
S'80'
p874
ssI27
(dp875
g2
(lp876
(lp877
S'STUDENT'
p878
aS'960'
p879
aS'1040'
p880
aa(lp881
S'IX-loc:i'
p882
aS'1080'
p883
aS'1180'
p884
aa(lp885
S'POSS-3p:j'
p886
aS'1240'
p887
aS'1280'
p888
aa(lp889
S'FATHER'
p890
aS'1440'
p891
aS'1480'
p892
aa(lp893
S'BUY'
p894
aS'1580'
p895
aS'1700'
p896
aa(lp897
S'HOUSE'
p898
aS'1880'
p899
aS'1940'
p900
aa(lp901
S'WHICH'
p902
aS'2000'
p903
aS'2360'
p904
aasg24
S'2540'
p905
sg26
S'944_761_master_small.mov'
p906
sg28
(lp907
g878
ag882
ag886
ag890
ag894
ag898
ag902
asg30
S"Which house did the student's father buy?"
p908
sg32
S'880'
p909
ssI28
(dp910
g2
(lp911
(lp912
S'MOTHER'
p913
aS'580'
p914
aS'640'
p915
aa(lp916
S'(V)FUTURE'
p917
aS'720'
p918
aS'780'
p919
aa(lp920
S'READ'
p921
aS'840'
p922
aS'920'
p923
aa(lp924
S'BOOK+'
p925
aS'1040'
p926
aS'1200'
p927
aa(lp928
S'QMwg'
p929
aS'1260'
p930
aS'1460'
p931
aa(lp932
g107
aS'1500'
p933
aasg24
S'1540'
p934
sg26
S'945_762_master_small.mov'
p935
sg28
(lp936
g913
ag917
ag921
ag925
ag929
ag107
asg30
S'Will mother read the book?'
p937
sg32
S'520'
p938
ssI29
(dp939
g2
(lp940
(lp941
S'FATHER'
p942
aS'300'
p943
aS'340'
p944
aa(lp945
S'BUY'
p946
aS'440'
p947
aS'480'
p948
aa(lp949
S'THAT:i'
p950
aS'520'
p951
aS'560'
p952
aa(lp953
S'BOOK'
p954
aS'700'
p955
aS'760'
p956
aa(lp957
S'(25)WHY'
p958
aS'820'
p959
aS'960'
p960
aa(lp961
g107
aS'1120'
p962
aasg24
S'1280'
p963
sg26
S'946_763_master_small.mov'
p964
sg28
(lp965
g942
ag946
ag950
ag954
ag958
ag107
asg30
S'Why did father buy that book?'
p966
sg32
S'200'
p967
ssI30
(dp968
g2
(lp969
(lp970
S'FATHER'
p971
aS'280'
p972
aS'300'
p973
aa(lp974
S'MUST'
p975
aS'360'
p976
aS'400'
p977
aa(lp978
S'BUY'
p979
aS'480'
p980
aS'540'
p981
aa(lp982
S'BOOK'
p983
aS'660'
p984
aS'700'
p985
aa(lp986
S'IX-loc:i'
p987
aS'740'
p988
aS'820'
p989
aa(lp990
S'(25)WHY'
p991
aS'900'
p992
aS'1000'
p993
aa(lp994
g107
aS'1140'
p995
aasg24
S'1140'
p996
sg26
S'947_764_master_small.mov'
p997
sg28
(lp998
g971
ag975
ag979
ag983
ag987
ag991
ag107
asg30
S'Why does father have to buy that book there?'
p999
sg32
S'220'
p1000
ssI31
(dp1001
g2
(lp1002
(lp1003
S'MOTHER'
p1004
aS'340'
p1005
aS'360'
p1006
aa(lp1007
S'SHOULD'
p1008
aS'400'
p1009
aS'480'
p1010
aa(lp1011
S'NOT'
p1012
aS'520'
p1013
aS'600'
p1014
aa(lp1015
S'BUY'
p1016
aS'620'
p1017
aS'700'
p1018
aa(lp1019
S'THAT:i'
p1020
aS'760'
p1021
aS'820'
p1022
aa(lp1023
S'CAR'
p1024
aS'840'
p1025
aS'900'
p1026
aa(lp1027
S'part:indef'
p1028
aS'960'
p1029
aS'1080'
p1030
aa(lp1031
g107
aS'1240'
p1032
aasg24
S'1360'
p1033
sg26
S'948_765_master_small.mov'
p1034
sg28
(lp1035
g1004
ag1008
ag1012
ag1016
ag1020
ag1024
ag1028
ag107
asg30
S'Mother should not buy that car!'
p1036
sg32
S'320'
p1037
ssI32
(dp1038
g2
(lp1039
(lp1040
S'MOTHER'
p1041
aS'320'
p1042
aS'360'
p1043
aa(lp1044
S'SHOULD'
p1045
aS'400'
p1046
aS'440'
p1047
aa(lp1048
S'BUY'
p1049
aS'500'
p1050
aS'580'
p1051
aa(lp1052
S'CAR'
p1053
aS'620'
p1054
aS'720'
p1055
aa(lp1056
g107
aS'800'
p1057
aasg24
S'920'
p1058
sg26
S'950_767_master_small.mov'
p1059
sg28
(lp1060
g1041
ag1045
ag1049
ag1053
ag107
asg30
S'Should mother buy a car?'
p1061
sg32
S'280'
p1062
ssI33
(dp1063
g2
(lp1064
(lp1065
S'MOTHER'
p1066
aS'300'
p1067
aS'340'
p1068
aa(lp1069
S'SHOULD'
p1070
aS'380'
p1071
aS'480'
p1072
aa(lp1073
S'BUY'
p1074
aS'560'
p1075
aS'620'
p1076
aa(lp1077
S'CAR'
p1078
aS'660'
p1079
aS'860'
p1080
aa(lp1081
S'(25)WHY'
p1082
aS'920'
p1083
aS'1000'
p1084
aa(lp1085
g107
aS'1080'
p1086
aa(lp1087
S'(1h)part:indef'
p1088
aS'1120'
p1089
aS'1260'
p1090
aa(lp1091
g107
aS'1300'
p1092
aasg24
S'1380'
p1093
sg26
S'952_769_master_small.mov'
p1094
sg28
(lp1095
g1066
ag1070
ag1074
ag1078
ag1082
ag107
ag1088
ag107
asg30
S'Why should mother buy a car?'
p1096
sg32
S'240'
p1097
ssI34
(dp1098
g2
(lp1099
(lp1100
S'IX-1p'
p1101
aS'580'
p1102
aS'620'
p1103
aa(lp1104
S'NEVER'
p1105
aS'660'
p1106
aS'680'
p1107
aa(lp1108
S'SEE'
p1109
aS'820'
p1110
aS'860'
p1111
aa(lp1112
S'fs-JOHN'
p1113
aS'900'
p1114
aS'1040'
p1115
aa(lp1116
S'POSS-3p:i'
p1117
aS'1140'
p1118
aS'1160'
p1119
aa(lp1120
S'CAR'
p1121
aS'1240'
p1122
aS'1380'
p1123
aa(lp1124
S'NEVER'
p1125
aS'1420'
p1126
aS'1640'
p1127
aasg24
S'1720'
p1128
sg26
S'953_770_master_small.mov'
p1129
sg28
(lp1130
g1101
ag1105
ag1109
ag1113
ag1117
ag1121
ag1125
asg30
S"I've never seen John's car."
p1131
sg32
S'540'
p1132
ssI35
(dp1133
g2
(lp1134
(lp1135
S'fs-JOHN'
p1136
aS'160'
p1137
aS'280'
p1138
aa(lp1139
S'POSS-3p:i'
p1140
aS'360'
p1141
aS'400'
p1142
aa(lp1143
S'CAR'
p1144
aS'560'
p1145
aS'700'
p1146
aa(lp1147
g107
aS'720'
p1148
aa(lp1149
S'NEVER'
p1150
aS'800'
p1151
aS'860'
p1152
aa(lp1153
S'SEE'
p1154
aS'980'
p1155
aS'1060'
p1156
aa(lp1157
S'IX-1p'
p1158
aS'1160'
p1159
aS'1200'
p1160
aa(lp1161
g107
aS'1300'
p1162
aasg24
S'1440'
p1163
sg26
S'954_771_master_small.mov'
p1164
sg28
(lp1165
g1136
ag1140
ag1144
ag107
ag1150
ag1154
ag1158
ag107
asg30
S"It's John's CAR I've never seen."
p1166
sg32
S'140'
p1167
ssI36
(dp1168
g2
(lp1169
(lp1170
S'fs-JOHN'
p1171
aS'240'
p1172
aS'340'
p1173
aa(lp1174
g107
aS'360'
p1175
aa(lp1176
S'POSS-3p:i'
p1177
aS'460'
p1178
aS'480'
p1179
aa(lp1180
S'CAR'
p1181
aS'580'
p1182
aS'680'
p1183
aa(lp1184
g107
aS'760'
p1185
aa(lp1186
S'NEVER'
p1187
aS'840'
p1188
aS'920'
p1189
aa(lp1190
S'SEE'
p1191
aS'1040'
p1192
aS'1140'
p1193
aa(lp1194
S'IX-1p'
p1195
aS'1300'
p1196
aS'1300'
p1197
aasg24
S'1400'
p1198
sg26
S'955_772_master_small.mov'
p1199
sg28
(lp1200
g1171
ag107
ag1177
ag1181
ag107
ag1187
ag1191
ag1195
asg30
S"It's John's car I've never seen."
p1201
sg32
S'200'
p1202
ssI37
(dp1203
g2
(lp1204
(lp1205
S'fs-JOHN'
p1206
aS'120'
p1207
aS'260'
p1208
aa(lp1209
g107
aS'300'
p1210
aa(lp1211
S'POSS-3p:i'
p1212
aS'380'
p1213
aS'420'
p1214
aa(lp1215
S'CAR'
p1216
aS'540'
p1217
aS'680'
p1218
aa(lp1219
g107
aS'800'
p1220
aa(lp1221
S'NEVER'
p1222
aS'880'
p1223
aS'960'
p1224
aa(lp1225
S'SEE'
p1226
aS'1100'
p1227
aS'1140'
p1228
aa(lp1229
S'IX-1p'
p1230
aS'1240'
p1231
aS'1280'
p1232
aasg24
S'1440'
p1233
sg26
S'956_773_master_small.mov'
p1234
sg28
(lp1235
g1206
ag107
ag1212
ag1216
ag107
ag1222
ag1226
ag1230
asg30
S"As for John's car, I've never seen (it)."
p1236
sg32
S'80'
p1237
ssI38
(dp1238
g2
(lp1239
(lp1240
S'MUST'
p1241
aS'460'
p1242
aS'600'
p1243
aa(lp1244
S'FATHER'
p1245
aS'780'
p1246
aS'820'
p1247
aa(lp1248
S'neu:GIVE:j'
p1249
aS'940'
p1250
aS'1180'
p1251
aa(lp1252
S'CAR'
p1253
aS'1260'
p1254
aS'1420'
p1255
aa(lp1256
S'IX-3p:j'
p1257
aS'1460'
p1258
aS'1500'
p1259
aa(lp1260
S'fs-JOHN'
p1261
aS'1520'
p1262
aS'1660'
p1263
aa(lp1264
S'IX-loc:j'
p1265
aS'1740'
p1266
aS'1760'
p1267
aasg24
S'1940'
p1268
sg26
S'967_784_master_small.mov'
p1269
sg28
(lp1270
g1241
ag1245
ag1249
ag1253
ag1257
ag1261
ag1265
asg30
S'Father must give a car to John.'
p1271
sg32
S'340'
p1272
ssI39
(dp1273
g2
(lp1274
(lp1275
S'FATHER'
p1276
aS'760'
p1277
aS'800'
p1278
aa(lp1279
S'IX-3p:i'
p1280
aS'960'
p1281
aS'1000'
p1282
aa(lp1283
S'!MUST!'
p1284
aS'1180'
p1285
aS'1260'
p1286
aa(lp1287
S'GIFT:k'
p1288
aS'1400'
p1289
aS'1480'
p1290
aa(lp1291
S'fs-JOHN'
p1292
aS'1600'
p1293
aS'1720'
p1294
aa(lp1295
S'CAR'
p1296
aS'1820'
p1297
aS'1980'
p1298
aa(lp1299
g107
aS'2020'
p1300
aasg24
S'2120'
p1301
sg26
S'968_785_master_small.mov'
p1302
sg28
(lp1303
g1276
ag1280
ag1284
ag1288
ag1292
ag1296
ag107
asg30
S'His father MUST give John a car.'
p1304
sg32
S'600'
p1305
ssI40
(dp1306
g2
(lp1307
(lp1308
S'fs-JOHN'
p1309
aS'240'
p1310
aS'320'
p1311
aa(lp1312
S'FATHERwg'
p1313
aS'440'
p1314
aS'460'
p1315
aa(lp1316
S'IX-3p:i'
p1317
aS'580'
p1318
aS'600'
p1319
aa(lp1320
S'!MUST!'
p1321
aS'740'
p1322
aS'820'
p1323
aa(lp1324
S'neu:GIFT:j'
p1325
aS'940'
p1326
aS'1000'
p1327
aa(lp1328
S'CAR'
p1329
aS'1060'
p1330
aS'1140'
p1331
aa(lp1332
S'IX-3p:j'
p1333
aS'1260'
p1334
aS'1300'
p1335
aa(lp1336
S'fs-MARY'
p1337
aS'1400'
p1338
aS'1540'
p1339
aa(lp1340
g107
aS'1700'
p1341
aasg24
S'1900'
p1342
sg26
S'969_786_master_small.mov'
p1343
sg28
(lp1344
g1309
ag1313
ag1317
ag1321
ag1325
ag1329
ag1333
ag1337
ag107
asg30
S"John's father must give the car to Mary."
p1345
sg32
S'200'
p1346
ssI41
(dp1347
g2
(lp1348
(lp1349
S'fs-JOHN'
p1350
aS'220'
p1351
aS'320'
p1352
aa(lp1353
S'POSS-3p:i'
p1354
aS'420'
p1355
aS'440'
p1356
aa(lp1357
S'FATHERwg'
p1358
aS'580'
p1359
aS'600'
p1360
aa(lp1361
S'IX-3p:i'
p1362
aS'740'
p1363
aS'760'
p1364
aa(lp1365
S'MUST'
p1366
aS'940'
p1367
aS'1000'
p1368
aa(lp1369
S'neu:GIFT:j'
p1370
aS'1120'
p1371
aS'1200'
p1372
aa(lp1373
S'CAR'
p1374
aS'1300'
p1375
aS'1380'
p1376
aa(lp1377
S'IX-3p:j'
p1378
aS'1440'
p1379
aS'1480'
p1380
aa(lp1381
S'fs-MARY'
p1382
aS'1600'
p1383
aS'1800'
p1384
aa(lp1385
g107
aS'1900'
p1386
aasg24
S'2020'
p1387
sg26
S'970_787_master_small.mov'
p1388
sg28
(lp1389
g1350
ag1354
ag1358
ag1362
ag1366
ag1370
ag1374
ag1378
ag1382
ag107
asg30
S"It's John's father, him, who must give a car to Mary."
p1390
sg32
S'160'
p1391
ssI42
(dp1392
g2
(lp1393
(lp1394
S'IX-3p:i'
p1395
aS'560'
p1396
aS'560'
p1397
aa(lp1398
S'fs-MARY'
p1399
aS'620'
p1400
aS'680'
p1401
aa(lp1402
S'IX-loc:i'
p1403
aS'760'
p1404
aS'880'
p1405
aa(lp1406
g107
aS'960'
p1407
aa(lp1408
S'fs-JOHN'
p1409
aS'1080'
p1410
aS'1160'
p1411
aa(lp1412
S'FATHER'
p1413
aS'1280'
p1414
aS'1340'
p1415
aa(lp1416
S'MUST'
p1417
aS'1480'
p1418
aS'1600'
p1419
aa(lp1420
S'j:GIFT:i'
p1421
aS'1740'
p1422
aS'1860'
p1423
aa(lp1424
S'CAR'
p1425
aS'2100'
p1426
aS'2220'
p1427
aasg24
S'2380'
p1428
sg26
S'972_789_master_small.mov'
p1429
sg28
(lp1430
g1395
ag1399
ag1403
ag107
ag1409
ag1413
ag1417
ag1421
ag1425
asg30
S"It's Mary there to whom John's father must give a car."
p1431
sg32
S'480'
p1432
ssI43
(dp1433
g2
(lp1434
(lp1435
S'fs-JOHN'
p1436
aS'320'
p1437
aS'460'
p1438
aa(lp1439
S'SHOULD'
p1440
aS'480'
p1441
aS'620'
p1442
aa(lp1443
S'neu:GIFT:i'
p1444
aS'680'
p1445
aS'840'
p1446
aa(lp1447
S'CAR'
p1448
aS'920'
p1449
aS'980'
p1450
aa(lp1451
S'IX-3p:i'
p1452
aS'1080'
p1453
aS'1100'
p1454
aa(lp1455
S'FATHER'
p1456
aS'1200'
p1457
aS'1300'
p1458
aasg24
S'1560'
p1459
sg26
S'973_790_master_small.mov'
p1460
sg28
(lp1461
g1436
ag1440
ag1444
ag1448
ag1452
ag1456
asg30
S'John should give car to the father.'
p1462
sg32
g516
ssI44
(dp1463
g2
(lp1464
(lp1465
S'fs-JOHN'
p1466
aS'260'
p1467
aS'340'
p1468
aa(lp1469
S'IX-3p:i'
p1470
aS'380'
p1471
aS'400'
p1472
aa(lp1473
S'FUTURE'
p1474
aS'480'
p1475
aS'580'
p1476
aa(lp1477
S'GIFT:j'
p1478
aS'660'
p1479
aS'780'
p1480
aa(lp1481
S'(1h)CAR'
p1482
aS'840'
p1483
aS'960'
p1484
aa(lp1485
S'IX-3p:j'
p1486
aS'1020'
p1487
aS'1020'
p1488
aa(lp1489
S'FATHER'
p1490
aS'1140'
p1491
aS'1200'
p1492
aasg24
S'1380'
p1493
sg26
S'974_791_master_small.mov'
p1494
sg28
(lp1495
g1466
ag1470
ag1474
ag1478
ag1482
ag1486
ag1490
asg30
S"It's John who will give a car to (his) father."
p1496
sg32
S'220'
p1497
ssI45
(dp1498
g2
(lp1499
(lp1500
S'MOTHER'
p1501
aS'280'
p1502
aS'300'
p1503
aa(lp1504
S'FUTURE'
p1505
aS'380'
p1506
aS'420'
p1507
aa(lp1508
S'BUY'
p1509
aS'500'
p1510
aS'560'
p1511
aa(lp1512
S'HOUSE'
p1513
aS'640'
p1514
aS'820'
p1515
aasg24
S'920'
p1516
sg26
S'975_792_master_small.mov'
p1517
sg28
(lp1518
g1501
ag1505
ag1509
ag1513
asg30
S'Mother will buy a house.'
p1519
sg32
S'180'
p1520
ssI46
(dp1521
g2
(lp1522
(lp1523
S'MOTHER'
p1524
aS'360'
p1525
aS'380'
p1526
aa(lp1527
S'FUTURE'
p1528
aS'420'
p1529
aS'540'
p1530
aa(lp1531
S'BUY'
p1532
aS'680'
p1533
aS'740'
p1534
aa(lp1535
S'HOUSE'
p1536
aS'780'
p1537
aS'920'
p1538
aa(lp1539
g107
aS'940'
p1540
aasg24
S'1200'
p1541
sg26
S'977_794_master_small.mov'
p1542
sg28
(lp1543
g1524
ag1528
ag1532
ag1536
ag107
asg30
S'Will mother buy a house?  No.'
p1544
sg32
S'200'
p1545
ssI47
(dp1546
g2
(lp1547
(lp1548
S'MOTHER'
p1549
aS'240'
p1550
aS'260'
p1551
aa(lp1552
S'NOT'
p1553
aS'320'
p1554
aS'380'
p1555
aa(lp1556
S'BUY'
p1557
aS'460'
p1558
aS'540'
p1559
aa(lp1560
S'HOUSE'
p1561
aS'600'
p1562
aS'780'
p1563
aasg24
S'900'
p1564
sg26
S'978_795_master_small.mov'
p1565
sg28
(lp1566
g1549
ag1553
ag1557
ag1561
asg30
S'Mother is not buying a house.'
p1567
sg32
S'220'
p1568
ssI48
(dp1569
g2
(lp1570
(lp1571
S'MOTHER'
p1572
aS'200'
p1573
aS'240'
p1574
aa(lp1575
S'FUTURE'
p1576
aS'340'
p1577
aS'380'
p1578
aa(lp1579
S'BUY'
p1580
aS'500'
p1581
aS'580'
p1582
aa(lp1583
S'HOUSE'
p1584
aS'640'
p1585
aS'780'
p1586
aasg24
S'960'
p1587
sg26
S'979_796_master_small.mov'
p1588
sg28
(lp1589
g1572
ag1576
ag1580
ag1584
asg30
S'WIll mother buy a house?  No.'
p1590
sg32
S'200'
p1591
ssI49
(dp1592
g2
(lp1593
(lp1594
S'MOTHER'
p1595
aS'260'
p1596
aS'300'
p1597
aa(lp1598
S'NOT-WANT'
p1599
aS'340'
p1600
aS'420'
p1601
aa(lp1602
S'BUY'
p1603
aS'520'
p1604
aS'580'
p1605
aa(lp1606
S'HOUSE'
p1607
aS'660'
p1608
aS'840'
p1609
aasg24
S'860'
p1610
sg26
S'981_798_master_small.mov'
p1611
sg28
(lp1612
g1595
ag1599
ag1603
ag1607
asg30
S"Mother doesn't want to buy a house."
p1613
sg32
S'240'
p1614
ssI50
(dp1615
g2
(lp1616
(lp1617
S'MOTHER'
p1618
aS'400'
p1619
aS'440'
p1620
aa(lp1621
S'FUTURE'
p1622
aS'520'
p1623
aS'580'
p1624
aa(lp1625
S'BUY'
p1626
aS'640'
p1627
aS'700'
p1628
aa(lp1629
S'HOUSE'
p1630
aS'780'
p1631
aS'980'
p1632
aasg24
S'1060'
p1633
sg26
S'982_799_master_small.mov'
p1634
sg28
(lp1635
g1618
ag1622
ag1626
ag1630
asg30
S'Will mother buy a house?'
p1636
sg32
S'400'
p1637
ssI51
(dp1638
g2
(lp1639
(lp1640
S'(1h)HOW-MANY'
p1641
aS'140'
p1642
aS'200'
p1643
aa(lp1644
S'BOOK'
p1645
aS'320'
p1646
aS'360'
p1647
aa(lp1648
S'fs-JOHN'
p1649
aS'420'
p1650
aS'480'
p1651
aa(lp1652
S'FUTURE'
p1653
aS'580'
p1654
aS'600'
p1655
aa(lp1656
S'BUY'
p1657
aS'680'
p1658
aS'760'
p1659
aa(lp1660
g107
aS'880'
p1661
aasg24
S'1040'
p1662
sg26
S'983_800_master_small.mov'
p1663
sg28
(lp1664
g1641
ag1645
ag1649
ag1653
ag1657
ag107
asg30
S'How many books will John buy?'
p1665
sg32
S'60'
p1666
ssI52
(dp1667
g2
(lp1668
(lp1669
S'STUDENT'
p1670
aS'800'
p1671
aS'880'
p1672
aa(lp1673
S'GIFT:j'
p1674
aS'1040'
p1675
aS'1100'
p1676
aa(lp1677
S'TEACHER'
p1678
aS'1200'
p1679
aS'1260'
p1680
aa(lp1681
S'WHICH'
p1682
aS'1360'
p1683
aS'1460'
p1684
aa(lp1685
S'BOOK'
p1686
aS'1520'
p1687
aS'1560'
p1688
aa(lp1689
S'IX-3p:k'
p1690
aS'1680'
p1691
aS'1720'
p1692
aa(lp1693
S'IX-3p:m'
p1694
aS'1780'
p1695
aS'1820'
p1696
aa(lp1697
S'IX-3p:k'
p1698
aS'1900'
p1699
aS'1920'
p1700
aa(lp1701
S'IX-3p:m'
p1702
aS'2040'
p1703
aS'2060'
p1704
aasg24
S'2240'
p1705
sg26
S'985_820_master_small.mov'
p1706
sg28
(lp1707
g1670
ag1674
ag1678
ag1682
ag1686
ag1690
ag1694
ag1698
ag1702
asg30
S'Which of those two books did the student give the teacher?'
p1708
sg32
S'660'
p1709
ss.