(dp0
I0
(dp1
S'Annotated'
p2
(lp3
(lp4
S'YESTERDAY'
p5
aS'120'
p6
aS'220'
p7
aa(lp8
S'STUDENT'
p9
aS'360'
p10
aS'400'
p11
aa(lp12
S'BUY'
p13
aS'500'
p14
aS'560'
p15
aa(lp16
S'CAR'
p17
aS'620'
p18
aS'840'
p19
aasS'EndFrame'
p20
S'1020'
p21
sS'Video'
p22
S'864_681_master_small.mov'
p23
sS'Words'
p24
(lp25
g5
ag9
ag13
ag17
asS'English'
p26
S'The student bought a car yesterday.'
p27
sS'StartFrame'
p28
S'0'
p29
ssI1
(dp30
g2
(lp31
(lp32
S'YESTERDAY'
p33
aS'360'
p34
aS'420'
p35
aa(lp36
S'IX-3p:i'
p37
aS'600'
p38
aS'620'
p39
aa(lp40
S'STUDENT'
p41
aS'720'
p42
aS'760'
p43
aa(lp44
S'FINISH'
p45
aS'840'
p46
aS'900'
p47
aa(lp48
S'BUY'
p49
aS'1020'
p50
aS'1060'
p51
aa(lp52
S'CAR'
p53
aS'1140'
p54
aS'1240'
p55
aa(lp56
S'QMwg'
p57
aS'1340'
p58
aS'1440'
p59
aa(lp60
S'punct'
p61
aS'1460'
p62
aasg20
S'1740'
p63
sg22
S'865_682_master_small.mov'
p64
sg24
(lp65
g33
ag37
ag41
ag45
ag49
ag53
ag57
ag61
asg26
S'Did the student already buy a car yesterday?'
p66
sg28
S'280'
p67
ssI2
(dp68
g2
(lp69
(lp70
S'YESTERDAY'
p71
aS'160'
p72
aS'300'
p73
aa(lp74
S'(1h)TEACHER'
p75
aS'360'
p76
aS'420'
p77
aa(lp78
S'BUY'
p79
aS'540'
p80
aS'560'
p81
aa(lp82
S'HOUSE'
p83
aS'640'
p84
aS'720'
p85
aa(lp86
S'FINISH'
p87
aS'780'
p88
aS'1020'
p89
aasg20
S'1160'
p90
sg22
S'866_683_master_small.mov'
p91
sg24
(lp92
g71
ag75
ag79
ag83
ag87
asg26
S'Did the teacher already buy a house yesterday?'
p93
sg28
S'40'
p94
ssI3
(dp95
g2
(lp96
(lp97
S'YESTERDAY'
p98
aS'440'
p99
aS'500'
p100
aa(lp101
S'MOTHER'
p102
aS'680'
p103
aS'700'
p104
aa(lp105
S'BUY'
p106
aS'900'
p107
aS'920'
p108
aa(lp109
S'BOOK'
p110
aS'1140'
p111
aS'1180'
p112
aa(lp113
S'FINISH'
p114
aS'1240'
p115
aS'1340'
p116
aasg20
S'1580'
p117
sg22
S'867_684_master_small.mov'
p118
sg24
(lp119
g98
ag102
ag106
ag110
ag114
asg26
S'Mother already bought a book yesterday.'
p120
sg28
S'440'
p121
ssI4
(dp122
g2
(lp123
(lp124
S'BOOK+'
p125
aS'180'
p126
aS'380'
p127
aa(lp128
S'MOTHER'
p129
aS'420'
p130
aS'480'
p131
aa(lp132
S'BUY'
p133
aS'560'
p134
aS'600'
p135
aa(lp136
S'YESTERDAY'
p137
aS'720'
p138
aS'820'
p139
aa(lp140
S'FINISH'
p141
aS'860'
p142
aS'960'
p143
aa(lp144
g61
aS'1100'
p145
aasg20
S'1260'
p146
sg22
S'868_685_master_small.mov'
p147
sg24
(lp148
g125
ag129
ag133
ag137
ag141
ag61
asg26
S"It's a *book* that mother already bought yesterday."
p149
sg28
S'120'
p150
ssI5
(dp151
g2
(lp152
(lp153
S'um'
p154
ag29
aS'20'
p155
aa(lp156
S'BOOK'
p157
aS'160'
p158
aS'260'
p159
aa(lp160
S'TEACHER'
p161
aS'320'
p162
aS'360'
p163
aa(lp164
S'neu:GIVE:j'
p165
aS'440'
p166
aS'600'
p167
aa(lp168
g61
aS'700'
p169
aa(lp170
S'STUDENT'
p171
aS'780'
p172
aS'1080'
p173
aasg20
S'1200'
p174
sg22
S'869_686_master_small.mov'
p175
sg24
(lp176
g154
ag157
ag161
ag165
ag61
ag171
asg26
S"It's a book the teacher gave the student."
p177
sg28
g29
ssI6
(dp178
g2
(lp179
(lp180
S'um'
p181
ag29
aS'200'
p182
aa(lp183
S'TEACHER'
p184
aS'340'
p185
aS'400'
p186
aa(lp187
S'neu:GIVE:j'
p188
aS'480'
p189
aS'580'
p190
aa(lp191
S'BOOK'
p192
aS'740'
p193
aS'880'
p194
aa(lp195
S'neu:GIVE-3p-pl-arc'
p196
aS'980'
p197
aS'1140'
p198
aa(lp199
S'#ALL'
p200
aS'1280'
p201
aS'1400'
p202
aa(lp203
S'STUDENT'
p204
aS'1460'
p205
aS'1640'
p206
aasg20
S'1900'
p207
sg22
S'871_688_master_small.mov'
p208
sg24
(lp209
g181
ag184
ag188
ag192
ag196
ag200
ag204
asg26
S'The teacher gave a book to all the students.'
p210
sg28
g29
ssI7
(dp211
g2
(lp212
(lp213
S'TEACHER'
p214
aS'120'
p215
aS'240'
p216
aa(lp217
S'BOOK+'
p218
aS'340'
p219
aS'480'
p220
aa(lp221
S'GIFT-3p-pl-arc'
p222
aS'560'
p223
aS'980'
p224
aasg20
S'1160'
p225
sg22
S'872_689_master_small.mov'
p226
sg24
(lp227
g214
ag218
ag222
asg26
S'The teacher gave out the BOOKS.'
p228
sg28
S'60'
p229
ssI8
(dp230
g2
(lp231
(lp232
S'STUDENT'
p233
aS'380'
p234
aS'480'
p235
aa(lp236
S'IX-3p-pl-arc>i'
p237
aS'540'
p238
aS'720'
p239
aa(lp240
S'i:GIFT:j'
p241
aS'760'
p242
aS'880'
p243
aa(lp244
S'BOOK'
p245
aS'980'
p246
aS'1060'
p247
aa(lp248
S'IX-3p:j'
p249
aS'1100'
p250
aS'1140'
p251
aa(lp252
S'TEACHER'
p253
aS'1220'
p254
aS'1380'
p255
aa(lp256
g61
aS'1480'
p257
aasg20
S'1720'
p258
sg22
S'873_690_master_small.mov'
p259
sg24
(lp260
g233
ag237
ag241
ag245
ag249
ag253
ag61
asg26
S'The students gave a book to the teacher.'
p261
sg28
S'340'
p262
ssI9
(dp263
g2
(lp264
(lp265
S'STUDENT'
p266
aS'200'
p267
aS'300'
p268
aa(lp269
S'IX-loc-arc'
p270
aS'360'
p271
aS'500'
p272
aa(lp273
S'BOOK'
p274
aS'580'
p275
aS'680'
p276
aa(lp277
S'GIFT-distributive:j'
p278
aS'800'
p279
aS'1040'
p280
aa(lp281
S'TEACHER'
p282
aS'1160'
p283
aS'1300'
p284
aa(lp285
S'IX-loc:j'
p286
aS'1460'
p287
aS'1460'
p288
aasg20
S'1720'
p289
sg22
S'874_691_master_small.mov'
p290
sg24
(lp291
g266
ag270
ag274
ag278
ag282
ag286
asg26
S'As for the students, they gave a book to the teacher.'
p292
sg28
S'140'
p293
ssI10
(dp294
g2
(lp295
(lp296
S'BOOK'
p297
aS'540'
p298
aS'700'
p299
aa(lp300
S'STUDENT'
p301
aS'720'
p302
aS'840'
p303
aa(lp304
S'IX-loc:arc'
p305
aS'900'
p306
aS'1060'
p307
aa(lp308
S'(2h)alt.neu:GIFT++:j'
p309
aS'1120'
p310
aS'1380'
p311
aa(lp312
S'IX-3p:j'
p313
aS'1400'
p314
aS'1420'
p315
aa(lp316
S'TEACHER'
p317
aS'1520'
p318
aS'1640'
p319
aa(lp320
S'IX-loc:j'
p321
aS'1760'
p322
aS'1760'
p323
aasg20
S'2040'
p324
sg22
S'875_692_master_small.mov'
p325
sg24
(lp326
g297
ag301
ag305
ag309
ag313
ag317
ag321
asg26
S'The students gave their books to the teacher.'
p327
sg28
S'420'
p328
ssI11
(dp329
g2
(lp330
(lp331
S'STUDENT'
p332
aS'100'
p333
aS'260'
p334
aa(lp335
S'BOOK'
p336
aS'340'
p337
aS'480'
p338
aa(lp339
S'NOW'
p340
aS'520'
p341
aS'540'
p342
aa(lp343
S'(2h)alt.GIVE-recip+'
p344
aS'640'
p345
aS'1180'
p346
aasg20
S'1340'
p347
sg22
S'876_693_master_small.mov'
p348
sg24
(lp349
g332
ag336
ag340
ag344
asg26
S'As for the students and (their) books, they are exchanging them now.'
p350
sg28
g29
ssI12
(dp351
g2
(lp352
(lp353
S'FINISH'
p354
aS'200'
p355
aS'300'
p356
aa(lp357
S'TEACHER'
p358
aS'380'
p359
aS'440'
p360
aa(lp361
S'neu:GIVE:j'
p362
aS'540'
p363
aS'660'
p364
aa(lp365
S'BOOK'
p366
aS'800'
p367
aS'880'
p368
aa(lp369
S'STUDENT'
p370
aS'1000'
p371
aS'1140'
p372
aa(lp373
S'IX-loc-arc'
p374
aS'1180'
p375
aS'1480'
p376
aasg20
S'1720'
p377
sg22
S'877_694_master_small.mov'
p378
sg24
(lp379
g354
ag358
ag362
ag366
ag370
ag374
asg26
S'Has the teacher already given books to the students?'
p380
sg28
S'160'
p381
ssI13
(dp382
g2
(lp383
(lp384
S'WHICH'
p385
aS'240'
p386
aS'280'
p387
aa(lp388
S'BOOK+'
p389
aS'340'
p390
aS'540'
p391
aa(lp392
S'STUDENT'
p393
aS'580'
p394
aS'640'
p395
aa(lp396
S'FINISH'
p397
aS'680'
p398
aS'740'
p399
aa(lp400
S'GIFT:j'
p401
aS'840'
p402
aS'940'
p403
aa(lp404
S'TEACHER'
p405
aS'1080'
p406
aS'1180'
p407
aa(lp408
S'WHAT'
p409
aS'1220'
p410
aS'1400'
p411
aasg20
S'1620'
p412
sg22
S'878_695_master_small.mov'
p413
sg24
(lp414
g385
ag389
ag393
ag397
ag401
ag405
ag409
asg26
S'Which book has the student given to the teacher?'
p415
sg28
S'60'
p416
ssI14
(dp417
g2
(lp418
(lp419
S'fs-JOHN'
p420
aS'260'
p421
aS'480'
p422
aa(lp423
S'FINISH'
p424
aS'560'
p425
aS'640'
p426
aa(lp427
S'READ+'
p428
aS'800'
p429
aS'1000'
p430
aa(lp431
S'BOOK'
p432
aS'1140'
p433
aS'1320'
p434
aasg20
S'1460'
p435
sg22
S'880_697_master_small.mov'
p436
sg24
(lp437
g420
ag424
ag428
ag432
asg26
S'John finished reading the book.'
p438
sg28
S'140'
p439
ssI15
(dp440
g2
(lp441
(lp442
S'IX-2p:i'
p443
aS'460'
p444
aS'460'
p445
aa(lp446
S'SEE'
p447
aS'580'
p448
aS'640'
p449
aa(lp450
S'SOMETHING/ONE'
p451
aS'680'
p452
aS'1040'
p453
aasg20
S'1200'
p454
sg22
S'893_710_master_small.mov'
p455
sg24
(lp456
g443
ag447
ag451
asg26
S'Did you see something/one?'
p457
sg28
S'280'
p458
ssI16
(dp459
g2
(lp460
(lp461
S'IX-2p:i'
p462
aS'460'
p463
aS'460'
p464
aa(lp465
S'SEE'
p466
aS'640'
p467
aS'640'
p468
aa(lp469
S'SOMETHING/ONE'
p470
aS'700'
p471
aS'800'
p472
aa(lp473
S'(1h)part:indef'
p474
aS'840'
p475
aS'1080'
p476
aasg20
S'1280'
p477
sg22
S'894_711_master_small.mov'
p478
sg24
(lp479
g462
ag466
ag470
ag474
asg26
S'Did you see someone?'
p480
sg28
S'380'
p481
ssI17
(dp482
g2
(lp483
(lp484
S'SOMETHING/ONE'
p485
aS'300'
p486
aS'400'
p487
aa(lp488
S'FIND/FIND-OUT'
p489
aS'460'
p490
aS'500'
p491
aa(lp492
S'BOOK'
p493
aS'620'
p494
aS'700'
p495
aa(lp496
S'part:indef'
p497
aS'760'
p498
aS'1040'
p499
aasg20
S'1240'
p500
sg22
S'895_712_master_small.mov'
p501
sg24
(lp502
g485
ag489
ag493
ag497
asg26
S'Did someone find a book?'
p503
sg28
S'200'
p504
ssI18
(dp505
g2
(lp506
(lp507
S'IX-2p:i'
p508
aS'380'
p509
aS'460'
p510
aa(lp511
S'WANT'
p512
aS'500'
p513
aS'580'
p514
aa(lp515
S'TEA'
p516
aS'640'
p517
aS'760'
p518
aa(lp519
S'COFFEE'
p520
aS'900'
p521
aS'1020'
p522
aa(lp523
S'part:indef'
p524
aS'1100'
p525
aS'1280'
p526
aasg20
S'1460'
p527
sg22
S'896_713_master_small.mov'
p528
sg24
(lp529
g508
ag512
ag516
ag520
ag524
asg26
S'Do you want tea or coffee?'
p530
sg28
S'260'
p531
ssI19
(dp532
g2
(lp533
(lp534
S'SOMETHING/ONE'
p535
aS'320'
p536
aS'380'
p537
aa(lp538
S'STRANGE'
p539
aS'480'
p540
aS'540'
p541
aa(lp542
S'part:indef'
p543
aS'620'
p544
aS'800'
p545
aa(lp546
S'ARRIVE'
p547
aS'860'
p548
aS'1000'
p549
aa(lp550
S'part:indef'
p551
aS'1060'
p552
aS'1140'
p553
aasg20
S'1260'
p554
sg22
S'898_715_master_small.mov'
p555
sg24
(lp556
g535
ag539
ag543
ag547
ag551
asg26
S'Some strange thing/person arrived.'
p557
sg28
S'220'
p558
ssI20
(dp559
g2
(lp560
(lp561
S'SOMETHING/ONE'
p562
aS'500'
p563
aS'580'
p564
aa(lp565
S'part:indef'
p566
aS'640'
p567
aS'760'
p568
aa(lp569
S'STRANGE'
p570
aS'840'
p571
aS'1000'
p572
aa(lp573
S'ARRIVE'
p574
aS'1040'
p575
aS'1160'
p576
aa(lp577
g61
aS'1260'
p578
aasg20
S'1380'
p579
sg22
S'899_716_master_small.mov'
p580
sg24
(lp581
g562
ag566
ag570
ag574
ag61
asg26
S'Some strange thing/person arrived.'
p582
sg28
S'360'
p583
ssI21
(dp584
g2
(lp585
(lp586
S'SOMETHING/ONE'
p587
aS'500'
p588
aS'640'
p589
aa(lp590
S'STRANGE'
p591
aS'760'
p592
aS'900'
p593
aa(lp594
S'ARRIVE'
p595
aS'980'
p596
aS'1120'
p597
aa(lp598
S'part:indef'
p599
aS'1160'
p600
aS'1360'
p601
aasg20
S'1520'
p602
sg22
S'900_717_master_small.mov'
p603
sg24
(lp604
g587
ag591
ag595
ag599
asg26
S'Some strange thing/person arrived.'
p605
sg28
S'380'
p606
ssI22
(dp607
g2
(lp608
(lp609
S'SOMETHING/ONE'
p610
aS'240'
p611
aS'580'
p612
aa(lp613
S'STRANGE'
p614
aS'740'
p615
aS'860'
p616
aa(lp617
S'ARRIVE'
p618
aS'920'
p619
aS'1020'
p620
aa(lp621
S'part:indef'
p622
aS'1060'
p623
aS'1220'
p624
aasg20
S'1340'
p625
sg22
S'901_718_master_small.mov'
p626
sg24
(lp627
g610
ag614
ag618
ag622
asg26
S'Some strange thing/person arrived.'
p628
sg28
S'120'
p629
ssI23
(dp630
g2
(lp631
(lp632
S'SOMETHING/ONE'
p633
aS'400'
p634
aS'520'
p635
aa(lp636
S'STRANGE'
p637
aS'620'
p638
aS'740'
p639
aa(lp640
S'ARRIVE'
p641
aS'820'
p642
aS'960'
p643
aa(lp644
S'part:indef'
p645
aS'980'
p646
aS'1140'
p647
aasg20
S'1260'
p648
sg22
S'902_719_master_small.mov'
p649
sg24
(lp650
g633
ag637
ag641
ag645
asg26
S'Some strange thing/person arrived.'
p651
sg28
S'240'
p652
ssI24
(dp653
g2
(lp654
(lp655
S'SOMETHING/ONE'
p656
aS'200'
p657
aS'340'
p658
aa(lp659
S'part:indef'
p660
aS'420'
p661
aS'520'
p662
aa(lp663
S'STRANGE'
p664
aS'600'
p665
aS'720'
p666
aa(lp667
S'ARRIVE'
p668
aS'800'
p669
aS'1020'
p670
aa(lp671
S'part:indef'
p672
aS'1080'
p673
aS'1200'
p674
aasg20
S'1360'
p675
sg22
S'903_720_master_small.mov'
p676
sg24
(lp677
g656
ag660
ag664
ag668
ag672
asg26
S'Some strange thing/person arrived.'
p678
sg28
S'140'
p679
ssI25
(dp680
g2
(lp681
(lp682
S'SOMETHING/ONE'
p683
aS'360'
p684
aS'520'
p685
aa(lp686
S'part:indef'
p687
aS'700'
p688
aS'800'
p689
aa(lp690
S'BOAT'
p691
aS'940'
p692
aS'1080'
p693
aa(lp694
S'SCL:3vehicle-sink'
p695
aS'1260'
p696
aS'1400'
p697
aa(lp698
S'ns-CAPE-COD'
p699
aS'1580'
p700
aS'1720'
p701
aa(lp702
S'IX-loc:i'
p703
aS'1760'
p704
aS'1820'
p705
aasg20
S'2080'
p706
sg22
S'904_721_master_small.mov'
p707
sg24
(lp708
g683
ag687
ag691
ag695
ag699
ag703
asg26
S'Some (kind of) boat sank off Cape Cod.'
p709
sg28
S'160'
p710
ssI26
(dp711
g2
(lp712
(lp713
S'part:indef'
p714
aS'280'
p715
aS'420'
p716
aa(lp717
S'SOMETHING/ONE'
p718
aS'500'
p719
aS'680'
p720
aa(lp721
g61
aS'880'
p722
aa(lp723
S'BOAT'
p724
aS'1020'
p725
aS'1140'
p726
aa(lp727
S'SCL:3vehicle-sink'
p728
aS'1260'
p729
aS'1420'
p730
aa(lp731
S'ns-CAPE-COD'
p732
aS'1580'
p733
aS'1760'
p734
aa(lp735
S'IX-loc:i'
p736
aS'1820'
p737
aS'1860'
p738
aasg20
S'2060'
p739
sg22
S'905_722_master_small.mov'
p740
sg24
(lp741
g714
ag718
ag61
ag724
ag728
ag732
ag736
asg26
S'Some boat sank off Cape Cod (I think).'
p742
sg28
S'180'
p743
ssI27
(dp744
g2
(lp745
(lp746
S'SOMETHING/ONE'
p747
aS'260'
p748
aS'500'
p749
aa(lp750
S'BOAT'
p751
aS'880'
p752
aS'900'
p753
aa(lp754
S'SCL:Bboat-sink'
p755
aS'1080'
p756
aS'1200'
p757
aa(lp758
S'part:indef'
p759
aS'1260'
p760
aS'1340'
p761
aasg20
S'1660'
p762
sg22
S'906_723_master_small.mov'
p763
sg24
(lp764
g747
ag751
ag755
ag759
asg26
S'Some boat sank (I think).'
p765
sg28
S'100'
p766
ssI28
(dp767
g2
(lp768
(lp769
S'SOMETHING/ONE'
p770
aS'400'
p771
aS'560'
p772
aa(lp773
S'BOAT'
p774
aS'860'
p775
aS'940'
p776
aa(lp777
S'SCL:3vehicle-sink'
p778
aS'1080'
p779
aS'1260'
p780
aa(lp781
S'ns-CAPE-COD'
p782
aS'1360'
p783
aS'1500'
p784
aa(lp785
S'part:indef'
p786
aS'1560'
p787
aS'1680'
p788
aasg20
S'1960'
p789
sg22
S'907_724_master_small.mov'
p790
sg24
(lp791
g770
ag774
ag778
ag782
ag786
asg26
S'Some boat sank off Cape Cod (I think).'
p792
sg28
S'300'
p793
ssI29
(dp794
g2
(lp795
(lp796
S'SOMETHING/ONE'
p797
aS'220'
p798
aS'320'
p799
aa(lp800
S'BOAT'
p801
aS'440'
p802
aS'500'
p803
aa(lp804
S'SCL:3vehicle-sink'
p805
aS'680'
p806
aS'780'
p807
aa(lp808
S'ns-CAPE-COD'
p809
aS'880'
p810
aS'980'
p811
aa(lp812
S'part:indef'
p813
aS'1020'
p814
aS'1140'
p815
aasg20
S'1260'
p816
sg22
S'908_725_master_small.mov'
p817
sg24
(lp818
g797
ag801
ag805
ag809
ag813
asg26
S'Some boat sank off Cape Cod (I think).'
p819
sg28
S'180'
p820
ssI30
(dp821
g2
(lp822
(lp823
S'SOMETHING/ONE'
p824
aS'280'
p825
aS'540'
p826
aa(lp827
S'BOAT'
p828
aS'660'
p829
aS'760'
p830
aa(lp831
S'SCL:3vehicle-sink'
p832
aS'940'
p833
aS'1060'
p834
aa(lp835
S'NEAR'
p836
aS'1140'
p837
aS'1180'
p838
aa(lp839
S'ns-CAPE-COD'
p840
aS'1300'
p841
aS'1340'
p842
aa(lp843
S'part:indef'
p844
aS'1420'
p845
aS'1560'
p846
aasg20
S'1780'
p847
sg22
S'910_727_master_small.mov'
p848
sg24
(lp849
g824
ag828
ag832
ag836
ag840
ag844
asg26
S'Some boat sank near Cape Cod (I think).'
p850
sg28
S'220'
p851
ssI31
(dp852
g2
(lp853
(lp854
S'SOMETHING/ONE'
p855
aS'220'
p856
aS'320'
p857
aa(lp858
S'part:indef'
p859
aS'360'
p860
aS'500'
p861
aa(lp862
S'BOAT'
p863
aS'620'
p864
aS'740'
p865
aa(lp866
S'SCL:3vehicle-sink'
p867
aS'900'
p868
aS'1040'
p869
aa(lp870
S'NEAR'
p871
aS'1080'
p872
aS'1200'
p873
aa(lp874
S'ns-CAPE-COD'
p875
aS'1280'
p876
aS'1420'
p877
aa(lp878
S'part:indef'
p879
aS'1460'
p880
aS'1620'
p881
aasg20
S'1820'
p882
sg22
S'911_728_master_small.mov'
p883
sg24
(lp884
g855
ag859
ag863
ag867
ag871
ag875
ag879
asg26
S'Some (kind of) boat sank near Cape Cod.'
p885
sg28
S'140'
p886
ssI32
(dp887
g2
(lp888
(lp889
S'SOMETHING/ONE'
p890
aS'260'
p891
aS'340'
p892
aa(lp893
S'part:indef'
p894
aS'400'
p895
aS'620'
p896
aa(lp897
S'BOAT'
p898
aS'740'
p899
aS'820'
p900
aa(lp901
S'SCL:3vehicle-sink'
p902
aS'980'
p903
aS'1160'
p904
aa(lp905
S'NEAR'
p906
aS'1280'
p907
aS'1360'
p908
aa(lp909
S'ns-CAPE-COD'
p910
aS'1480'
p911
aS'1660'
p912
aa(lp913
S'part:indef'
p914
aS'1700'
p915
aS'1900'
p916
aasg20
S'2100'
p917
sg22
S'912_729_master_small.mov'
p918
sg24
(lp919
g890
ag894
ag898
ag902
ag906
ag910
ag914
asg26
S'Some (kind of) boat sank near Cape Cod.'
p920
sg28
S'180'
p921
ss.