(dp0
I0
(dp1
S'Annotated'
p2
(lp3
(lp4
S'MOTHER'
p5
aS'580'
p6
aS'640'
p7
aa(lp8
S'NOT-WANT'
p9
aS'800'
p10
aS'880'
p11
aa(lp12
S'BUY'
p13
aS'1020'
p14
aS'1100'
p15
aa(lp16
S'HOUSE'
p17
aS'1200'
p18
aS'1380'
p19
aasS'EndFrame'
p20
S'1460'
p21
sS'Video'
p22
S'718_523_master_small.mov'
p23
sS'Words'
p24
(lp25
g5
ag9
ag13
ag17
asS'English'
p26
S'Mother does not want to buy a house.'
p27
sS'StartFrame'
p28
S'420'
p29
ssI1
(dp30
g2
(lp31
(lp32
S'fs-JOHN'
p33
aS'460'
p34
aS'540'
p35
aa(lp36
S'FUTURE'
p37
aS'660'
p38
aS'700'
p39
aa(lp40
S'BUY'
p41
aS'780'
p42
aS'820'
p43
aa(lp44
S'HOW-MANY'
p45
aS'940'
p46
aS'1000'
p47
aa(lp48
S'BOOK'
p49
aS'1080'
p50
aS'1140'
p51
aa(lp52
S'part:indef'
p53
aS'1160'
p54
aS'1320'
p55
aasg20
S'1420'
p56
sg22
S'720_525_master_small.mov'
p57
sg24
(lp58
g33
ag37
ag41
ag45
ag49
ag53
asg26
S'How many books will John buy?'
p59
sg28
S'260'
p60
ssI2
(dp61
g2
(lp62
(lp63
S'fs-JOHN'
p64
aS'380'
p65
aS'500'
p66
aa(lp67
S'FINISH'
p68
aS'600'
p69
aS'680'
p70
aa(lp71
S'BUY'
p72
aS'740'
p73
aS'840'
p74
aa(lp75
S'HOW-MANY'
p76
aS'940'
p77
aS'1020'
p78
aa(lp79
S'BOOK'
p80
aS'1080'
p81
aS'1180'
p82
aa(lp83
S'part:indef'
p84
aS'1200'
p85
aS'1340'
p86
aasg20
S'1340'
p87
sg22
S'721_526_master_small.mov'
p88
sg24
(lp89
g64
ag68
ag72
ag76
ag80
ag84
asg26
S'How many books has John bought?'
p90
sg28
S'260'
p91
ssI3
(dp92
g2
(lp93
(lp94
S'fs-JOHN'
p95
aS'420'
p96
aS'620'
p97
aa(lp98
S'punct'
p99
aS'660'
p100
aa(lp101
S'WANT'
p102
aS'720'
p103
aS'800'
p104
aa(lp105
S'BUY'
p106
aS'860'
p107
aS'920'
p108
aa(lp109
S'HOW-MANY'
p110
aS'1040'
p111
aS'1120'
p112
aa(lp113
S'BOOK'
p114
aS'1180'
p115
aS'1280'
p116
aa(lp117
S'part:indef'
p118
aS'1300'
p119
aS'1420'
p120
aasg20
S'1420'
p121
sg22
S'722_527_master_small.mov'
p122
sg24
(lp123
g95
ag99
ag102
ag106
ag110
ag114
ag118
asg26
S'How many books does John want to buy?'
p124
sg28
S'320'
p125
ssI4
(dp126
g2
(lp127
(lp128
S'TEACHER'
p129
aS'620'
p130
aS'680'
p131
aa(lp132
S'LIKE'
p133
aS'840'
p134
aS'900'
p135
aa(lp136
S'MOVIE'
p137
aS'1040'
p138
aS'1180'
p139
aa(lp140
g99
aS'1200'
p141
aasg20
S'1200'
p142
sg22
S'723_528_master_small.mov'
p143
sg24
(lp144
g129
ag133
ag137
ag99
asg26
S'The teacher likes movies.'
p145
sg28
S'520'
p146
ssI5
(dp147
g2
(lp148
(lp149
S'TEACHER'
p150
aS'660'
p151
aS'780'
p152
aa(lp153
S'LIKE'
p154
aS'860'
p155
aS'900'
p156
aa(lp157
S'MOVIE'
p158
aS'1020'
p159
aS'1120'
p160
aa(lp161
g99
aS'1140'
p162
aa(lp163
S'BUT'
p164
aS'1300'
p165
aS'1340'
p166
aa(lp167
S'STUDENT'
p168
aS'1460'
p169
aS'1560'
p170
aa(lp171
S'IX-3p-pl-arc'
p172
aS'1600'
p173
aS'1640'
p174
aa(lp175
S'NOT'
p176
aS'1820'
p177
aS'2020'
p178
aasg20
S'2040'
p179
sg22
S'724_529_master_small.mov'
p180
sg24
(lp181
g150
ag154
ag158
ag99
ag164
ag168
ag172
ag176
asg26
S"The teacher likes movies, but the students don't."
p182
sg28
S'460'
p183
ssI6
(dp184
g2
(lp185
(lp186
S'TEACHER'
p187
aS'500'
p188
aS'580'
p189
aa(lp190
S'NOT'
p191
aS'720'
p192
aS'760'
p193
aa(lp194
S'LIKE'
p195
aS'880'
p196
aS'940'
p197
aa(lp198
S'MOVIE'
p199
aS'1100'
p200
aS'1240'
p201
aa(lp202
g99
aS'1280'
p203
aasg20
S'1320'
p204
sg22
S'725_530_master_small.mov'
p205
sg24
(lp206
g187
ag191
ag195
ag199
ag99
asg26
S'The teacher does not like movies.'
p207
sg28
S'300'
p208
ssI7
(dp209
g2
(lp210
(lp211
S'TEACHER'
p212
aS'500'
p213
aS'620'
p214
aa(lp215
S'LIKE'
p216
aS'740'
p217
aS'780'
p218
aa(lp219
S'BOOK'
p220
aS'880'
p221
aS'960'
p222
aa(lp223
g99
aS'1020'
p224
aa(lp225
S'BUT'
p226
aS'1120'
p227
aS'1160'
p228
aa(lp229
S'NOT'
p230
aS'1380'
p231
aS'1460'
p232
aa(lp233
S'MOVIE'
p234
aS'1580'
p235
aS'1680'
p236
aa(lp237
g99
aS'1760'
p238
aasg20
S'1880'
p239
sg22
S'726_531_master_small.mov'
p240
sg24
(lp241
g212
ag216
ag220
ag99
ag226
ag230
ag234
ag99
asg26
S'The teacher likes books but not movies.'
p242
sg28
S'400'
p243
ssI8
(dp244
g2
(lp245
(lp246
S'TEACHER'
p247
aS'520'
p248
aS'640'
p249
aa(lp250
S'LIKE'
p251
aS'720'
p252
aS'760'
p253
aa(lp254
S'MOVIE'
p255
aS'840'
p256
aS'980'
p257
aa(lp258
S'QMwg'
p259
aS'1120'
p260
aS'1340'
p261
aasg20
S'1520'
p262
sg22
S'727_532_master_small.mov'
p263
sg24
(lp264
g247
ag251
ag255
ag259
asg26
S'Does the teacher like movies?'
p265
sg28
S'420'
p266
ssI9
(dp267
g2
(lp268
(lp269
S'TEACHER'
p270
aS'480'
p271
aS'620'
p272
aa(lp273
S'LIKE'
p274
aS'680'
p275
aS'720'
p276
aa(lp277
S'MOVIE'
p278
aS'860'
p279
aS'960'
p280
aa(lp281
S'QMwg'
p282
aS'1120'
p283
aS'1420'
p284
aasg20
S'1600'
p285
sg22
S'728_533_master_small.mov'
p286
sg24
(lp287
g270
ag274
ag278
ag282
asg26
S'Does the teacher like movies?'
p288
sg28
S'340'
p289
ssI10
(dp290
g2
(lp291
(lp292
S'MOTHER'
p293
aS'380'
p294
aS'480'
p295
aa(lp296
S'BUY'
p297
aS'700'
p298
aS'740'
p299
aa(lp300
S'CAR'
p301
aS'800'
p302
aS'960'
p303
aa(lp304
g99
aS'1020'
p305
aa(lp306
S'GIFT:j'
p307
aS'1080'
p308
aS'1280'
p309
aa(lp310
S'fs-JOHN'
p311
aS'1380'
p312
aS'1520'
p313
aa(lp314
g99
aS'1540'
p315
aasg20
S'1660'
p316
sg22
S'729_534_master_small.mov'
p317
sg24
(lp318
g293
ag297
ag301
ag99
ag307
ag311
ag99
asg26
S'Mother bought a car and gave it to John.'
p319
sg28
S'300'
p320
ssI11
(dp321
g2
(lp322
(lp323
S'fs-JOHN'
p324
aS'300'
p325
aS'380'
p326
aa(lp327
S'BUY'
p328
aS'500'
p329
aS'540'
p330
aa(lp331
S'CAR'
p332
aS'580'
p333
aS'700'
p334
aa(lp335
S'YESTERDAY'
p336
aS'820'
p337
aS'920'
p338
aa(lp339
g99
aS'1020'
p340
aa(lp341
S'GIFT:j'
p342
aS'1220'
p343
aS'1340'
p344
aa(lp345
S'MOTHER'
p346
aS'1480'
p347
aS'1560'
p348
aa(lp349
g99
aS'1600'
p350
aasg20
S'1680'
p351
sg22
S'730_535_master_small.mov'
p352
sg24
(lp353
g324
ag328
ag332
ag336
ag99
ag342
ag346
ag99
asg26
S'John bought a car yesterday and gave it to (his) mother.'
p354
sg28
S'180'
p355
ssI12
(dp356
g2
(lp357
(lp358
S'fs-MARY'
p359
aS'700'
p360
aS'900'
p361
aa(lp362
S'BUY'
p363
aS'1040'
p364
aS'1100'
p365
aa(lp366
S'MOTHER'
p367
aS'1260'
p368
aS'1300'
p369
aa(lp370
S'POSS-3p:i'
p371
aS'1380'
p372
aS'1420'
p373
aa(lp374
S'CAR'
p375
aS'1500'
p376
aS'1700'
p377
aa(lp378
S'GIFT:k'
p379
aS'1900'
p380
aS'2040'
p381
aa(lp382
S'fs-JOHN'
p383
aS'2080'
p384
aS'2240'
p385
aasg20
S'2360'
p386
sg22
S'731_536_master_small.mov'
p387
sg24
(lp388
g359
ag363
ag367
ag371
ag375
ag379
ag383
asg26
S"Mary bought (her) mother's car to give to John."
p389
sg28
S'340'
p390
ssI13
(dp391
g2
(lp392
(lp393
S'fs-JOHN'
p394
aS'420'
p395
aS'620'
p396
aa(lp397
S'NOT'
p398
aS'680'
p399
aS'720'
p400
aa(lp401
S'BUY'
p402
aS'820'
p403
aS'880'
p404
aa(lp405
S'MOTHER'
p406
aS'960'
p407
aS'1020'
p408
aa(lp409
S'POSS-3p:i'
p410
aS'1060'
p411
aS'1080'
p412
aa(lp413
S'CAR'
p414
aS'1160'
p415
aS'1280'
p416
aasg20
S'1380'
p417
sg22
S'732_537_master_small.mov'
p418
sg24
(lp419
g394
ag398
ag402
ag406
ag410
ag414
asg26
S"No, John did not buy (his) mother's car."
p420
sg28
S'360'
p421
ssI14
(dp422
g2
(lp423
(lp424
S'MOTHER'
p425
aS'600'
p426
aS'640'
p427
aa(lp428
S'NOT'
p429
aS'700'
p430
aS'740'
p431
aa(lp432
S'BUY'
p433
aS'840'
p434
aS'860'
p435
aa(lp436
S'CAR'
p437
aS'920'
p438
aS'960'
p439
aa(lp440
S'FOR'
p441
aS'1160'
p442
aS'1220'
p443
aa(lp444
S'IX-3p:i'
p445
aS'1280'
p446
aS'1300'
p447
aa(lp448
S'fs-JOHN'
p449
aS'1360'
p450
aS'1500'
p451
aa(lp452
g99
aS'1580'
p453
aa(lp454
S'NOT'
p455
aS'1660'
p456
aS'1720'
p457
aasg20
S'2000'
p458
sg22
S'733_538_master_small.mov'
p459
sg24
(lp460
g425
ag429
ag433
ag437
ag441
ag445
ag449
ag99
ag455
asg26
S'Mother did not buy the car for John.'
p461
sg28
S'360'
p462
ssI15
(dp463
g2
(lp464
(lp465
S'STUDENT'
p466
aS'420'
p467
aS'580'
p468
aa(lp469
S'LIKE'
p470
aS'700'
p471
aS'740'
p472
aa(lp473
S'CHOCOLATE'
p474
aS'840'
p475
aS'1160'
p476
aasg20
S'1240'
p477
sg22
S'734_539_master_small.mov'
p478
sg24
(lp479
g466
ag470
ag474
asg26
S'The student likes chocolate.'
p480
sg28
S'220'
p481
ssI16
(dp482
g2
(lp483
(lp484
S'TEACHER'
p485
aS'400'
p486
aS'540'
p487
aa(lp488
S'LIKE'
p489
aS'740'
p490
aS'800'
p491
aa(lp492
S'CHOCOLATE'
p493
aS'900'
p494
aS'1160'
p495
aasg20
S'1260'
p496
sg22
S'735_540_master_small.mov'
p497
sg24
(lp498
g485
ag489
ag493
asg26
S'The teacher likes chocolate.'
p499
sg28
S'220'
p500
ssI17
(dp501
g2
(lp502
(lp503
S'STUDENT'
p504
aS'400'
p505
aS'460'
p506
aa(lp507
S'IX-3p-pl-arc'
p508
aS'520'
p509
aS'700'
p510
aa(lp511
S'NOT'
p512
aS'920'
p513
aS'980'
p514
aa(lp515
S'LIKE'
p516
aS'1080'
p517
aS'1140'
p518
aa(lp519
S'CHOCOLATE'
p520
aS'1400'
p521
aS'1540'
p522
aasg20
S'1720'
p523
sg22
S'736_541_master_small.mov'
p524
sg24
(lp525
g504
ag508
ag512
ag516
ag520
asg26
S'The students do not like chocolate.'
p526
sg28
S'120'
p527
ssI18
(dp528
g2
(lp529
(lp530
S'STUDENT'
p531
aS'300'
p532
aS'360'
p533
aa(lp534
S'IX-3p-pl-arc'
p535
aS'440'
p536
aS'580'
p537
aa(lp538
S'(Y)NOT-LIKE'
p539
aS'820'
p540
aS'980'
p541
aa(lp542
S'CHOCOLATE'
p543
aS'1140'
p544
aS'1320'
p545
aasg20
S'1440'
p546
sg22
S'737_542_master_small.mov'
p547
sg24
(lp548
g531
ag535
ag539
ag543
asg26
S"The students don't like chocolate."
p549
sg28
S'180'
p550
ssI19
(dp551
g2
(lp552
(lp553
S'TEACHER'
p554
aS'460'
p555
aS'560'
p556
aa(lp557
S'LIKE'
p558
aS'700'
p559
aS'740'
p560
aa(lp561
S'CHOCOLATE'
p562
aS'820'
p563
aS'1060'
p564
aa(lp565
S'QMwg'
p566
aS'1160'
p567
aS'1340'
p568
aasg20
S'1540'
p569
sg22
S'738_543_master_small.mov'
p570
sg24
(lp571
g554
ag558
ag562
ag566
asg26
S'Does the teacher like chocolate?'
p572
sg28
S'200'
p573
ssI20
(dp574
g2
(lp575
(lp576
S'fs-JOHN'
p577
aS'500'
p578
aS'700'
p579
aa(lp580
S'NOT-LIKE'
p581
aS'820'
p582
aS'1000'
p583
aa(lp584
S'CHOCOLATE'
p585
aS'1180'
p586
aS'1220'
p587
aa(lp588
S'(Y)WHY'
p589
aS'1320'
p590
aS'1540'
p591
aa(lp592
g99
aS'1580'
p593
aasg20
S'1700'
p594
sg22
S'739_544_master_small.mov'
p595
sg24
(lp596
g577
ag581
ag585
ag589
ag99
asg26
S"Why doesn't John like chocolate?"
p597
sg28
S'220'
p598
ssI21
(dp599
g2
(lp600
(lp601
S'STUDENT'
p602
aS'520'
p603
aS'600'
p604
aa(lp605
S'SHOULD'
p606
aS'700'
p607
aS'780'
p608
aa(lp609
S'READ+'
p610
aS'860'
p611
aS'1000'
p612
aa(lp613
S'HOW-MANY'
p614
aS'1120'
p615
aS'1200'
p616
aa(lp617
S'BOOK'
p618
aS'1300'
p619
aS'1360'
p620
aa(lp621
S'part:indef'
p622
aS'1420'
p623
aS'1480'
p624
aasg20
S'1600'
p625
sg22
S'740_545_master_small.mov'
p626
sg24
(lp627
g602
ag606
ag610
ag614
ag618
ag622
asg26
S'How many books should the students read?'
p628
sg28
S'260'
p629
ssI22
(dp630
g2
(lp631
(lp632
S'STUDENT'
p633
aS'359'
p634
aS'400'
p635
aa(lp636
S'FUTURE'
p637
aS'560'
p638
aS'580'
p639
aa(lp640
S'READ+'
p641
aS'680'
p642
aS'820'
p643
aa(lp644
S'HOW-MANY'
p645
aS'940'
p646
aS'1000'
p647
aa(lp648
S'BOOK'
p649
aS'1060'
p650
aS'1160'
p651
aa(lp652
S'part:indef'
p653
aS'1240'
p654
aS'1260'
p655
aasg20
S'1400'
p656
sg22
S'741_546_master_small.mov'
p657
sg24
(lp658
g633
ag637
ag641
ag645
ag649
ag653
asg26
S'How many books WILL the students READ?'
p659
sg28
S'200'
p660
ssI23
(dp661
g2
(lp662
(lp663
S'STUDENT'
p664
aS'340'
p665
aS'440'
p666
aa(lp667
S'UP-TO-NOW'
p668
aS'620'
p669
aS'740'
p670
aa(lp671
S'FINISH'
p672
aS'780'
p673
aS'860'
p674
aa(lp675
S'READ+'
p676
aS'940'
p677
aS'1060'
p678
aa(lp679
S'HOW-MANY'
p680
aS'1160'
p681
aS'1240'
p682
aa(lp683
S'BOOK+'
p684
aS'1300'
p685
aS'1520'
p686
aa(lp687
S'part:indef'
p688
aS'1540'
p689
aS'1660'
p690
aasg20
S'1740'
p691
sg22
S'742_547_master_small.mov'
p692
sg24
(lp693
g664
ag668
ag672
ag676
ag680
ag684
ag688
asg26
S'How many books have the students finished reading so far?'
p694
sg28
S'260'
p695
ssI24
(dp696
g2
(lp697
(lp698
S'YESTERDAY'
p699
aS'260'
p700
aS'400'
p701
aa(lp702
S'MOTHER'
p703
aS'540'
p704
aS'560'
p705
aa(lp706
S'neu:GIVE:j'
p707
aS'640'
p708
aS'700'
p709
aa(lp710
S'fs-JOHN'
p711
aS'1060'
p712
aS'1260'
p713
aa(lp714
S'CHOCOLATE'
p715
aS'1380'
p716
aS'1520'
p717
aasg20
S'1860'
p718
sg22
S'743_550_master_small.mov'
p719
sg24
(lp720
g699
ag703
ag707
ag711
ag715
asg26
S'Mother gave John chocolate yesterday.'
p721
sg28
S'60'
p722
ssI25
(dp723
g2
(lp724
(lp725
S'fs-JOHN'
p726
aS'280'
p727
aS'400'
p728
aa(lp729
S'neu:GIVE:j'
p730
aS'440'
p731
aS'540'
p732
aa(lp733
S'MOTHER'
p734
aS'680'
p735
aS'700'
p736
aa(lp737
S'CHOCOLATE'
p738
aS'900'
p739
aS'1040'
p740
aasg20
S'1180'
p741
sg22
S'744_551_master_small.mov'
p742
sg24
(lp743
g726
ag730
ag734
ag738
asg26
S'John gave (his) mother chocolate.'
p744
sg28
S'200'
p745
ssI26
(dp746
g2
(lp747
(lp748
S'fs-JOHN'
p749
aS'360'
p750
aS'520'
p751
aa(lp752
S'NOW'
p753
aS'580'
p754
aS'600'
p755
aa(lp756
S'neu:GIVE:j'
p757
aS'700'
p758
aS'960'
p759
aa(lp760
S'MOTHER'
p761
aS'1100'
p762
aS'1140'
p763
aa(lp764
S'CHOCOLATE'
p765
aS'1280'
p766
aS'1420'
p767
aasg20
S'1540'
p768
sg22
S'745_552_master_small.mov'
p769
sg24
(lp770
g749
ag753
ag757
ag761
ag765
asg26
S'John has just given (his) mother chocolate.'
p771
sg28
S'260'
p772
ssI27
(dp773
g2
(lp774
(lp775
S'fs-JOHN'
p776
aS'760'
p777
aS'820'
p778
aa(lp779
S'FUTURE'
p780
aS'920'
p781
aS'940'
p782
aa(lp783
S'neu:GIVE:j'
p784
aS'1000'
p785
aS'1060'
p786
aa(lp787
S'MOTHER'
p788
aS'1160'
p789
aS'1200'
p790
aa(lp791
S'CHOCOLATE'
p792
aS'1360'
p793
aS'1580'
p794
aasg20
S'1700'
p795
sg22
S'747_554_master_small.mov'
p796
sg24
(lp797
g776
ag780
ag784
ag788
ag792
asg26
S'Will John give (his) mother chocolate?'
p798
sg28
S'640'
p799
ssI28
(dp800
g2
(lp801
(lp802
S'MOTHER'
p803
aS'300'
p804
aS'320'
p805
aa(lp806
S'FINISH'
p807
aS'340'
p808
aS'380'
p809
aa(lp810
S'neu:GIVE:j'
p811
aS'480'
p812
aS'540'
p813
aa(lp814
S'fs-JOHN'
p815
aS'580'
p816
aS'780'
p817
aa(lp818
S'CHOCOLATE'
p819
aS'920'
p820
aS'1040'
p821
aa(lp822
S'QMwg'
p823
aS'1160'
p824
aS'1220'
p825
aasg20
S'1360'
p826
sg22
S'748_555_master_small.mov'
p827
sg24
(lp828
g803
ag807
ag811
ag815
ag819
ag823
asg26
S'Did mother already give John chocolate?'
p829
sg28
S'140'
p830
ssI29
(dp831
g2
(lp832
(lp833
S'TEACHER'
p834
aS'640'
p835
aS'760'
p836
aa(lp837
S'BUY++'
p838
aS'860'
p839
aS'1100'
p840
aa(lp841
S'HOW-MANY'
p842
aS'1220'
p843
aS'1320'
p844
aa(lp845
S'CAR'
p846
aS'1420'
p847
aS'1560'
p848
aa(lp849
S'UP-TO-NOW'
p850
aS'1680'
p851
aS'1900'
p852
aa(lp853
S'part:indef'
p854
aS'1980'
p855
aS'2020'
p856
aasg20
S'2100'
p857
sg22
S'749_556_master_small.mov'
p858
sg24
(lp859
g834
ag838
ag842
ag846
ag850
ag854
asg26
S'How many cars has the teacher bought so far?'
p860
sg28
S'340'
p861
ssI30
(dp862
g2
(lp863
(lp864
S'STUDENT'
p865
aS'340'
p866
aS'460'
p867
aa(lp868
S'BUY+'
p869
aS'540'
p870
aS'780'
p871
aa(lp872
S'HOW-MANY'
p873
aS'900'
p874
aS'980'
p875
aa(lp876
S'CAR'
p877
aS'1060'
p878
aS'1220'
p879
aa(lp880
S'UP-TO-NOW'
p881
aS'1320'
p882
aS'1520'
p883
aa(lp884
S'part:indef'
p885
aS'1540'
p886
aS'1620'
p887
aasg20
S'1700'
p888
sg22
S'750_557_master_small.mov'
p889
sg24
(lp890
g865
ag869
ag873
ag877
ag881
ag885
asg26
S'How many cars has/have the student(s) bought so far?'
p891
sg28
S'120'
p892
ssI31
(dp893
g2
(lp894
(lp895
S'TEACHER'
p896
aS'580'
p897
aS'680'
p898
aa(lp899
S'BUY++'
p900
aS'760'
p901
aS'1020'
p902
aa(lp903
S'MANY'
p904
aS'1080'
p905
aS'1160'
p906
aa(lp907
S'CAR'
p908
aS'1260'
p909
aS'1440'
p910
aa(lp911
S'QMwg'
p912
aS'1560'
p913
aS'1780'
p914
aasg20
S'1980'
p915
sg22
S'751_558_master_small.mov'
p916
sg24
(lp917
g896
ag900
ag904
ag908
ag912
asg26
S'Has the teacher bought many cars?'
p918
sg28
S'360'
p919
ssI32
(dp920
g2
(lp921
(lp922
S'STUDENT'
p923
aS'560'
p924
aS'680'
p925
aa(lp926
S'FUTURE'
p927
aS'820'
p928
aS'860'
p929
aa(lp930
S'BUY'
p931
aS'960'
p932
aS'1040'
p933
aa(lp934
S'HOW-MANY'
p935
aS'1180'
p936
aS'1260'
p937
aa(lp938
S'CAR'
p939
aS'1340'
p940
aS'1520'
p941
aa(lp942
g99
aS'1560'
p943
aasg20
S'1720'
p944
sg22
S'752_559_master_small.mov'
p945
sg24
(lp946
g923
ag927
ag931
ag935
ag939
ag99
asg26
S'How many cars will the student buy?'
p947
sg28
S'200'
p948
ssI33
(dp949
g2
(lp950
(lp951
S'IX-3p:i'
p952
aS'340'
p953
aS'400'
p954
aa(lp955
S'STUDENT'
p956
aS'580'
p957
aS'680'
p958
aa(lp959
S'LIKE'
p960
aS'780'
p961
aS'860'
p962
aa(lp963
S'EAT'
p964
aS'1020'
p965
aS'1060'
p966
aa(lp967
S'CHOCOLATE'
p968
aS'1200'
p969
aS'1300'
p970
aa(lp971
S'BUT'
p972
aS'1420'
p973
aS'1440'
p974
aa(lp975
S'IX-3p:i'
p976
aS'1560'
p977
aS'1640'
p978
aa(lp979
S'(Y)NOT-LIKE'
p980
aS'2140'
p981
aS'2220'
p982
aa(lp983
S'READ+++'
p984
aS'2400'
p985
aS'2720'
p986
aasg20
S'3080'
p987
sg22
S'753_560_master_small.mov'
p988
sg24
(lp989
g952
ag956
ag960
ag964
ag968
ag972
ag976
ag980
ag984
asg26
S"The student likes to eat chocolate but he/she doesn't like to read."
p990
sg28
S'100'
p991
ssI34
(dp992
g2
(lp993
(lp994
S'STUDENT'
p995
aS'560'
p996
aS'620'
p997
aa(lp998
S'IX-3p:i'
p999
aS'760'
p1000
aS'800'
p1001
aa(lp1002
g99
aS'1080'
p1003
aa(lp1004
S'(Y)NOT-LIKE'
p1005
aS'1320'
p1006
aS'1400'
p1007
aa(lp1008
S'READ'
p1009
aS'1520'
p1010
aS'1580'
p1011
aa(lp1012
S'BUT'
p1013
aS'1720'
p1014
aS'1800'
p1015
aa(lp1016
S'IX-3p:i'
p1017
aS'1880'
p1018
aS'1900'
p1019
aa(lp1020
S'LIKE'
p1021
aS'2040'
p1022
aS'2100'
p1023
aa(lp1024
S'EAT'
p1025
aS'2320'
p1026
aS'2360'
p1027
aa(lp1028
S'CHOCOLATE'
p1029
aS'2540'
p1030
aS'2820'
p1031
aasg20
S'3180'
p1032
sg22
S'754_561_master_small.mov'
p1033
sg24
(lp1034
g995
ag999
ag99
ag1005
ag1009
ag1013
ag1017
ag1021
ag1025
ag1029
asg26
S"The student doesn't like to read but he/she likes to eat chocolate."
p1035
sg28
S'60'
p1036
ssI35
(dp1037
g2
(lp1038
(lp1039
S'TEACHER'
p1040
aS'260'
p1041
aS'440'
p1042
aa(lp1043
S'LIKE'
p1044
aS'740'
p1045
aS'800'
p1046
aa(lp1047
S'READ+'
p1048
aS'900'
p1049
aS'1100'
p1050
aa(lp1051
S'IX-3p:i'
p1052
aS'1280'
p1053
aS'1320'
p1054
aa(lp1055
S'(Y)NOT-LIKE'
p1056
aS'1540'
p1057
aS'1660'
p1058
aa(lp1059
S'MOVIE'
p1060
aS'1800'
p1061
aS'2060'
p1062
aasg20
S'2380'
p1063
sg22
S'755_564_master_small.mov'
p1064
sg24
(lp1065
g1040
ag1044
ag1048
ag1052
ag1056
ag1060
asg26
S"The teacher likes to read but he/she doesn't like movies."
p1066
sg28
S'0'
p1067
ssI36
(dp1068
g2
(lp1069
(lp1070
S'FATHER'
p1071
aS'380'
p1072
aS'400'
p1073
aa(lp1074
S'LIKE'
p1075
aS'620'
p1076
aS'700'
p1077
aa(lp1078
S'fs-JOHN'
p1079
aS'740'
p1080
aS'840'
p1081
aa(lp1082
S'POSS-3p:i'
p1083
aS'920'
p1084
aS'940'
p1085
aa(lp1086
S'HOUSE'
p1087
aS'1080'
p1088
aS'1220'
p1089
aa(lp1090
g99
aS'1440'
p1091
aa(lp1092
S'NOT'
p1093
aS'1740'
p1094
aS'1760'
p1095
aa(lp1096
S'LIKE'
p1097
aS'1860'
p1098
aS'1880'
p1099
aa(lp1100
S'POSS-3p:i'
p1101
aS'1940'
p1102
aS'1960'
p1103
aa(lp1104
S'CAR'
p1105
aS'2100'
p1106
aS'2320'
p1107
aa(lp1108
g99
aS'2360'
p1109
aasg20
S'2600'
p1110
sg22
S'756_565_master_small.mov'
p1111
sg24
(lp1112
g1071
ag1075
ag1079
ag1083
ag1087
ag99
ag1093
ag1097
ag1101
ag1105
ag99
asg26
S"Father likes John's house but doesn't like his car."
p1113
sg28
S'80'
p1114
ssI37
(dp1115
g2
(lp1116
(lp1117
S'FATHER'
p1118
aS'400'
p1119
aS'420'
p1120
aa(lp1121
S'LIKE'
p1122
aS'560'
p1123
aS'600'
p1124
aa(lp1125
S'BOOK'
p1126
aS'700'
p1127
aS'740'
p1128
aa(lp1129
g99
aS'820'
p1130
aa(lp1131
S'AND'
p1132
aS'940'
p1133
aS'1000'
p1134
aa(lp1135
S'MOVIE'
p1136
aS'1120'
p1137
aS'1260'
p1138
aa(lp1139
g99
aS'1320'
p1140
aasg20
S'1460'
p1141
sg22
S'757_566_master_small.mov'
p1142
sg24
(lp1143
g1118
ag1122
ag1126
ag99
ag1132
ag1136
ag99
asg26
S'Father likes books and movies.'
p1144
sg28
S'200'
p1145
ssI38
(dp1146
g2
(lp1147
(lp1148
S'fs-JOHN'
p1149
aS'200'
p1150
aS'400'
p1151
aa(lp1152
S'LIKE'
p1153
aS'520'
p1154
aS'580'
p1155
aa(lp1156
S'FATHER'
p1157
aS'820'
p1158
aS'840'
p1159
aa(lp1160
S'POSS-3p:i'
p1161
aS'960'
p1162
aS'980'
p1163
aa(lp1164
S'CAR'
p1165
aS'1140'
p1166
aS'1420'
p1167
aa(lp1168
g99
aS'1500'
p1169
aa(lp1170
S'AND'
p1171
aS'1540'
p1172
aS'1560'
p1173
aa(lp1174
S'HOUSE'
p1175
aS'1700'
p1176
aS'1840'
p1177
aa(lp1178
g99
aS'1880'
p1179
aasg20
S'2060'
p1180
sg22
S'758_567_master_small.mov'
p1181
sg24
(lp1182
g1149
ag1153
ag1157
ag1161
ag1165
ag99
ag1171
ag1175
ag99
asg26
S"John likes his father's car and house."
p1183
sg28
S'40'
p1184
ssI39
(dp1185
g2
(lp1186
(lp1187
S'fs-JOHN'
p1188
aS'220'
p1189
aS'380'
p1190
aa(lp1191
S'LIKE'
p1192
aS'500'
p1193
aS'540'
p1194
aa(lp1195
S'CAR'
p1196
aS'680'
p1197
aS'880'
p1198
aa(lp1199
S'AND'
p1200
aS'1020'
p1201
aS'1060'
p1202
aa(lp1203
S'BOOK'
p1204
aS'1220'
p1205
aS'1300'
p1206
aa(lp1207
g99
aS'1340'
p1208
aa(lp1209
S'part:indef'
p1210
aS'1420'
p1211
aS'1500'
p1212
aasg20
S'1680'
p1213
sg22
S'759_568_master_small.mov'
p1214
sg24
(lp1215
g1188
ag1192
ag1196
ag1200
ag1204
ag99
ag1210
asg26
S'John likes cars and books.'
p1216
sg28
S'140'
p1217
ssI40
(dp1218
g2
(lp1219
(lp1220
S'TEACHER'
p1221
aS'340'
p1222
aS'440'
p1223
aa(lp1224
S'FINISH'
p1225
aS'540'
p1226
aS'620'
p1227
aa(lp1228
S'READ+'
p1229
aS'700'
p1230
aS'800'
p1231
aa(lp1232
S'MAGAZINE'
p1233
aS'920'
p1234
aS'1160'
p1235
aa(lp1236
S'NOW'
p1237
aS'1260'
p1238
aS'1320'
p1239
aa(lp1240
S'SWITCH'
p1241
aS'1460'
p1242
aS'1620'
p1243
aa(lp1244
S'READ'
p1245
aS'1720'
p1246
aS'1760'
p1247
aa(lp1248
S'BOOK+'
p1249
aS'1920'
p1250
aS'2080'
p1251
aasg20
S'2340'
p1252
sg22
S'760_569_master_small.mov'
p1253
sg24
(lp1254
g1221
ag1225
ag1229
ag1233
ag1237
ag1241
ag1245
ag1249
asg26
S'The teacher finished reading the magazine so now she is going to read a book.'
p1255
sg28
S'180'
p1256
ssI41
(dp1257
g2
(lp1258
(lp1259
S'TEACHER'
p1260
aS'700'
p1261
aS'740'
p1262
aa(lp1263
S'FINISH'
p1264
aS'920'
p1265
aS'1020'
p1266
aa(lp1267
S'READ+'
p1268
aS'1160'
p1269
aS'1240'
p1270
aa(lp1271
S'MAGAZINE'
p1272
aS'1560'
p1273
aS'1640'
p1274
aa(lp1275
g99
aS'1700'
p1276
aa(lp1277
S'FUTURE'
p1278
aS'1820'
p1279
aS'1840'
p1280
aa(lp1281
S'SWITCH'
p1282
aS'2000'
p1283
aS'2120'
p1284
aa(lp1285
S'READ'
p1286
aS'2220'
p1287
aS'2300'
p1288
aa(lp1289
S'BOOK+'
p1290
aS'2460'
p1291
aS'2620'
p1292
aasg20
S'2960'
p1293
sg22
S'761_570_master_small.mov'
p1294
sg24
(lp1295
g1260
ag1264
ag1268
ag1272
ag99
ag1278
ag1282
ag1286
ag1290
asg26
S'When the teacher finishes reading the magazine, he/she will read a book.'
p1296
sg28
S'440'
p1297
ssI42
(dp1298
g2
(lp1299
(lp1300
S'STUDENT'
p1301
aS'460'
p1302
aS'560'
p1303
aa(lp1304
S'FINISH'
p1305
aS'700'
p1306
aS'760'
p1307
aa(lp1308
S'READ'
p1309
aS'820'
p1310
aS'960'
p1311
aa(lp1312
S'BOOK'
p1313
aS'1200'
p1314
aS'1280'
p1315
aa(lp1316
S'NOW'
p1317
aS'1440'
p1318
aS'1500'
p1319
aa(lp1320
S'LOOK-AT+'
p1321
aS'1720'
p1322
aS'1900'
p1323
aa(lp1324
S'MOVIE'
p1325
aS'2040'
p1326
aS'2200'
p1327
aasg20
S'2500'
p1328
sg22
S'762_571_master_small.mov'
p1329
sg24
(lp1330
g1301
ag1305
ag1309
ag1313
ag1317
ag1321
ag1325
asg26
S'The student has finished reading a book and is now watching a movie.'
p1331
sg28
S'40'
p1332
ssI43
(dp1333
g2
(lp1334
(lp1335
S'fs-JOHN'
p1336
aS'380'
p1337
aS'620'
p1338
aa(lp1339
S'SHOULD'
p1340
aS'700'
p1341
aS'780'
p1342
aa(lp1343
S'NOT'
p1344
aS'880'
p1345
aS'920'
p1346
aa(lp1347
S'BUY'
p1348
aS'980'
p1349
aS'1080'
p1350
aa(lp1351
S'HOUSE'
p1352
aS'1180'
p1353
aS'1340'
p1354
aa(lp1355
g99
aS'1460'
p1356
aasg20
S'1680'
p1357
sg22
S'763_572_master_small.mov'
p1358
sg24
(lp1359
g1336
ag1340
ag1344
ag1348
ag1352
ag99
asg26
S'John should not buy a house.'
p1360
sg28
S'160'
p1361
ssI44
(dp1362
g2
(lp1363
(lp1364
S'fs-JOHN'
p1365
aS'660'
p1366
aS'760'
p1367
aa(lp1368
S'SHOULD'
p1369
aS'800'
p1370
aS'840'
p1371
aa(lp1372
S'NOT'
p1373
aS'940'
p1374
aS'960'
p1375
aa(lp1376
S'BUY'
p1377
aS'1000'
p1378
aS'1080'
p1379
aa(lp1380
S'HOUSE'
p1381
aS'1160'
p1382
aS'1280'
p1383
aa(lp1384
S'(Y)WHY'
p1385
aS'1380'
p1386
aS'1560'
p1387
aa(lp1388
g99
aS'1700'
p1389
aasg20
S'1880'
p1390
sg22
S'764_573_master_small.mov'
p1391
sg24
(lp1392
g1365
ag1369
ag1373
ag1377
ag1381
ag1385
ag99
asg26
S"Why shouldn't John buy a house?"
p1393
sg28
S'360'
p1394
ss.