(dp0
I0
(dp1
S'Annotated'
p2
(lp3
(lp4
S'5so, all set'
p5
aS'80'
p6
aS'500'
p7
aa(lp8
S'UNDERSTAND'
p9
aS'620'
p10
aS'780'
p11
aa(lp12
S'5so, all set'
p13
aS'1040'
p14
aS'1120'
p15
aa(lp16
S'UNDERSTAND'
p17
aS'1200'
p18
aS'1320'
p19
aa(lp20
S'CLEAR'
p21
aS'1560'
p22
aS'2140'
p23
aasS'EndFrame'
p24
S'2840'
p25
sS'Video'
p26
S'_974_small_0.mov'
p27
sS'Words'
p28
(lp29
g5
ag9
ag13
ag17
ag21
asS'English'
p30
S'Do you understand? Am I clear?'
p31
sS'StartFrame'
p32
S'0'
p33
ssI1
(dp34
g2
(lp35
(lp36
S'YES'
p37
aS'660'
p38
aS'800'
p39
aa(lp40
S'BETTER'
p41
aS'940'
p42
aS'1020'
p43
aa(lp44
S'SUPPOSE'
p45
aS'1120'
p46
aS'1160'
p47
aa(lp48
S'IX-1p'
p49
aS'1240'
p50
aS'1280'
p51
aa(lp52
S'STAND+'
p53
aS'1340'
p54
aS'1460'
p55
aa(lp56
S'BETTER'
p57
aS'1560'
p58
aS'1700'
p59
aa(lp60
S'MORE'
p61
aS'2080'
p62
aS'2140'
p63
aa(lp64
S'CLEAR'
p65
aS'2200'
p66
aS'2420'
p67
aa(lp68
S'BUT'
p69
aS'2480'
p70
aS'2540'
p71
aa(lp72
S"5doesn't matter"
p73
aS'2560'
p74
aS'2620'
p75
aasg24
S'3020'
p76
sg26
S'_975_small_0.mov'
p77
sg28
(lp78
g37
ag41
ag45
ag49
ag53
ag57
ag61
ag65
ag69
ag73
asg30
S"Yes, it will be better if I stand up so it's more clear but, (whatever)."
p79
sg32
S'597'
p80
ssI2
(dp81
g2
(lp82
(lp83
S'IX-3p:i'
p84
aS'180'
p85
aS'180'
p86
aa(lp87
S'fs-JOHN'
p88
aS'220'
p89
aS'380'
p90
aa(lp91
S'READ++'
p92
aS'420'
p93
aS'800'
p94
aa(lp95
S'FINISH'
p96
aS'840'
p97
aS'1020'
p98
aa(lp99
S'IX-3p:i'
p100
aS'1080'
p101
aS'1080'
p102
aasg24
S'1240'
p103
sg26
S'_976_small_0.mov'
p104
sg28
(lp105
g84
ag88
ag92
ag96
ag100
asg30
S'John finished reading.'
p106
sg32
g33
ssI3
(dp107
g2
(lp108
(lp109
S'IX-3p:i'
p110
aS'140'
p111
aS'140'
p112
aa(lp113
S'fs-JOHN'
p114
aS'200'
p115
aS'340'
p116
aa(lp117
S'READ+'
p118
aS'360'
p119
aS'580'
p120
aa(lp121
S'BOOK'
p122
aS'660'
p123
aS'700'
p124
aa(lp125
S'WHEN'
p126
aS'740'
p127
aS'940'
p128
aa(lp129
S'IX-3p:i'
p130
aS'1080'
p131
aS'1080'
p132
aasg24
S'1700'
p133
sg26
S'_977_small_0.mov'
p134
sg28
(lp135
g110
ag114
ag118
ag122
ag126
ag130
asg30
S'Did John read the book?  When?'
p136
sg32
g33
ssI4
(dp137
g2
(lp138
(lp139
S'IX-3p:i'
p140
aS'460'
p141
aS'460'
p142
aa(lp143
S'fs-JOHN'
p144
aS'520'
p145
aS'660'
p146
aa(lp147
S'READ+'
p148
aS'680'
p149
aS'920'
p150
aa(lp151
S'NOT-YET'
p152
aS'1080'
p153
aS'1180'
p154
aasg24
S'1884'
p155
sg26
S'_978_small_0.mov'
p156
sg28
(lp157
g140
ag144
ag148
ag152
asg30
S"(Hah!) John hasn't read (it) yet."
p158
sg32
S'262'
p159
ssI5
(dp160
g2
(lp161
(lp162
S'IX-3p:i'
p163
aS'200'
p164
aS'200'
p165
aa(lp166
S'fs-JOHN'
p167
aS'240'
p168
aS'400'
p169
aa(lp170
S'READ+'
p171
aS'420'
p172
aS'720'
p173
aa(lp174
S'IX-3p:i'
p175
aS'780'
p176
aS'780'
p177
aa(lp178
S'FINISH'
p179
aS'840'
p180
aS'900'
p181
aa(lp182
S'(L)FUTURE'
p183
aS'1080'
p184
aS'1180'
p185
aa(lp186
S'SOON++'
p187
aS'1220'
p188
aS'1420'
p189
aa(lp190
S'IX-3p:i'
p191
aS'1500'
p192
aS'1500'
p193
aasg24
S'1747'
p194
sg26
S'_980_small_0.mov'
p195
sg28
(lp196
g163
ag167
ag171
ag175
ag179
ag183
ag187
ag191
asg30
S'Will John finish reading soon?'
p197
sg32
g33
ssI6
(dp198
g2
(lp199
(lp200
S'fs-JOHN'
p201
aS'320'
p202
aS'460'
p203
aa(lp204
S'BOOK'
p205
aS'520'
p206
aS'620'
p207
aa(lp208
S'READ+'
p209
aS'660'
p210
aS'900'
p211
aa(lp212
S'FINISH'
p213
aS'980'
p214
aS'1040'
p215
aa(lp216
S'IX-3p:i'
p217
aS'1220'
p218
aS'1220'
p219
aasg24
S'1431'
p220
sg26
S'_982_small_0.mov'
p221
sg28
(lp222
g201
ag205
ag209
ag213
ag217
asg30
S'As for John reading the book, he already did.'
p223
sg32
S'159'
p224
ssI7
(dp225
g2
(lp226
(lp227
S'IX-3p:i'
p228
aS'300'
p229
aS'300'
p230
aa(lp231
S'SEE:i'
p232
aS'420'
p233
aS'540'
p234
aa(lp235
S'punct'
p236
aS'600'
p237
aa(lp238
S'BOOK'
p239
aS'740'
p240
aS'780'
p241
aa(lp242
S'IX-loc:i'
p243
aS'880'
p244
aS'880'
p245
aa(lp246
S'fs-JOHN'
p247
aS'920'
p248
aS'1060'
p249
aa(lp250
S'FINISH'
p251
aS'1080'
p252
aS'1120'
p253
aa(lp254
S'READ+'
p255
aS'1140'
p256
aS'1380'
p257
aa(lp258
S'YESTERDAY'
p259
aS'1520'
p260
aS'1560'
p261
aa(lp262
g236
aS'1640'
p263
aasg24
S'1889'
p264
sg26
S'_983_small_0.mov'
p265
sg28
(lp266
g228
ag232
ag236
ag239
ag243
ag247
ag251
ag255
ag259
ag236
asg30
S'You see the book over there, John finished reading it yesterday.'
p267
sg32
g33
ssI8
(dp268
g2
(lp269
(lp270
S'IX-3p:i'
p271
aS'160'
p272
aS'160'
p273
aa(lp274
S'fs-JOHN'
p275
aS'200'
p276
aS'320'
p277
aa(lp278
S'READ+'
p279
aS'360'
p280
aS'600'
p281
aa(lp282
S'BOOK'
p283
aS'660'
p284
aS'680'
p285
aa(lp286
S'IX-3p:i'
p287
aS'840'
p288
aS'840'
p289
aa(lp290
S'SAY'
p291
aS'940'
p292
aS'960'
p293
aa(lp294
S'IX-3p:j'
p295
aS'1080'
p296
aS'1080'
p297
aa(lp298
S'(1h)WHAT'
p299
aS'1120'
p300
aS'1340'
p301
aa(lp302
S'ABOUT'
p303
aS'1380'
p304
aS'1640'
p305
aa(lp306
S'IX-3p:i'
p307
aS'1660'
p308
aS'1660'
p309
aasg24
S'1982'
p310
sg26
S'_984_small_0.mov'
p311
sg28
(lp312
g271
ag275
ag279
ag283
ag287
ag291
ag295
ag299
ag303
ag307
asg30
S'John was reading that book, what did he say it is about?'
p313
sg32
S'37'
p314
ssI9
(dp315
g2
(lp316
(lp317
S'IX-3p:i'
p318
aS'260'
p319
aS'260'
p320
aa(lp321
S'STUDENT'
p322
aS'300'
p323
aS'500'
p324
aa(lp325
S'MOTHERwg'
p326
aS'580'
p327
aS'640'
p328
aa(lp329
S'CAR'
p330
aS'720'
p331
aS'800'
p332
aa(lp333
S'BUY'
p334
aS'860'
p335
aS'1040'
p336
aa(lp337
S'FINISH'
p338
aS'1100'
p339
aS'1280'
p340
aa(lp341
S'IX-3p:i'
p342
aS'1320'
p343
aS'1320'
p344
aasg24
S'1582'
p345
sg26
S'_986_small_0.mov'
p346
sg28
(lp347
g318
ag322
ag326
ag330
ag334
ag338
ag342
asg30
S"Did the student's mother buy a car already?"
p348
sg32
S'37'
p349
ssI10
(dp350
g2
(lp351
(lp352
S'STUDENT'
p353
aS'220'
p354
aS'300'
p355
aa(lp356
S'IX-loc:i'
p357
aS'560'
p358
aS'560'
p359
aa(lp360
g236
aS'860'
p361
aa(lp362
S'MOTHER'
p363
aS'960'
p364
aS'980'
p365
aa(lp366
S'FUTURE'
p367
aS'1000'
p368
aS'1020'
p369
aa(lp370
S'BUY'
p371
aS'1160'
p372
aS'1300'
p373
aa(lp374
S'CAR'
p375
aS'1340'
p376
aS'1660'
p377
aasg24
S'2092'
p378
sg26
S'_987_small_0.mov'
p379
sg28
(lp380
g353
ag357
ag236
ag363
ag367
ag371
ag375
asg30
S"The student's mother will buy him a car, I'm sure."
p381
sg32
S'59'
p382
ssI11
(dp383
g2
(lp384
(lp385
S'IX-3p:i'
p386
aS'360'
p387
aS'360'
p388
aa(lp389
S'STUDENT'
p390
aS'440'
p391
aS'480'
p392
aa(lp393
S'POSS-3p:i'
p394
aS'560'
p395
aS'560'
p396
aa(lp397
S'FATHERwg'
p398
aS'680'
p399
aS'800'
p400
aa(lp401
S'HOUSE'
p402
aS'900'
p403
aS'980'
p404
aa(lp405
S'WHICH'
p406
aS'1080'
p407
aS'1320'
p408
aa(lp409
S'BUY'
p410
aS'1380'
p411
aS'1480'
p412
aa(lp413
S'IX-loc-arc'
p414
aS'1540'
p415
aS'1920'
p416
aasg24
S'2160'
p417
sg26
S'_988_small_0.mov'
p418
sg28
(lp419
g386
ag390
ag394
ag398
ag402
ag406
ag410
ag414
asg30
S"Which house did the student's father buy?"
p420
sg32
S'59'
p421
ssI12
(dp422
g2
(lp423
(lp424
S'IX-3p:i'
p425
aS'300'
p426
aS'300'
p427
aa(lp428
S'MOTHERwg'
p429
aS'400'
p430
aS'440'
p431
aa(lp432
S'BOOK'
p433
aS'560'
p434
aS'620'
p435
aa(lp436
S'READ++'
p437
aS'700'
p438
aS'1160'
p439
aasg24
S'1392'
p440
sg26
S'_989_small_0.mov'
p441
sg28
(lp442
g425
ag429
ag433
ag437
asg30
S'Mother is reading the book.'
p443
sg32
S'116'
p444
ssI13
(dp445
g2
(lp446
(lp447
S'IX-3p:i'
p448
aS'400'
p449
aS'400'
p450
aa(lp451
S'MOTHERwg'
p452
aS'540'
p453
aS'640'
p454
aa(lp455
S'PLAN'
p456
aS'700'
p457
aS'880'
p458
aa(lp459
S'READ++'
p460
aS'940'
p461
aS'1340'
p462
aa(lp463
S'BOOK'
p464
aS'1420'
p465
aS'1560'
p466
aa(lp467
S'LATERwg'
p468
aS'1600'
p469
aS'1860'
p470
aasg24
S'2147'
p471
sg26
S'_990_small_0.mov'
p472
sg28
(lp473
g448
ag452
ag456
ag460
ag464
ag468
asg30
S'Mother is planning to read the book later.'
p474
sg32
S'114'
p475
ssI14
(dp476
g2
(lp477
(lp478
S'IX-3p:i'
p479
aS'460'
p480
aS'460'
p481
aa(lp482
S'MOTHERwg'
p483
aS'600'
p484
aS'620'
p485
aa(lp486
S'BOOK'
p487
aS'760'
p488
aS'820'
p489
aa(lp490
S'(L)FUTURE'
p491
aS'880'
p492
aS'920'
p493
aa(lp494
S'READ+'
p495
aS'960'
p496
aS'1160'
p497
aa(lp498
S'LATERwg'
p499
aS'1220'
p500
aS'1400'
p501
aasg24
S'1688'
p502
sg26
S'_991_small_0.mov'
p503
sg28
(lp504
g479
ag483
ag487
ag491
ag495
ag499
asg30
S'Will mother read a book later?'
p505
sg32
S'174'
p506
ssI15
(dp507
g2
(lp508
(lp509
S'IX-3p:i'
p510
aS'400'
p511
aS'400'
p512
aa(lp513
S'MOTHER+'
p514
aS'460'
p515
aS'700'
p516
aa(lp517
S'READ+'
p518
aS'820'
p519
aS'1040'
p520
aa(lp521
S'BOOK'
p522
aS'1140'
p523
aS'1280'
p524
aa(lp525
S'IX-3p:i'
p526
aS'1380'
p527
aS'1380'
p528
aasg24
S'1594'
p529
sg26
S'_992_small_0.mov'
p530
sg28
(lp531
g510
ag514
ag518
ag522
ag526
asg30
S'Is mother reading the book?'
p532
sg32
S'216'
p533
ssI16
(dp534
g2
(lp535
(lp536
S'IX-3p:i'
p537
aS'440'
p538
aS'440'
p539
aa(lp540
S'MOTHER'
p541
aS'520'
p542
aS'600'
p543
aa(lp544
S'IX-3p:i'
p545
aS'820'
p546
aS'820'
p547
aa(lp548
S'CAR'
p549
aS'900'
p550
aS'1020'
p551
aa(lp552
S'BUY'
p553
aS'1080'
p554
aS'1300'
p555
aa(lp556
S'IX-3p:j'
p557
aS'1440'
p558
aS'1440'
p559
aasg24
S'1665'
p560
sg26
S'_993_small_0.mov'
p561
sg28
(lp562
g537
ag541
ag545
ag549
ag553
ag557
asg30
S'Mother bought a car.'
p563
sg32
S'97'
p564
ssI17
(dp565
g2
(lp566
(lp567
S'IX-3p:i'
p568
aS'360'
p569
aS'360'
p570
aa(lp571
S'FATHER'
p572
aS'460'
p573
aS'520'
p574
aa(lp575
S'IX-loc:i'
p576
aS'760'
p577
aS'760'
p578
aa(lp579
g236
aS'1200'
p580
aa(lp581
S'BUY'
p582
aS'1360'
p583
aS'1480'
p584
aa(lp585
S'BOOK'
p586
aS'1640'
p587
aS'1760'
p588
aa(lp589
S'IX-3p:i'
p590
aS'1940'
p591
aS'1940'
p592
aasg24
S'2257'
p593
sg26
S'_994_small_0.mov'
p594
sg28
(lp595
g568
ag572
ag576
ag236
ag582
ag586
ag590
asg30
S'Father bought a book.'
p596
sg32
S'178'
p597
ssI18
(dp598
g2
(lp599
(lp600
S'IX-3p:i'
p601
aS'440'
p602
aS'440'
p603
aa(lp604
S'MOTHERwg'
p605
aS'580'
p606
aS'620'
p607
aa(lp608
S'IX-3p:i'
p609
aS'720'
p610
aS'720'
p611
aa(lp612
S'CAR'
p613
aS'780'
p614
aS'860'
p615
aa(lp616
S'BUY'
p617
aS'900'
p618
aS'1040'
p619
aa(lp620
S'SHOULD'
p621
aS'1120'
p622
aS'1200'
p623
aa(lp624
S'NOT'
p625
aS'1320'
p626
aS'1480'
p627
aasg24
S'1831'
p628
sg26
S'_996_small_0.mov'
p629
sg28
(lp630
g601
ag605
ag609
ag613
ag617
ag621
ag625
asg30
S'Mother should not buy that car.'
p631
sg32
S'203'
p632
ssI19
(dp633
g2
(lp634
(lp635
S'IX-3p:i'
p636
aS'520'
p637
aS'520'
p638
aa(lp639
S'MOTHERwg'
p640
aS'760'
p641
aS'880'
p642
aa(lp643
S'BUY'
p644
aS'980'
p645
aS'1100'
p646
aa(lp647
S'CAR'
p648
aS'1140'
p649
aS'1300'
p650
aa(lp651
S'REALLY'
p652
aS'1400'
p653
aS'1460'
p654
aa(lp655
S'(25)WHY^part:indef'
p656
aS'1540'
p657
aS'1740'
p658
aasg24
S'2157'
p659
sg26
S'_997_small_0.mov'
p660
sg28
(lp661
g636
ag640
ag644
ag648
ag652
ag656
asg30
S'Why did mother buy a car?'
p662
sg32
S'138'
p663
ssI20
(dp664
g2
(lp665
(lp666
S'IX-3p:i'
p667
aS'460'
p668
aS'460'
p669
aa(lp670
S'fs-JOHN'
p671
aS'520'
p672
aS'820'
p673
aa(lp674
S'CAR'
p675
aS'880'
p676
aS'1000'
p677
aa(lp678
S'IX-1p'
p679
aS'1040'
p680
aS'1040'
p681
aa(lp682
S'NEVER'
p683
aS'1100'
p684
aS'1140'
p685
aa(lp686
S'SEE:neu'
p687
aS'1300'
p688
aS'1400'
p689
aa(lp690
S'IX-3p:i'
p691
aS'1620'
p692
aS'1620'
p693
aa(lp694
S'(1h)part:indef'
p695
aS'1680'
p696
aS'1760'
p697
aasg24
S'1894'
p698
sg26
S'_998_small_0.mov'
p699
sg28
(lp700
g667
ag671
ag675
ag679
ag683
ag687
ag691
ag695
asg30
S"I have never seen John's car."
p701
sg32
S'192'
p702
ssI21
(dp703
g2
(lp704
(lp705
S'IX-3p:i'
p706
aS'300'
p707
aS'300'
p708
aa(lp709
S'fs-JOHN'
p710
aS'340'
p711
aS'500'
p712
aa(lp713
S'CAR'
p714
aS'520'
p715
aS'660'
p716
aa(lp717
S'IX-1p'
p718
aS'740'
p719
aS'740'
p720
aa(lp721
S'NEVER'
p722
aS'780'
p723
aS'820'
p724
aa(lp725
S'SEE:i'
p726
aS'920'
p727
aS'1040'
p728
aa(lp729
g236
aS'1120'
p730
aasg24
S'1447'
p731
sg26
S'_999_small_0.mov'
p732
sg28
(lp733
g706
ag710
ag714
ag718
ag722
ag726
ag236
asg30
S"I have never seen John's car."
p734
sg32
S'107'
p735
ss.