(dp0
I0
(dp1
S'Annotated'
p2
(lp3
(lp4
S'ONE'
p5
aS'280'
p6
aS'760'
p7
aa(lp8
S'#OF'
p9
aS'880'
p10
aS'960'
p11
aa(lp12
S'POSS-1p'
p13
aS'1040'
p14
aS'1160'
p15
aa(lp16
S'WORSE'
p17
aS'1360'
p18
aS'1680'
p19
aa(lp20
S'EXPERIENCE'
p21
aS'1840'
p22
aS'2480'
p23
aasS'EndFrame'
p24
S'2480'
p25
sS'Video'
p26
NsS'Words'
p27
(lp28
g5
ag9
ag13
ag17
ag21
asS'English'
p29
S'One of my worst experience.'
p30
sS'StartFrame'
p31
S'0'
p32
ssI1
(dp33
g2
(lp34
(lp35
S'REALLY'
p36
aS'2680'
p37
aS'2840'
p38
aa(lp39
S'PAST'
p40
aS'3000'
p41
aS'3120'
p42
aa(lp43
S'FOUR'
p44
aS'3240'
p45
aS'3360'
p46
aa(lp47
S'YEAR'
p48
aS'3480'
p49
aS'3600'
p50
aa(lp51
S'PAST'
p52
aS'3720'
p53
aS'4000'
p54
aa(lp55
S'IN'
p56
aS'4080'
p57
aS'4160'
p58
aa(lp59
S'fs-CSUN'
p60
aS'4280'
p61
aS'5000'
p62
aa(lp63
S'punct'
p64
aS'5480'
p65
aasg24
S'5480'
p66
sg26
Nsg27
(lp67
g36
ag40
ag44
ag48
ag52
ag56
ag60
ag64
asg29
S'Four years ago at CSUN...'
p68
sg31
S'2520'
p69
ssI2
(dp70
g2
(lp71
(lp72
S'REALLY'
p73
aS'5600'
p74
aS'5800'
p75
aa(lp76
g64
aS'6040'
p77
aa(lp78
S'LIVE'
p79
aS'7440'
p80
aS'7960'
p81
aa(lp82
S'IX-1p'
p83
aS'8040'
p84
aS'8240'
p85
aasg24
S'8800'
p86
sg26
Nsg27
(lp87
g73
ag64
ag79
ag83
asg29
S'One girl lived right next to me.'
p88
sg31
S'5520'
p89
ssI3
(dp90
g2
(lp91
(lp92
S'IX-3p:i'
p93
aS'8880'
p94
aS'9040'
p95
aa(lp96
S'TAKE'
p97
aS'9240'
p98
aS'9480'
p99
aa(lp100
S'TOGETHER'
p101
aS'9680'
p102
aS'10200'
p103
aa(lp104
S'PARTY'
p105
aS'10320'
p106
aS'11160'
p107
aa(lp108
g64
aS'11200'
p109
aasg24
S'11200'
p110
sg26
Nsg27
(lp111
g93
ag97
ag101
ag105
ag64
asg29
S'She had a party.'
p112
sg31
S'8840'
p113
ssI4
(dp114
g2
(lp115
(lp116
S'FOR'
p117
aS'11360'
p118
aS'11480'
p119
aa(lp120
S'IX-1p-arc'
p121
aS'11600'
p122
aS'11720'
p123
aa(lp124
S'COLLEGE'
p125
aS'11880'
p126
aS'12560'
p127
aa(lp128
S'STUDENT'
p129
aS'12680'
p130
aS'13040'
p131
aa(lp132
S'PAST'
p133
aS'13320'
p134
aS'13720'
p135
aa(lp136
S'IX-1p'
p137
aS'13840'
p138
aS'13880'
p139
aa(lp140
S'TOGETHER'
p141
aS'14000'
p142
aS'14680'
p143
aasg24
S'14680'
p144
sg26
Nsg27
(lp145
g117
ag121
ag125
ag129
ag133
ag137
ag141
asg29
S'It was for college students to get together.'
p146
sg31
S'11240'
p147
ssI5
(dp148
g2
(lp149
(lp150
S'REALLY'
p151
aS'14840'
p152
aS'14920'
p153
aa(lp154
S'GOOD'
p155
aS'15000'
p156
aS'15200'
p157
aa(lp158
S'TIME'
p159
aS'15320'
p160
aS'15760'
p161
aa(lp162
S'OVER-NIGHT'
p163
aS'15960'
p164
aS'16720'
p165
aa(lp166
S'IX-1p'
p167
aS'16840'
p168
aS'17080'
p169
aa(lp170
S'ENJOY'
p171
aS'17200'
p172
aS'17680'
p173
aa(lp174
S'etc'
p175
aS'17800'
p176
aS'18160'
p177
aasg24
S'18160'
p178
sg26
Nsg27
(lp179
g151
ag155
ag159
ag163
ag167
ag171
ag175
asg29
S'I enjoyed.  It was good time all night.'
p180
sg31
S'14720'
p181
ssI6
(dp182
g2
(lp183
(lp184
S'IX-1p'
p185
aS'18320'
p186
aS'18520'
p187
aa(lp188
S'DECIDE'
p189
aS'18720'
p190
aS'18760'
p191
aa(lp192
S'fs-TO'
p193
aS'19120'
p194
aS'19360'
p195
aa(lp196
S'GO'
p197
aS'19680'
p198
aS'20040'
p199
aa(lp200
S'BUY'
p201
aS'20240'
p202
aS'20440'
p203
aa(lp204
S'CIGARETTE'
p205
aS'20640'
p206
aS'21240'
p207
aasg24
S'21240'
p208
sg26
Nsg27
(lp209
g185
ag189
ag193
ag197
ag201
ag205
asg29
S'I decided to go to buy cigarette.'
p210
sg31
S'18200'
p211
ssI7
(dp212
g2
(lp213
(lp214
S'AT'
p215
aS'21320'
p216
aS'21440'
p217
aa(lp218
S'RIGHT-THERE'
p219
aS'21640'
p220
aS'21960'
p221
aa(lp222
S'fs-MARKET'
p223
aS'22120'
p224
aS'23440'
p225
aa(lp226
S'IX-loc:i'
p227
aS'23640'
p228
aS'24080'
p229
aasg24
S'24080'
p230
sg26
Nsg27
(lp231
g215
ag219
ag223
ag227
asg29
S'Nearby Market'
p232
sg31
S'21280'
p233
ssI8
(dp234
g2
(lp235
(lp236
S'SAY'
p237
aS'24280'
p238
aS'24360'
p239
aa(lp240
S'ONLY'
p241
aS'24440'
p242
aS'24680'
p243
aa(lp244
S'FIVE'
p245
aS'24760'
p246
aS'25000'
p247
aa(lp248
S'FIVE-MINUTE'
p249
aS'25080'
p250
aS'25960'
p251
aa(lp252
S'WALK'
p253
aS'26120'
p254
aS'26440'
p255
aa(lp256
S'NOTHING'
p257
aS'26560'
p258
aS'26880'
p259
aasg24
S'26920'
p260
sg26
Nsg27
(lp261
g237
ag241
ag245
ag249
ag253
ag257
asg29
S'I can say its only five minutes walk which is nothing.'
p262
sg31
S'24120'
p263
ssI9
(dp264
g2
(lp265
(lp266
S'IX-1p'
p267
aS'27040'
p268
aS'27080'
p269
aa(lp270
S'CL:1person walking'
p271
aS'27360'
p272
aS'28080'
p273
aa(lp274
S'IX-1p'
p275
aS'28280'
p276
aS'28440'
p277
aa(lp278
S'part:indef'
p279
aS'28520'
p280
aS'28640'
p281
aa(lp282
S'WALK'
p283
aS'28760'
p284
aS'29560'
p285
aa(lp286
S'IX-1p'
p287
aS'29800'
p288
aS'29960'
p289
aasg24
S'30800'
p290
sg26
Nsg27
(lp291
g267
ag271
ag275
ag279
ag283
ag287
asg29
S'I walked.'
p292
sg31
S'26960'
p293
ssI10
(dp294
g2
(lp295
(lp296
S'REALLY'
p297
aS'30960'
p298
aS'31040'
p299
aa(lp300
S'IX-1p'
p301
aS'31120'
p302
aS'31200'
p303
aa(lp304
S'BUY'
p305
aS'31320'
p306
aS'31560'
p307
aa(lp308
S'CIGARETTE'
p309
aS'31720'
p310
aS'32200'
p311
aa(lp312
S'FINISH'
p313
aS'32280'
p314
aS'32440'
p315
aa(lp316
S'CL:5putting the object away'
p317
aS'32800'
p318
aS'33280'
p319
aa(lp320
S'CL:1person walking across'
p321
aS'33680'
p322
aS'34160'
p323
aasg24
S'34160'
p324
sg26
Nsg27
(lp325
g297
ag301
ag305
ag309
ag313
ag317
ag321
asg29
S'I bought cigarette and walked back.'
p326
sg31
S'30840'
p327
ssI11
(dp328
g2
(lp329
(lp330
S'IX-1p'
p331
aS'34440'
p332
aS'34520'
p333
aa(lp334
S'part:indef'
p335
aS'34640'
p336
aS'34960'
p337
aa(lp338
S'REALLY'
p339
aS'35120'
p340
aS'35240'
p341
aa(lp342
S'ADMIT'
p343
aS'35440'
p344
aS'35720'
p345
aa(lp346
S'IX-1p'
p347
aS'35880'
p348
aS'36560'
p349
aa(lp350
S'REALLY'
p351
aS'37080'
p352
aS'37160'
p353
aa(lp354
S'MUST'
p355
aS'37280'
p356
aS'37480'
p357
aa(lp358
S'BATHROOM'
p359
aS'37600'
p360
aS'37840'
p361
aa(lp362
S'REALLY'
p363
aS'37920'
p364
aS'38040'
p365
aa(lp366
S'BAD'
p367
aS'38200'
p368
aS'38600'
p369
aasg24
S'38600'
p370
sg26
Nsg27
(lp371
g331
ag335
ag339
ag343
ag347
ag351
ag355
ag359
ag363
ag367
asg29
S'I have to admit, I really need to go bathroom bad.'
p372
sg31
S'34200'
p373
ssI12
(dp374
g2
(lp375
(lp376
S'IX-1p'
p377
aS'38680'
p378
aS'38760'
p379
aa(lp380
S'CAN^NOT'
p381
aS'38920'
p382
aS'39000'
p383
aa(lp384
S'HOLD'
p385
aS'39080'
p386
aS'39360'
p387
aa(lp388
S'POSS-1p'
p389
aS'39520'
p390
aS'39600'
p391
aa(lp392
S'fs-BLADDER'
p393
aS'39840'
p394
aS'40920'
p395
aa(lp396
S'#SO'
p397
aS'41040'
p398
aS'41120'
p399
aa(lp400
S'IX-1p'
p401
aS'41320'
p402
aS'41600'
p403
aa(lp404
S'part:indef'
p405
aS'41840'
p406
aS'42400'
p407
aasg24
S'42400'
p408
sg26
Nsg27
(lp409
g377
ag381
ag385
ag389
ag393
ag397
ag401
ag405
asg29
S"I can't hold my bladder."
p410
sg31
S'38680'
p411
ssI13
(dp412
g2
(lp413
(lp414
S'LOOK'
p415
aS'42520'
p416
aS'42840'
p417
aa(lp418
S'SEE'
p419
aS'43040'
p420
aS'43120'
p421
aa(lp422
S'#BUSH'
p423
aS'43280'
p424
aS'43800'
p425
aa(lp426
S'CL:5shape of the object'
p427
aS'44040'
p428
aS'44680'
p429
aasg24
S'44680'
p430
sg26
Nsg27
(lp431
g415
ag419
ag423
ag427
asg29
S'I saw the bush.'
p432
sg31
S'42440'
p433
ssI14
(dp434
g2
(lp435
(lp436
S'IX-1p'
p437
aS'44880'
p438
aS'45120'
p439
aa(lp440
S'LOOK'
p441
aS'45280'
p442
aS'45920'
p443
aa(lp444
S'who cares'
p445
aS'46080'
p446
aS'46640'
p447
aa(lp448
S'CL:1walking around to a place'
p449
aS'46720'
p450
aS'47680'
p451
aasg24
S'47680'
p452
sg26
Nsg27
(lp453
g437
ag441
ag445
ag449
asg29
S'I looked at it and thought so what!? I went around the bush.'
p454
sg31
S'44720'
p455
ssI15
(dp456
g2
(lp457
(lp458
S'IX-1p'
p459
aS'47840'
p460
aS'48040'
p461
aa(lp462
S'LOOK-arc'
p463
aS'48160'
p464
aS'48960'
p465
aa(lp466
S'MAKE'
p467
aS'49240'
p468
aS'49320'
p469
aa(lp470
S'SURE'
p471
aS'49440'
p472
aS'49560'
p473
aa(lp474
S'NONE'
p475
aS'49680'
p476
aS'49800'
p477
aa(lp478
S'ONE'
p479
aS'49880'
p480
aS'49960'
p481
aa(lp482
S'SEE'
p483
aS'50080'
p484
aS'50520'
p485
aa(lp486
S'IX-1p'
p487
aS'50600'
p488
aS'50800'
p489
aasg24
S'50800'
p490
sg26
Nsg27
(lp491
g459
ag463
ag467
ag471
ag475
ag479
ag483
ag487
asg29
S'I looked around to make sure nobody see me.'
p492
sg31
S'47720'
p493
ssI16
(dp494
g2
(lp495
(lp496
S'IX-1p'
p497
aS'50840'
p498
aS'50880'
p499
aa(lp500
S'LOOK'
p501
aS'51000'
p502
aS'51160'
p503
aa(lp504
S'part:indef'
p505
aS'51280'
p506
aS'51480'
p507
aa(lp508
S'FINE'
p509
aS'51600'
p510
aS'51880'
p511
aa(lp512
S'IX-1p'
p513
aS'52040'
p514
aS'52120'
p515
aa(lp516
S'GO-AHEAD'
p517
aS'52360'
p518
aS'52680'
p519
aa(lp520
S'BATHROOM'
p521
aS'52920'
p522
aS'53720'
p523
aa(lp524
S'FINISH'
p525
aS'53880'
p526
aS'54600'
p527
aasg24
S'54600'
p528
sg26
Nsg27
(lp529
g497
ag501
ag505
ag509
ag513
ag517
ag521
ag525
asg29
S'I looked around and said it should be fine and went ahead to bathroom, then I finished.'
p530
sg31
S'50840'
p531
ssI17
(dp532
g2
(lp533
(lp534
S'#THEN'
p535
aS'54720'
p536
aS'55200'
p537
aa(lp538
S'IX-1p'
p539
aS'55360'
p540
aS'55520'
p541
aa(lp542
S'CL:1walking around'
p543
aS'55640'
p544
aS'56360'
p545
aa(lp546
S'OUT'
p547
aS'56520'
p548
aS'56960'
p549
aa(lp550
S'#BUSH'
p551
aS'57040'
p552
aS'57640'
p553
aa(lp554
S'CL:5shape of the object'
p555
aS'57880'
p556
aS'58240'
p557
aa(lp558
S'CL:1person walking'
p559
aS'58360'
p560
aS'58800'
p561
aasg24
S'58800'
p562
sg26
Nsg27
(lp563
g535
ag539
ag543
ag547
ag551
ag555
ag559
asg29
S'Then I walked out of the bush.'
p564
sg31
S'54640'
p565
ssI18
(dp566
g2
(lp567
(lp568
S'IX-1p'
p569
aS'58920'
p570
aS'59040'
p571
aa(lp572
S'RELIEF'
p573
aS'59160'
p574
aS'59640'
p575
aa(lp576
S'IMPORTANT'
p577
aS'59840'
p578
aS'60000'
p579
aa(lp580
S'NONE'
p581
aS'60080'
p582
aS'60160'
p583
aa(lp584
S'ONE'
p585
aS'60240'
p586
aS'60320'
p587
aa(lp588
S'SEE'
p589
aS'60400'
p590
aS'60600'
p591
aa(lp592
S'IX-1p'
p593
aS'60720'
p594
aS'61000'
p595
aa(lp596
S'NAH'
p597
aS'61120'
p598
aS'61320'
p599
aasg24
S'61320'
p600
sg26
Nsg27
(lp601
g569
ag573
ag577
ag581
ag585
ag589
ag593
ag597
asg29
S'I was relief, its important that nobody see me.'
p602
sg31
S'58840'
p603
ssI19
(dp604
g2
(lp605
(lp606
S'IX-1p'
p607
aS'61400'
p608
aS'61640'
p609
aa(lp610
S'CL:5getting object'
p611
aS'61960'
p612
aS'62000'
p613
aa(lp614
S'CIGARETTE'
p615
aS'62200'
p616
aS'62480'
p617
aa(lp618
S'CL:THUMBusing a lighter'
p619
aS'64440'
p620
aS'65480'
p621
aasg24
S'65720'
p622
sg26
Nsg27
(lp623
g607
ag611
ag615
ag619
asg29
S'I got cigarette from my pocket and flash the lights.'
p624
sg31
S'61360'
p625
ssI20
(dp626
g2
(lp627
(lp628
S'IX-1p'
p629
aS'65880'
p630
aS'66120'
p631
aa(lp632
S'LOOK'
p633
aS'66240'
p634
aS'66520'
p635
aa(lp636
S'BACK'
p637
aS'66640'
p638
aS'67040'
p639
aa(lp640
g64
aS'67080'
p641
aasg24
S'67080'
p642
sg26
Nsg27
(lp643
g629
ag633
ag637
ag64
asg29
S'I looked back.'
p644
sg31
S'65760'
p645
ssI21
(dp646
g2
(lp647
(lp648
S'IX-1p'
p649
aS'67280'
p650
aS'67400'
p651
aa(lp652
S'LOOK'
p653
aS'67600'
p654
aS'68560'
p655
aa(lp656
S'SEE'
p657
aS'69360'
p658
aS'69600'
p659
aa(lp660
S'TWO'
p661
aS'69680'
p662
aS'69920'
p663
aa(lp664
S'COP'
p665
aS'70120'
p666
aS'70680'
p667
aa(lp668
S'BCL:Srunning'
p669
aS'70920'
p670
aS'71720'
p671
aasg24
S'71720'
p672
sg26
Nsg27
(lp673
g649
ag653
ag657
ag661
ag665
ag669
asg29
S'I was looking back and saw two cops ran.'
p674
sg31
S'67120'
p675
ssI22
(dp676
g2
(lp677
(lp678
S'FROM'
p679
aS'71880'
p680
aS'72000'
p681
aa(lp682
S'fs:LAPD'
p683
aS'72120'
p684
aS'73240'
p685
aa(lp686
g64
aS'73320'
p687
aa(lp688
S'TWO'
p689
aS'73360'
p690
aS'73720'
p691
aa(lp692
S'BCL:Sperson running'
p693
aS'73800'
p694
aS'75080'
p695
aasg24
S'75080'
p696
sg26
Nsg27
(lp697
g679
ag683
ag64
ag689
ag693
asg29
S'They are from LAPD and both of them ran.'
p698
sg31
S'71760'
p699
ssI23
(dp700
g2
(lp701
(lp702
S'REALLY'
p703
aS'77640'
p704
aS'77880'
p705
aa(lp706
S'IX-1p'
p707
aS'78040'
p708
aS'78320'
p709
aa(lp710
S'part:indef'
p711
aS'78440'
p712
aS'79240'
p713
aa(lp714
S'NOT'
p715
aS'79320'
p716
aS'79480'
p717
aa(lp718
S'SURE'
p719
aS'79600'
p720
aS'80240'
p721
aa(lp722
S'part:indef'
p723
aS'80280'
p724
aS'80400'
p725
aasg24
S'80400'
p726
sg26
Nsg27
(lp727
g703
ag707
ag711
ag715
ag719
ag723
asg29
S'Really, I wasnt sure.'
p728
sg31
S'77600'
p729
ssI24
(dp730
g2
(lp731
(lp732
S'WHY'
p733
aS'80560'
p734
aS'80680'
p735
aa(lp736
S'CHASE'
p737
aS'80800'
p738
aS'81360'
p739
aa(lp740
S'IX-1p'
p741
aS'81440'
p742
aS'81760'
p743
aasg24
S'82000'
p744
sg26
Nsg27
(lp745
g733
ag737
ag741
asg29
S'Why did they chase after me?'
p746
sg31
S'80440'
p747
ssI25
(dp748
g2
(lp749
(lp750
S'THINK'
p751
aS'82160'
p752
aS'82280'
p753
aa(lp754
S'IX-1p'
p755
aS'82400'
p756
aS'82480'
p757
aa(lp758
S'part:indef'
p759
aS'83000'
p760
aS'83080'
p761
aa(lp762
S'BECAUSE'
p763
aS'83240'
p764
aS'83360'
p765
aa(lp766
S'SEE'
p767
aS'83480'
p768
aS'83640'
p769
aa(lp770
S'IX-1p'
p771
aS'83800'
p772
aS'83960'
p773
aa(lp774
S'BATHROOM'
p775
aS'84160'
p776
aS'84280'
p777
aa(lp778
S'IN'
p779
aS'84440'
p780
aS'84520'
p781
aa(lp782
S'PUBLIC'
p783
aS'84720'
p784
aS'85080'
p785
aa(lp786
S'#OR'
p787
aS'85200'
p788
aS'85680'
p789
aa(lp790
S'IX-3p:i'
p791
aS'85840'
p792
aS'85880'
p793
aasg24
S'85880'
p794
sg26
Nsg27
(lp795
g751
ag755
ag759
ag763
ag767
ag771
ag775
ag779
ag783
ag787
ag791
asg29
S'I think it was because I went bathroom in the public or something.'
p796
sg31
S'82040'
p797
ssI26
(dp798
g2
(lp799
(lp800
S'IX-1p'
p801
aS'86000'
p802
aS'86200'
p803
aa(lp804
S'THINK'
p805
aS'86360'
p806
aS'86640'
p807
aa(lp808
S'FINE'
p809
aS'86720'
p810
aS'87120'
p811
aa(lp812
S'part:indef'
p813
aS'87280'
p814
aS'87720'
p815
aa(lp816
S'THINK'
p817
aS'87840'
p818
aS'87960'
p819
aa(lp820
S'POSITIVE'
p821
aS'88040'
p822
aS'88520'
p823
aa(lp824
S'ABOUT'
p825
aS'88600'
p826
aS'88840'
p827
aa(lp828
S'IX-3p:i'
p829
aS'88960'
p830
aS'89080'
p831
aa(lp832
S'SITUATION'
p833
aS'89200'
p834
aS'89760'
p835
aasg24
S'89760'
p836
sg26
Nsg27
(lp837
g801
ag805
ag809
ag813
ag817
ag821
ag825
ag829
ag833
asg29
S'I thought it should be fine, I have to think positive about this situation.'
p838
sg31
S'85920'
p839
ssI27
(dp840
g2
(lp841
(lp842
S'MAYBE'
p843
aS'92440'
p844
aS'92720'
p845
aa(lp846
S'IX-1p'
p847
aS'92840'
p848
aS'92880'
p849
aa(lp850
S'CAN'
p851
aS'93040'
p852
aS'93440'
p853
aa(lp854
S'JUST'
p855
aS'93760'
p856
aS'93880'
p857
aa(lp858
S'NAH'
p859
aS'93960'
p860
aS'94080'
p861
aa(lp862
S'INFORM'
p863
aS'94240'
p864
aS'94440'
p865
aa(lp866
S'SAY'
p867
aS'94560'
p868
aS'94640'
p869
aa(lp870
S'SORRY'
p871
aS'94720'
p872
aS'95080'
p873
aa(lp874
S'IX-1p'
p875
aS'95160'
p876
aS'95280'
p877
aa(lp878
S'part:indef'
p879
aS'95640'
p880
aS'95720'
p881
aa(lp882
S'BATHROOM'
p883
aS'95840'
p884
aS'95920'
p885
aa(lp886
S'IN'
p887
aS'96120'
p888
aS'96160'
p889
aa(lp890
S'PUBLIC'
p891
aS'96320'
p892
aS'96760'
p893
aa(lp894
S'part:indef'
p895
aS'97160'
p896
aS'97600'
p897
aasg24
S'97800'
p898
sg26
Nsg27
(lp899
g843
ag847
ag851
ag855
ag859
ag863
ag867
ag871
ag875
ag879
ag883
ag887
ag891
ag895
asg29
S'Maybe I can just let them know that I am sorry for bathroom in the public.'
p900
sg31
S'92280'
p901
ssI28
(dp902
g2
(lp903
(lp904
S'NOTHING'
p905
aS'97920'
p906
aS'98440'
p907
aa(lp908
S'part:indef'
p909
aS'98560'
p910
aS'99000'
p911
aa(lp912
S'IMPORTANT'
p913
aS'99040'
p914
aS'99200'
p915
aa(lp916
S'IX-1p'
p917
aS'99280'
p918
aS'99360'
p919
aa(lp920
S'INFORM'
p921
aS'99480'
p922
aS'99720'
p923
aa(lp924
S'IX-1p'
p925
aS'99800'
p926
aS'99840'
p927
aa(lp928
S'DEAF'
p929
aS'99920'
p930
aS'100320'
p931
aa(lp932
S'SAME'
p933
aS'100400'
p934
aS'100680'
p935
aasg24
S'100680'
p936
sg26
Nsg27
(lp937
g905
ag909
ag913
ag917
ag921
ag925
ag929
ag933
asg29
S'It is nothing, and most importantly, I need to inform them that I am Deaf too.'
p938
sg31
S'97840'
p939
ssI29
(dp940
g2
(lp941
(lp942
S'IMPORTANT'
p943
aS'100880'
p944
aS'101200'
p945
aa(lp946
S'THING'
p947
aS'101280'
p948
aS'101720'
p949
aa(lp950
g64
aS'101960'
p951
aa(lp952
S'part:indef'
p953
aS'102040'
p954
aS'102320'
p955
aasg24
S'102560'
p956
sg26
Nsg27
(lp957
g943
ag947
ag64
ag953
asg29
S'It is very important thing.'
p958
sg31
S'100720'
p959
ssI30
(dp960
g2
(lp961
(lp962
S'CL:2walking to person'
p963
aS'102840'
p964
aS'103680'
p965
aa(lp966
S'WHEN'
p967
aS'103920'
p968
aS'104200'
p969
aa(lp970
S'REALLY'
p971
aS'104480'
p972
aS'104560'
p973
aa(lp974
S'NEAR'
p975
aS'104760'
p976
aS'104920'
p977
aa(lp978
S'#TO'
p979
aS'105040'
p980
aS'105200'
p981
aa(lp982
S'IX-1p'
p983
aS'105320'
p984
aS'105960'
p985
aasg24
S'105960'
p986
sg26
Nsg27
(lp987
g963
ag967
ag971
ag975
ag979
ag983
asg29
S'Two cops walked toward to me.  When they came to really close to me...'
p988
sg31
S'102600'
p989
ssI31
(dp990
g2
(lp991
(lp992
S'PLAN'
p993
aS'106120'
p994
aS'106320'
p995
aa(lp996
S'TELL'
p997
aS'106400'
p998
aS'106640'
p999
aa(lp1000
S'IX-1p'
p1001
aS'106720'
p1002
aS'106880'
p1003
aa(lp1004
S'DEAF'
p1005
aS'107200'
p1006
aS'107760'
p1007
aasg24
S'107760'
p1008
sg26
Nsg27
(lp1009
g993
ag997
ag1001
ag1005
asg29
S'I plan to tell them that I am Deaf.'
p1010
sg31
S'106000'
p1011
ssI32
(dp1012
g2
(lp1013
(lp1014
S'CL:5grabbing the arm'
p1015
aS'108120'
p1016
aS'109960'
p1017
aa(lp1018
S'GRAB'
p1019
aS'110320'
p1020
aS'110760'
p1021
aasg24
S'110760'
p1022
sg26
Nsg27
(lp1023
g1015
ag1019
asg29
S'They grabbed my arm.'
p1024
sg31
S'107800'
p1025
ssI33
(dp1026
g2
(lp1027
(lp1028
S'HIT'
p1029
aS'111160'
p1030
aS'111640'
p1031
aa(lp1032
S'IX-1p'
p1033
aS'111720'
p1034
aS'111760'
p1035
aa(lp1036
S'TWICE'
p1037
aS'111880'
p1038
aS'112280'
p1039
aa(lp1040
S'WITH'
p1041
aS'112400'
p1042
aS'112680'
p1043
aa(lp1044
S'NIGHT'
p1045
aS'112840'
p1046
aS'113000'
p1047
aa(lp1048
S'fs-STICK'
p1049
aS'113160'
p1050
aS'113800'
p1051
aa(lp1052
S"CL:Spunching to person's face+"
p1053
aS'113920'
p1054
aS'115120'
p1055
aasg24
S'115120'
p1056
sg26
Nsg27
(lp1057
g1029
ag1033
ag1037
ag1041
ag1045
ag1049
ag1053
asg29
S'They hitted me twice with the night stick.'
p1058
sg31
S'110800'
p1059
ssI34
(dp1060
g2
(lp1061
(lp1062
S'IX-1p'
p1063
aS'115280'
p1064
aS'115520'
p1065
aa(lp1066
S'part:indef'
p1067
aS'115720'
p1068
aS'116720'
p1069
aa(lp1070
g64
aS'116840'
p1071
aa(lp1072
S'UNKNOWN'
p1073
aS'116960'
p1074
aS'117160'
p1075
aa(lp1076
S'IN'
p1077
aS'117280'
p1078
aS'117400'
p1079
aa(lp1080
S'SHOCK'
p1081
aS'117480'
p1082
aS'118000'
p1083
aa(lp1084
S'IX-1p'
p1085
aS'118080'
p1086
aS'118360'
p1087
aa(lp1088
S'part:indef'
p1089
aS'118480'
p1090
aS'118600'
p1091
aasg24
S'118600'
p1092
sg26
Nsg27
(lp1093
g1063
ag1067
ag64
ag1073
ag1077
ag1081
ag1085
ag1089
asg29
S'I was in shock.'
p1094
sg31
S'115160'
p1095
ssI35
(dp1096
g2
(lp1097
(lp1098
S'part:indef'
p1099
aS'118680'
p1100
aS'118840'
p1101
aa(lp1102
S'WHY'
p1103
aS'118960'
p1104
aS'119080'
p1105
aa(lp1106
S'HIT'
p1107
aS'119280'
p1108
aS'119560'
p1109
aa(lp1110
S'IX-1p'
p1111
aS'119640'
p1112
aS'119720'
p1113
aa(lp1114
S'NOT'
p1115
aS'119800'
p1116
aS'119840'
p1117
aa(lp1118
S'FEEL'
p1119
aS'119920'
p1120
aS'120120'
p1121
aa(lp1122
S'ANYTHING'
p1123
aS'120200'
p1124
aS'120720'
p1125
aasg24
S'120720'
p1126
sg26
Nsg27
(lp1127
g1099
ag1103
ag1107
ag1111
ag1115
ag1119
ag1123
asg29
S'Why did they hit me? I didnt feel anything!'
p1128
sg31
S'118680'
p1129
ssI36
(dp1130
g2
(lp1131
(lp1132
S'IX-1p'
p1133
aS'120880'
p1134
aS'121120'
p1135
aa(lp1136
S'part:indef'
p1137
aS'121240'
p1138
aS'121320'
p1139
aa(lp1140
S'FEEL'
p1141
aS'121400'
p1142
aS'121520'
p1143
aa(lp1144
S'fs-NUMB'
p1145
aS'121640'
p1146
aS'122200'
p1147
aasg24
S'122200'
p1148
sg26
Nsg27
(lp1149
g1133
ag1137
ag1141
ag1145
asg29
S'I felt numb.'
p1150
sg31
S'120760'
p1151
ssI37
(dp1152
g2
(lp1153
(lp1154
S'BECAUSE'
p1155
aS'122400'
p1156
aS'122600'
p1157
aa(lp1158
S'IX-1p'
p1159
aS'122680'
p1160
aS'122840'
p1161
aa(lp1162
S'#SO'
p1163
aS'122960'
p1164
aS'123280'
p1165
aa(lp1166
S'SHOCK'
p1167
aS'123560'
p1168
aS'124040'
p1169
aa(lp1170
S'THAT'
p1171
aS'124120'
p1172
aS'124280'
p1173
aa(lp1174
S'IX-1p'
p1175
aS'124360'
p1176
aS'124520'
p1177
aa(lp1178
S'part:indef'
p1179
aS'124640'
p1180
aS'124960'
p1181
aasg24
S'124960'
p1182
sg26
Nsg27
(lp1183
g1155
ag1159
ag1163
ag1167
ag1171
ag1175
ag1179
asg29
S'Because I was so shocked about that.'
p1184
sg31
S'122240'
p1185
ssI38
(dp1186
g2
(lp1187
(lp1188
S'WHY'
p1189
aS'125080'
p1190
aS'125200'
p1191
aa(lp1192
S'COP'
p1193
aS'125360'
p1194
aS'125520'
p1195
aa(lp1196
S'HIT'
p1197
aS'125680'
p1198
aS'126040'
p1199
aa(lp1200
S'IX-1p'
p1201
aS'126120'
p1202
aS'126240'
p1203
aa(lp1204
S'FOR'
p1205
aS'126400'
p1206
aS'126920'
p1207
aasg24
S'127840'
p1208
sg26
Nsg27
(lp1209
g1189
ag1193
ag1197
ag1201
ag1205
asg29
S'Why did cop have to hit me for?'
p1210
sg31
S'125000'
p1211
ssI39
(dp1212
g2
(lp1213
(lp1214
S'THEN'
p1215
aS'128000'
p1216
aS'128120'
p1217
aa(lp1218
S'GRAB'
p1219
aS'128440'
p1220
aS'129080'
p1221
aa(lp1222
S'ARREST'
p1223
aS'129840'
p1224
aS'130440'
p1225
aa(lp1226
S'FINE'
p1227
aS'130960'
p1228
aS'131040'
p1229
aa(lp1230
S'part:indef'
p1231
aS'131800'
p1232
aS'132040'
p1233
aasg24
S'132040'
p1234
sg26
Nsg27
(lp1235
g1215
ag1219
ag1223
ag1227
ag1231
asg29
S'Then they grabbed me and got me arrested.'
p1236
sg31
S'127880'
p1237
ssI40
(dp1238
g2
(lp1239
(lp1240
S'IX-1p'
p1241
aS'132120'
p1242
aS'132280'
p1243
aa(lp1244
S'TRY'
p1245
aS'132320'
p1246
aS'132480'
p1247
aa(lp1248
S'TELL'
p1249
aS'132560'
p1250
aS'132680'
p1251
aa(lp1252
S'COP'
p1253
aS'132880'
p1254
aS'133000'
p1255
aa(lp1256
S'IX-1p'
p1257
aS'133120'
p1258
aS'133280'
p1259
aa(lp1260
S'DEAF'
p1261
aS'133480'
p1262
aS'133840'
p1263
aa(lp1264
S'UNKNOWN'
p1265
aS'134080'
p1266
aS'134840'
p1267
aasg24
S'134840'
p1268
sg26
Nsg27
(lp1269
g1241
ag1245
ag1249
ag1253
ag1257
ag1261
ag1265
asg29
S'I tried to tell cop that I am Deaf through my mouth, "Deaf, Deaf".'
p1270
sg31
S'132080'
p1271
ssI41
(dp1272
g2
(lp1273
(lp1274
S'IX-3p:i'
p1275
aS'135000'
p1276
aS'135320'
p1277
aa(lp1278
S'IGNORE'
p1279
aS'136000'
p1280
aS'136440'
p1281
aa(lp1282
S'IX-1p'
p1283
aS'136560'
p1284
aS'136800'
p1285
aa(lp1286
S'NAH'
p1287
aS'137080'
p1288
aS'137200'
p1289
aasg24
S'137200'
p1290
sg26
Nsg27
(lp1291
g1275
ag1279
ag1283
ag1287
asg29
S'They ignored me.'
p1292
sg31
S'134880'
p1293
ssI42
(dp1294
g2
(lp1295
(lp1296
S'GRAB'
p1297
aS'137640'
p1298
aS'138040'
p1299
aa(lp1300
S'PULL'
p1301
aS'138160'
p1302
aS'139080'
p1303
aa(lp1304
S'REALLY'
p1305
aS'139280'
p1306
aS'139400'
p1307
aa(lp1308
S'IX-1p'
p1309
aS'139520'
p1310
aS'139680'
p1311
aa(lp1312
S'part:indef'
p1313
aS'139800'
p1314
aS'140600'
p1315
aasg24
S'140600'
p1316
sg26
Nsg27
(lp1317
g1297
ag1301
ag1305
ag1309
ag1313
asg29
S'Grabbed and pulled me.'
p1318
sg31
S'137280'
p1319
ssI43
(dp1320
g2
(lp1321
(lp1322
S'IX-1p'
p1323
aS'140720'
p1324
aS'140880'
p1325
aa(lp1326
S'DO'
p1327
aS'141000'
p1328
aS'141280'
p1329
aa(lp1330
S'IX-1p'
p1331
aS'141480'
p1332
aS'141560'
p1333
aa(lp1334
S'REALLY'
p1335
aS'141680'
p1336
aS'141840'
p1337
aa(lp1338
S'NONE'
p1339
aS'142000'
p1340
aS'142160'
p1341
aa(lp1342
S'fs-CLUE'
p1343
aS'142200'
p1344
aS'142680'
p1345
aa(lp1346
g64
aS'142720'
p1347
aa(lp1348
S'WHAT'
p1349
aS'142840'
p1350
aS'143120'
p1351
aa(lp1352
S'part:indef'
p1353
aS'143200'
p1354
aS'143600'
p1355
aasg24
S'143600'
p1356
sg26
Nsg27
(lp1357
g1323
ag1327
ag1331
ag1335
ag1339
ag1343
ag64
ag1349
ag1353
asg29
S'I had no clue of what is going on.'
p1358
sg31
S'140640'
p1359
ssI44
(dp1360
g2
(lp1361
(lp1362
S'REALLY'
p1363
aS'143720'
p1364
aS'143880'
p1365
aa(lp1366
S'COP'
p1367
aS'143960'
p1368
aS'144360'
p1369
aa(lp1370
S'WHY'
p1371
aS'144480'
p1372
aS'144560'
p1373
aa(lp1374
S'ARREST'
p1375
aS'144640'
p1376
aS'144920'
p1377
aa(lp1378
S'IX-1p'
p1379
aS'145000'
p1380
aS'145280'
p1381
aa(lp1382
S'part:indef'
p1383
aS'145400'
p1384
aS'145600'
p1385
aasg24
S'145600'
p1386
sg26
Nsg27
(lp1387
g1363
ag1367
ag1371
ag1375
ag1379
ag1383
asg29
S'Why would cop arrest me?'
p1388
sg31
S'143640'
p1389
ssI45
(dp1390
g2
(lp1391
(lp1392
S'IX-1p'
p1393
aS'145720'
p1394
aS'145760'
p1395
aa(lp1396
S'THINK'
p1397
aS'145880'
p1398
aS'146000'
p1399
aa(lp1400
S'MAYBE'
p1401
aS'146120'
p1402
aS'146240'
p1403
aa(lp1404
S'TRUE-BUSINESS'
p1405
aS'146320'
p1406
aS'146920'
p1407
aa(lp1408
S'BATHROOM'
p1409
aS'147080'
p1410
aS'147280'
p1411
aa(lp1412
S'IN'
p1413
aS'147360'
p1414
aS'147800'
p1415
aa(lp1416
S'PUBLIC'
p1417
aS'147880'
p1418
aS'148320'
p1419
aasg24
S'148320'
p1420
sg26
Nsg27
(lp1421
g1393
ag1397
ag1401
ag1405
ag1409
ag1413
ag1417
asg29
S'I thought it is maybe because of bathroom in the public.'
p1422
sg31
S'145640'
p1423
ssI46
(dp1424
g2
(lp1425
(lp1426
S'REALLY'
p1427
aS'148440'
p1428
aS'148840'
p1429
aa(lp1430
S'END'
p1431
aS'149040'
p1432
aS'149200'
p1433
aa(lp1434
S'#UP'
p1435
aS'149280'
p1436
aS'149440'
p1437
aa(lp1438
S'ARREST'
p1439
aS'149680'
p1440
aS'149840'
p1441
aa(lp1442
S'FOR'
p1443
aS'150000'
p1444
aS'150120'
p1445
aa(lp1446
S'THAT'
p1447
aS'150240'
p1448
aS'150520'
p1449
aa(lp1450
S'part:indef'
p1451
aS'150800'
p1452
aS'150880'
p1453
aasg24
S'150880'
p1454
sg26
Nsg27
(lp1455
g1427
ag1431
ag1435
ag1439
ag1443
ag1447
ag1451
asg29
S'Really, I ended up got arrest for that?'
p1456
sg31
S'148360'
p1457
ssI47
(dp1458
g2
(lp1459
(lp1460
S'IX-1p'
p1461
aS'150960'
p1462
aS'151080'
p1463
aa(lp1464
S'THINK'
p1465
aS'151160'
p1466
aS'151440'
p1467
aa(lp1468
S'part:indef'
p1469
aS'151600'
p1470
aS'152520'
p1471
aa(lp1472
S'#SO'
p1473
aS'152640'
p1474
aS'152800'
p1475
aa(lp1476
S'part:indef'
p1477
aS'152840'
p1478
aS'153120'
p1479
aasg24
S'153120'
p1480
sg26
Nsg27
(lp1481
g1461
ag1465
ag1469
ag1473
ag1477
asg29
S'I thought...'
p1482
sg31
S'150920'
p1483
ssI48
(dp1484
g2
(lp1485
(lp1486
S'IX-1p'
p1487
aS'153360'
p1488
aS'153560'
p1489
aa(lp1490
S'PLAN'
p1491
aS'153840'
p1492
aS'154280'
p1493
aa(lp1494
S'PUT'
p1495
aS'154440'
p1496
aS'154720'
p1497
aa(lp1498
S'IN'
p1499
aS'154800'
p1500
aS'154920'
p1501
aa(lp1502
S'POSS-1p'
p1503
aS'155000'
p1504
aS'155080'
p1505
aa(lp1506
S'IN'
p1507
aS'155160'
p1508
aS'155240'
p1509
aa(lp1510
S'#CAR'
p1511
aS'155320'
p1512
aS'155720'
p1513
aasg24
S'155800'
p1514
sg26
Nsg27
(lp1515
g1487
ag1491
ag1495
ag1499
ag1503
ag1507
ag1511
asg29
S'I plan to take myself in the car.'
p1516
sg31
S'153200'
p1517
ssI49
(dp1518
g2
(lp1519
(lp1520
S'PULL'
p1521
aS'156040'
p1522
aS'156960'
p1523
aa(lp1524
S'REALLY'
p1525
aS'157440'
p1526
aS'157560'
p1527
aa(lp1528
S'ONE'
p1529
aS'157720'
p1530
aS'157800'
p1531
aa(lp1532
S'GIRL'
p1533
aS'157920'
p1534
aS'158560'
p1535
aa(lp1536
S'READY'
p1537
aS'158800'
p1538
aS'158880'
p1539
aa(lp1540
S'GO'
p1541
aS'159000'
p1542
aS'159320'
p1543
aa(lp1544
S'HOME'
p1545
aS'159560'
p1546
aS'160040'
p1547
aasg24
S'160040'
p1548
sg26
Nsg27
(lp1549
g1521
ag1525
ag1529
ag1533
ag1537
ag1541
ag1545
asg29
S'While they pulled me, one girl was ready to go home.'
p1550
sg31
S'155840'
p1551
ssI50
(dp1552
g2
(lp1553
(lp1554
S'HOME'
p1555
aS'160120'
p1556
aS'160160'
p1557
aa(lp1558
S'LOOK'
p1559
aS'160240'
p1560
aS'160520'
p1561
aa(lp1562
S'SEE'
p1563
aS'160640'
p1564
aS'160800'
p1565
aa(lp1566
S'WHOLE'
p1567
aS'160920'
p1568
aS'161120'
p1569
aa(lp1570
S'THING'
p1571
aS'161240'
p1572
aS'161480'
p1573
aa(lp1574
S'part:indef'
p1575
aS'161600'
p1576
aS'161840'
p1577
aasg24
S'161840'
p1578
sg26
Nsg27
(lp1579
g1555
ag1559
ag1563
ag1567
ag1571
ag1575
asg29
S'Saw the whole thing.'
p1580
sg31
S'160120'
p1581
ssI51
(dp1582
g2
(lp1583
(lp1584
S'CL:1person walking up'
p1585
aS'162040'
p1586
aS'162840'
p1587
aa(lp1588
S'IN'
p1589
aS'163000'
p1590
aS'163120'
p1591
aa(lp1592
S'PARTY'
p1593
aS'163320'
p1594
aS'163720'
p1595
aa(lp1596
S'INFORM'
p1597
aS'163920'
p1598
aS'164240'
p1599
aa(lp1600
S'SOME'
p1601
aS'164360'
p1602
aS'164640'
p1603
aa(lp1604
S'POSS-1p'
p1605
aS'164720'
p1606
aS'164840'
p1607
aa(lp1608
S'FRIEND'
p1609
aS'165000'
p1610
aS'165400'
p1611
aasg24
S'165400'
p1612
sg26
Nsg27
(lp1613
g1585
ag1589
ag1593
ag1597
ag1601
ag1605
ag1609
asg29
S'She went back up to the party and informed some of my friends.'
p1614
sg31
S'161880'
p1615
ssI52
(dp1616
g2
(lp1617
(lp1618
S'THAT'
p1619
aS'165520'
p1620
aS'165720'
p1621
aa(lp1622
S'IX-1p'
p1623
aS'165840'
p1624
aS'166040'
p1625
aa(lp1626
S'ARREST'
p1627
aS'166440'
p1628
aS'166640'
p1629
aa(lp1630
S'#BY'
p1631
aS'166760'
p1632
aS'166880'
p1633
aa(lp1634
S'COP'
p1635
aS'167120'
p1636
aS'167680'
p1637
aasg24
S'167800'
p1638
sg26
Nsg27
(lp1639
g1619
ag1623
ag1627
ag1631
ag1635
asg29
S'That I got arrested by cop.'
p1640
sg31
S'165440'
p1641
ssI53
(dp1642
g2
(lp1643
(lp1644
S'SOME'
p1645
aS'168120'
p1646
aS'168280'
p1647
aa(lp1648
S'POSS-1p'
p1649
aS'168320'
p1650
aS'168400'
p1651
aa(lp1652
S'FRIEND'
p1653
aS'168480'
p1654
aS'168640'
p1655
aa(lp1656
S'IX-3p:i'
p1657
aS'168720'
p1658
aS'168840'
p1659
aa(lp1660
S'TRUE-BUSINESS'
p1661
aS'168920'
p1662
aS'169520'
p1663
aasg24
S'169600'
p1664
sg26
Nsg27
(lp1665
g1645
ag1649
ag1653
ag1657
ag1661
asg29
S'Some of my friends were surprised.'
p1666
sg31
S'167840'
p1667
ssI54
(dp1668
g2
(lp1669
(lp1670
S'part:indef'
p1671
aS'169680'
p1672
aS'169920'
p1673
aa(lp1674
S'CL:1person walking down'
p1675
aS'170080'
p1676
aS'171000'
p1677
aa(lp1678
S'OUT'
p1679
aS'171160'
p1680
aS'171600'
p1681
aasg24
S'171600'
p1682
sg26
Nsg27
(lp1683
g1671
ag1675
ag1679
asg29
S'Walked down and got out.'
p1684
sg31
S'169640'
p1685
ssI55
(dp1686
g2
(lp1687
(lp1688
S'SEE'
p1689
aS'171720'
p1690
aS'172080'
p1691
aa(lp1692
S'IX-1p'
p1693
aS'172160'
p1694
aS'172280'
p1695
aa(lp1696
S'IN'
p1697
aS'172360'
p1698
aS'172480'
p1699
aa(lp1700
S'COP'
p1701
aS'172600'
p1702
aS'172760'
p1703
aa(lp1704
S'#CAR'
p1705
aS'172800'
p1706
aS'173520'
p1707
aasg24
S'173520'
p1708
sg26
Nsg27
(lp1709
g1689
ag1693
ag1697
ag1701
ag1705
asg29
S"Saw me in cop's car."
p1710
sg31
S'171640'
p1711
ssI56
(dp1712
g2
(lp1713
(lp1714
S'SAY'
p1715
aS'173680'
p1716
aS'173760'
p1717
aa(lp1718
S'wave'
p1719
aS'173880'
p1720
aS'174680'
p1721
aa(lp1722
S'IX-1p'
p1723
aS'174840'
p1724
aS'174920'
p1725
aa(lp1726
S'KNOW'
p1727
aS'175040'
p1728
aS'175280'
p1729
aa(lp1730
S'IX-3p:i'
p1731
aS'175360'
p1732
aS'175720'
p1733
aa(lp1734
S'IX-1p'
p1735
aS'175800'
p1736
aS'175880'
p1737
aa(lp1738
S'KNOW'
p1739
aS'176000'
p1740
aS'176160'
p1741
aa(lp1742
S'ns-MIKE'
p1743
aS'176240'
p1744
aS'176680'
p1745
aa(lp1746
S'IX-3p:i'
p1747
aS'176760'
p1748
aS'177200'
p1749
aasg24
S'177200'
p1750
sg26
Nsg27
(lp1751
g1715
ag1719
ag1723
ag1727
ag1731
ag1735
ag1739
ag1743
ag1747
asg29
S'They waved and said "I know him, I know Mike!".'
p1752
sg31
S'173560'
p1753
ssI57
(dp1754
g2
(lp1755
(lp1756
S'COP'
p1757
aS'177480'
p1758
aS'177880'
p1759
aa(lp1760
S'LOOK'
p1761
aS'178160'
p1762
aS'178680'
p1763
aa(lp1764
g64
aS'179240'
p1765
aa(lp1766
S'GRAB'
p1767
aS'179360'
p1768
aS'179800'
p1769
aa(lp1770
S'GET'
p1771
aS'179960'
p1772
aS'180080'
p1773
aa(lp1774
S'IX-1p'
p1775
aS'180200'
p1776
aS'180280'
p1777
aa(lp1778
S'OUT'
p1779
aS'180400'
p1780
aS'180640'
p1781
aa(lp1782
S'#CAR'
p1783
aS'180760'
p1784
aS'181200'
p1785
aasg24
S'181200'
p1786
sg26
Nsg27
(lp1787
g1757
ag1761
ag64
ag1767
ag1771
ag1775
ag1779
ag1783
asg29
S'The cop looked and grabbed me out of the car.'
p1788
sg31
S'177240'
p1789
ssI58
(dp1790
g2
(lp1791
(lp1792
S'REALLY'
p1793
aS'181280'
p1794
aS'181440'
p1795
aa(lp1796
S'LUCKY'
p1797
aS'181520'
p1798
aS'181800'
p1799
aa(lp1800
S'CL:1person walking'
p1801
aS'181840'
p1802
aS'182120'
p1803
aa(lp1804
S'ON'
p1805
aS'182200'
p1806
aS'182320'
p1807
aa(lp1808
S'TIME'
p1809
aS'182400'
p1810
aS'182680'
p1811
aasg24
S'182680'
p1812
sg26
Nsg27
(lp1813
g1793
ag1797
ag1801
ag1805
ag1809
asg29
S'I was really lucky to have someone walked in on time.'
p1814
sg31
S'181240'
p1815
ssI59
(dp1816
g2
(lp1817
(lp1818
S'PULL'
p1819
aS'182960'
p1820
aS'184200'
p1821
aa(lp1822
g64
aS'184600'
p1823
aasg24
S'184680'
p1824
sg26
Nsg27
(lp1825
g1819
ag64
asg29
S'Pulling...'
p1826
sg31
S'182720'
p1827
ssI60
(dp1828
g2
(lp1829
(lp1830
S'#THEN'
p1831
aS'184720'
p1832
aS'184920'
p1833
aa(lp1834
S'FRIEND'
p1835
aS'185040'
p1836
aS'185240'
p1837
aa(lp1838
S'TELL'
p1839
aS'185360'
p1840
aS'185560'
p1841
aa(lp1842
S'part:indef'
p1843
aS'185640'
p1844
aS'185840'
p1845
aa(lp1846
S"WHAT'S-UP"
p1847
aS'185960'
p1848
aS'186320'
p1849
aasg24
S'186360'
p1850
sg26
Nsg27
(lp1851
g1831
ag1835
ag1839
ag1843
ag1847
asg29
S"Then a friend asked what's up."
p1852
sg31
S'184720'
p1853
ssI61
(dp1854
g2
(lp1855
(lp1856
S'COP'
p1857
aS'186520'
p1858
aS'187000'
p1859
aa(lp1860
S'LOOK'
p1861
aS'187640'
p1862
aS'187760'
p1863
aa(lp1864
S'part:indef'
p1865
aS'188000'
p1866
aS'188440'
p1867
aa(lp1868
S'IX-3p:i'
p1869
aS'188600'
p1870
aS'188880'
p1871
aa(lp1872
S'fs-DRUGS'
p1873
aS'189680'
p1874
aS'190520'
p1875
aa(lp1876
S'DRUG'
p1877
aS'191320'
p1878
aS'191920'
p1879
aa(lp1880
g64
aS'192920'
p1881
aasg24
S'192920'
p1882
sg26
Nsg27
(lp1883
g1857
ag1861
ag1865
ag1869
ag1873
ag1877
ag64
asg29
S'The cop looked at him and said, "he took drugs."'
p1884
sg31
S'186400'
p1885
ssI62
(dp1886
g2
(lp1887
(lp1888
S'FRIEND'
p1889
aS'193120'
p1890
aS'193560'
p1891
aa(lp1892
S'LOOK'
p1893
aS'193720'
p1894
aS'194240'
p1895
aa(lp1896
g64
aS'195960'
p1897
aasg24
S'195960'
p1898
sg26
Nsg27
(lp1899
g1889
ag1893
ag64
asg29
S'My friend was looking.'
p1900
sg31
S'192960'
p1901
ssI63
(dp1902
g2
(lp1903
(lp1904
S'LOOK'
p1905
aS'196000'
p1906
aS'196040'
p1907
aa(lp1908
S'KNOW'
p1909
aS'196240'
p1910
aS'196440'
p1911
aa(lp1912
S'IX-1p'
p1913
aS'196640'
p1914
aS'197240'
p1915
aa(lp1916
S'NEVER'
p1917
aS'197440'
p1918
aS'197600'
p1919
aa(lp1920
S'TAKE'
p1921
aS'197800'
p1922
aS'198000'
p1923
aa(lp1924
S'DRUG'
p1925
aS'198160'
p1926
aS'198640'
p1927
aa(lp1928
S'IX-1p'
p1929
aS'198800'
p1930
aS'199160'
p1931
aa(lp1932
S'#SO'
p1933
aS'199240'
p1934
aS'199560'
p1935
aa(lp1936
S'part:indef'
p1937
aS'199800'
p1938
aS'200480'
p1939
aasg24
S'200480'
p1940
sg26
Nsg27
(lp1941
g1905
ag1909
ag1913
ag1917
ag1921
ag1925
ag1929
ag1933
ag1937
asg29
S'He know that I would never take drug.'
p1942
sg31
S'196000'
p1943
ssI64
(dp1944
g2
(lp1945
(lp1946
S'IX-1p'
p1947
aS'202160'
p1948
aS'202320'
p1949
aa(lp1950
S'SEE'
p1951
aS'202480'
p1952
aS'202920'
p1953
aa(lp1954
S'IX-3p:i'
p1955
aS'203080'
p1956
aS'203280'
p1957
aa(lp1958
g64
aS'203600'
p1959
aasg24
S'205440'
p1960
sg26
Nsg27
(lp1961
g1947
ag1951
ag1955
ag64
asg29
S'I saw him eat something.'
p1962
sg31
S'202080'
p1963
ssI65
(dp1964
g2
(lp1965
(lp1966
S'IX-1p'
p1967
aS'205760'
p1968
aS'206040'
p1969
aa(lp1970
S'REALLY'
p1971
aS'207160'
p1972
aS'207320'
p1973
aa(lp1974
S'IX-1p'
p1975
aS'207400'
p1976
aS'207560'
p1977
aa(lp1978
S'THINK'
p1979
aS'207800'
p1980
aS'208200'
p1981
aa(lp1982
S'POSS-1p'
p1983
aS'208400'
p1984
aS'208600'
p1985
aa(lp1986
S'ns-GOD'
p1987
aS'208880'
p1988
aS'209400'
p1989
aasg24
S'209400'
p1990
sg26
Nsg27
(lp1991
g1967
ag1971
ag1975
ag1979
ag1983
ag1987
asg29
S'I thought, "Oh my god!"'
p1992
sg31
S'205520'
p1993
ssI66
(dp1994
g2
(lp1995
(lp1996
S'HOW'
p1997
aS'209600'
p1998
aS'209760'
p1999
aa(lp2000
S'CAN'
p2001
aS'209840'
p2002
aS'210000'
p2003
aa(lp2004
S'IX-3p:i'
p2005
aS'210080'
p2006
aS'210280'
p2007
aa(lp2008
S'GUESS'
p2009
aS'210400'
p2010
aS'210680'
p2011
aa(lp2012
S'THAT'
p2013
aS'210800'
p2014
aS'211040'
p2015
aasg24
S'211040'
p2016
sg26
Nsg27
(lp2017
g1997
ag2001
ag2005
ag2009
ag2013
asg29
S'How can they guess that?'
p2018
sg31
S'209440'
p2019
ssI67
(dp2020
g2
(lp2021
(lp2022
S'IX-1p'
p2023
aS'211200'
p2024
aS'211240'
p2025
aa(lp2026
S'APPEAR'
p2027
aS'211440'
p2028
aS'212360'
p2029
aa(lp2030
S'IX-1p'
p2031
aS'212600'
p2032
aS'212760'
p2033
aa(lp2034
S'CIGARETTE'
p2035
aS'212920'
p2036
aS'213160'
p2037
aa(lp2038
S'TRUE-BUSINESS'
p2039
aS'213280'
p2040
aS'213560'
p2041
aa(lp2042
S'part:indef'
p2043
aS'214760'
p2044
aS'214840'
p2045
aasg24
S'214840'
p2046
sg26
Nsg27
(lp2047
g2023
ag2027
ag2031
ag2035
ag2039
ag2043
asg29
S'I just thought of something, it might because of the cigarette that I took out and put in my mouth.'
p2048
sg31
S'211080'
p2049
ssI68
(dp2050
g2
(lp2051
(lp2052
S'IX-3p:i'
p2053
aS'214920'
p2054
aS'214960'
p2055
aa(lp2056
S'THINK'
p2057
aS'215080'
p2058
aS'215200'
p2059
aa(lp2060
S'IX-1p'
p2061
aS'215320'
p2062
aS'215520'
p2063
aa(lp2064
g64
aS'216320'
p2065
aa(lp2066
S'IX-1p'
p2067
aS'216400'
p2068
aS'216520'
p2069
aa(lp2070
S'NOT^KNOW'
p2071
aS'216840'
p2072
aS'217080'
p2073
aasg24
S'217120'
p2074
sg26
Nsg27
(lp2075
g2053
ag2057
ag2061
ag64
ag2067
ag2071
asg29
S'They probably thought I was eating something, I dont know.'
p2076
sg31
S'214880'
p2077
ssI69
(dp2078
g2
(lp2079
(lp2080
S'BUT'
p2081
aS'217280'
p2082
aS'217520'
p2083
aa(lp2084
S'IX-1p'
p2085
aS'218240'
p2086
aS'218320'
p2087
aa(lp2088
S'CONSIDER'
p2089
aS'218760'
p2090
aS'219080'
p2091
aa(lp2092
S'IX-1p'
p2093
aS'219400'
p2094
aS'219480'
p2095
aa(lp2096
S'TRY'
p2097
aS'219640'
p2098
aS'219760'
p2099
aa(lp2100
S'TELL'
p2101
aS'219960'
p2102
aS'220120'
p2103
aa(lp2104
S'POSS-1p'
p2105
aS'220200'
p2106
aS'220280'
p2107
aa(lp2108
S'FRIEND'
p2109
aS'220400'
p2110
aS'220800'
p2111
aa(lp2112
S'IX-1p'
p2113
aS'220960'
p2114
aS'221120'
p2115
aa(lp2116
g64
aS'221440'
p2117
aa(lp2118
S'CIGARETTE'
p2119
aS'221760'
p2120
aS'222320'
p2121
aasg24
S'222680'
p2122
sg26
Nsg27
(lp2123
g2081
ag2085
ag2089
ag2093
ag2097
ag2101
ag2105
ag2109
ag2113
ag64
ag2119
asg29
S'But I am thinking of how to tell my friend that I was just smoking the cigarette.'
p2124
sg31
S'217160'
p2125
ssI70
(dp2126
g2
(lp2127
(lp2128
S'POSS-1p'
p2129
aS'222800'
p2130
aS'222880'
p2131
aa(lp2132
S'FRIEND'
p2133
aS'223040'
p2134
aS'223360'
p2135
aa(lp2136
S'SAY'
p2137
aS'223480'
p2138
aS'223680'
p2139
aa(lp2140
S'FINE'
p2141
aS'223960'
p2142
aS'224280'
p2143
aa(lp2144
S'INFORM'
p2145
aS'224440'
p2146
aS'224720'
p2147
aa(lp2148
S'COP'
p2149
aS'224880'
p2150
aS'224960'
p2151
aa(lp2152
S'SAY'
p2153
aS'225080'
p2154
aS'225200'
p2155
aa(lp2156
S'KNOW'
p2157
aS'225280'
p2158
aS'225440'
p2159
aa(lp2160
S'IX-3p'
p2161
aS'225480'
p2162
aS'225800'
p2163
aa(lp2164
S'SMOKE'
p2165
aS'226040'
p2166
aS'226200'
p2167
aa(lp2168
S'CIGARETTE'
p2169
aS'226360'
p2170
aS'226680'
p2171
aasg24
S'226680'
p2172
sg26
Nsg27
(lp2173
g2129
ag2133
ag2137
ag2141
ag2145
ag2149
ag2153
ag2157
ag2161
ag2165
ag2169
asg29
S'My friend said fine and informed cop that I was smoking the cigarette.'
p2174
sg31
S'222720'
p2175
ssI71
(dp2176
g2
(lp2177
(lp2178
S'MAYBE'
p2179
aS'226800'
p2180
aS'226880'
p2181
aa(lp2182
S'IX-3p:i'
p2183
aS'226920'
p2184
aS'227080'
p2185
aa(lp2186
S'MISUNDERSTAND'
p2187
aS'227200'
p2188
aS'227560'
p2189
aa(lp2190
S'IX-3p:i'
p2191
aS'227640'
p2192
aS'227720'
p2193
aa(lp2194
S'THINK'
p2195
aS'227800'
p2196
aS'228080'
p2197
aa(lp2198
g64
aS'228880'
p2199
aasg24
S'229040'
p2200
sg26
Nsg27
(lp2201
g2179
ag2183
ag2187
ag2191
ag2195
ag64
asg29
S'Maybe you misunderstood and thought he was eating something.'
p2202
sg31
S'226720'
p2203
ssI72
(dp2204
g2
(lp2205
(lp2206
S'COP'
p2207
aS'229200'
p2208
aS'229360'
p2209
aa(lp2210
S'SAY'
p2211
aS'229440'
p2212
aS'229600'
p2213
aa(lp2214
S'part:indef'
p2215
aS'229800'
p2216
aS'229960'
p2217
aa(lp2218
S'IX-1p'
p2219
aS'230120'
p2220
aS'230160'
p2221
aa(lp2222
S'SEE'
p2223
aS'230280'
p2224
aS'230360'
p2225
aa(lp2226
S'#IT'
p2227
aS'230440'
p2228
aS'230720'
p2229
aa(lp2230
S'CLEAR'
p2231
aS'230880'
p2232
aS'231960'
p2233
aa(lp2234
g64
aS'232280'
p2235
aa(lp2236
S'UNKNOWN'
p2237
aS'232320'
p2238
aS'232480'
p2239
aasg24
S'232480'
p2240
sg26
Nsg27
(lp2241
g2207
ag2211
ag2215
ag2219
ag2223
ag2227
ag2231
ag64
ag2237
asg29
S'CThe cop said, "I saw it very clear."'
p2242
sg31
S'229080'
p2243
ssI73
(dp2244
g2
(lp2245
(lp2246
S'IX-1p'
p2247
aS'232600'
p2248
aS'232640'
p2249
aa(lp2250
S'TAKE'
p2251
aS'232720'
p2252
aS'232800'
p2253
aa(lp2254
S'IX-3p:i'
p2255
aS'232880'
p2256
aS'233000'
p2257
aa(lp2258
S'HOSPITAL'
p2259
aS'233120'
p2260
aS'233640'
p2261
aa(lp2262
S'NOW'
p2263
aS'233720'
p2264
aS'234160'
p2265
aasg24
S'234200'
p2266
sg26
Nsg27
(lp2267
g2247
ag2251
ag2255
ag2259
ag2263
asg29
S'I will take him to the hospital now.'
p2268
sg31
S'232520'
p2269
ssI74
(dp2270
g2
(lp2271
(lp2272
S'SAY'
p2273
aS'234320'
p2274
aS'234400'
p2275
aa(lp2276
S'PUMP'
p2277
aS'234560'
p2278
aS'234960'
p2279
aa(lp2280
S'fs-OUT'
p2281
aS'235080'
p2282
aS'235400'
p2283
aa(lp2284
S'POSS-3p:i'
p2285
aS'235480'
p2286
aS'235560'
p2287
aa(lp2288
S'STOMACH'
p2289
aS'235760'
p2290
aS'236240'
p2291
aa(lp2292
S'part:indef'
p2293
aS'236400'
p2294
aS'236480'
p2295
aasg24
S'236600'
p2296
sg26
Nsg27
(lp2297
g2273
ag2277
ag2281
ag2285
ag2289
ag2293
asg29
S'Will pump out of his stomach.'
p2298
sg31
S'234240'
p2299
ssI75
(dp2300
g2
(lp2301
(lp2302
S'POSS-1p'
p2303
aS'236720'
p2304
aS'236760'
p2305
aa(lp2306
S'FRIEND'
p2307
aS'236920'
p2308
aS'237320'
p2309
aa(lp2310
S'LOOK'
p2311
aS'237480'
p2312
aS'237600'
p2313
aa(lp2314
S'SAY'
p2315
aS'237680'
p2316
aS'237760'
p2317
aa(lp2318
S'part:indef'
p2319
aS'237840'
p2320
aS'238040'
p2321
aa(lp2322
S'NO+'
p2323
aS'238080'
p2324
aS'238600'
p2325
aa(lp2326
S'part:indef'
p2327
aS'238680'
p2328
aS'238880'
p2329
aasg24
S'238880'
p2330
sg26
Nsg27
(lp2331
g2303
ag2307
ag2311
ag2315
ag2319
ag2323
ag2327
asg29
S'My friend looked at him and said "no!"'
p2332
sg31
S'236640'
p2333
ssI76
(dp2334
g2
(lp2335
(lp2336
S'IX-3p:i'
p2337
aS'239000'
p2338
aS'239120'
p2339
aa(lp2340
S'FUTURE'
p2341
aS'239240'
p2342
aS'239440'
p2343
aa(lp2344
S'WASTE'
p2345
aS'239640'
p2346
aS'239960'
p2347
aa(lp2348
S'IX-3p:i'
p2349
aS'240000'
p2350
aS'240040'
p2351
aa(lp2352
S'TIME'
p2353
aS'240160'
p2354
aS'240400'
p2355
aa(lp2356
S'CL:5two people talking'
p2357
aS'240600'
p2358
aS'241240'
p2359
aasg24
S'241240'
p2360
sg26
Nsg27
(lp2361
g2337
ag2341
ag2345
ag2349
ag2353
ag2357
asg29
S'"You will waste your time!" They were talking back and forth.'
p2362
sg31
S'238920'
p2363
ssI77
(dp2364
g2
(lp2365
(lp2366
S'IX-3p:i'
p2367
aS'241320'
p2368
aS'241400'
p2369
aa(lp2370
S'SAY'
p2371
aS'241440'
p2372
aS'241480'
p2373
aa(lp2374
S'NO'
p2375
aS'241600'
p2376
aS'242120'
p2377
aa(lp2378
S'part:indef'
p2379
aS'242200'
p2380
aS'242280'
p2381
aa(lp2382
S'COP'
p2383
aS'242480'
p2384
aS'242720'
p2385
aa(lp2386
S'LOOK'
p2387
aS'242960'
p2388
aS'243800'
p2389
aasg24
S'243800'
p2390
sg26
Nsg27
(lp2391
g2367
ag2371
ag2375
ag2379
ag2383
ag2387
asg29
S'He said no.  The cop was looking at him and shaking his head.'
p2392
sg31
S'241280'
p2393
ssI78
(dp2394
g2
(lp2395
(lp2396
S'LOOK'
p2397
aS'243840'
p2398
aS'243880'
p2399
aa(lp2400
g64
aS'244280'
p2401
aa(lp2402
S'FINALLY'
p2403
aS'244560'
p2404
aS'245240'
p2405
aa(lp2406
S'ADMIT'
p2407
aS'245640'
p2408
aS'246800'
p2409
aasg24
S'246800'
p2410
sg26
Nsg27
(lp2411
g2397
ag64
ag2403
ag2407
asg29
S'He was looking and then finally, he was willing...'
p2412
sg31
S'243840'
p2413
ssI79
(dp2414
g2
(lp2415
(lp2416
S'part:indef'
p2417
aS'246920'
p2418
aS'247000'
p2419
aa(lp2420
S'DISCONNECT'
p2421
aS'247240'
p2422
aS'247600'
p2423
aa(lp2424
g64
aS'247680'
p2425
aa(lp2426
S'CL:5disconnecting the object'
p2427
aS'248000'
p2428
aS'248360'
p2429
aasg24
S'248360'
p2430
sg26
Nsg27
(lp2431
g2417
ag2421
ag64
ag2427
asg29
S'Got it off.'
p2432
sg31
S'246840'
p2433
ssI80
(dp2434
g2
(lp2435
(lp2436
S'PUSH'
p2437
aS'248760'
p2438
aS'249320'
p2439
aa(lp2440
S'IX-1p'
p2441
aS'249520'
p2442
aS'249640'
p2443
aa(lp2444
S'#TO'
p2445
aS'249760'
p2446
aS'249960'
p2447
aa(lp2448
S'GROUND'
p2449
aS'250080'
p2450
aS'250440'
p2451
aa(lp2452
S'PUSH'
p2453
aS'250640'
p2454
aS'250760'
p2455
aa(lp2456
S'CL:3person falling'
p2457
aS'250920'
p2458
aS'251720'
p2459
aasg24
S'251720'
p2460
sg26
Nsg27
(lp2461
g2437
ag2441
ag2445
ag2449
ag2453
ag2457
asg29
S'Pushed me and I fell to the ground.'
p2462
sg31
S'248400'
p2463
ssI81
(dp2464
g2
(lp2465
(lp2466
S'IX-1p'
p2467
aS'251840'
p2468
aS'252040'
p2469
aa(lp2470
S'FALL'
p2471
aS'252200'
p2472
aS'252680'
p2473
aa(lp2474
S'part:indef'
p2475
aS'252800'
p2476
aS'253200'
p2477
aa(lp2478
S'IX-1p'
p2479
aS'253320'
p2480
aS'253400'
p2481
aa(lp2482
S'STAND-UP'
p2483
aS'253560'
p2484
aS'254240'
p2485
aasg24
S'254240'
p2486
sg26
Nsg27
(lp2487
g2467
ag2471
ag2475
ag2479
ag2483
asg29
S'I fell! Then I got up.'
p2488
sg31
S'251760'
p2489
ssI82
(dp2490
g2
(lp2491
(lp2492
S'OF-COURSE'
p2493
aS'254600'
p2494
aS'254960'
p2495
aa(lp2496
S'fs-VERY'
p2497
aS'255000'
p2498
aS'255280'
p2499
aa(lp2500
S'UPSET'
p2501
aS'255400'
p2502
aS'256080'
p2503
aasg24
S'256080'
p2504
sg26
Nsg27
(lp2505
g2493
ag2497
ag2501
asg29
S'Of course, I was very upset.'
p2506
sg31
S'254280'
p2507
ssI83
(dp2508
g2
(lp2509
(lp2510
S'FOR'
p2511
aS'256360'
p2512
aS'256440'
p2513
aa(lp2514
S'CONFUSE'
p2515
aS'256640'
p2516
aS'257520'
p2517
aa(lp2518
S'REALLY'
p2519
aS'257920'
p2520
aS'258080'
p2521
aa(lp2522
S'IX-1p'
p2523
aS'258240'
p2524
aS'258320'
p2525
aa(lp2526
S'FEEL'
p2527
aS'258440'
p2528
aS'258760'
p2529
aa(lp2530
S'MANY'
p2531
aS'259000'
p2532
aS'259120'
p2533
aa(lp2534
S'DIFFERENT'
p2535
aS'259320'
p2536
aS'259680'
p2537
aa(lp2538
S'THING'
p2539
aS'259840'
p2540
aS'260000'
p2541
aa(lp2542
S'AT'
p2543
aS'260160'
p2544
aS'260320'
p2545
aa(lp2546
S'ONCE'
p2547
aS'260560'
p2548
aS'260960'
p2549
aa(lp2550
S'IX-1p'
p2551
aS'261200'
p2552
aS'261320'
p2553
aa(lp2554
S'part:indef'
p2555
aS'261520'
p2556
aS'262000'
p2557
aasg24
S'262480'
p2558
sg26
Nsg27
(lp2559
g2511
ag2515
ag2519
ag2523
ag2527
ag2531
ag2535
ag2539
ag2543
ag2547
ag2551
ag2555
asg29
S'For confusion, really I felt many different things at once.'
p2560
sg31
S'256160'
p2561
ssI84
(dp2562
g2
(lp2563
(lp2564
S'REALLY'
p2565
aS'262640'
p2566
aS'262880'
p2567
aa(lp2568
S'part:indef'
p2569
aS'263040'
p2570
aS'263200'
p2571
aa(lp2572
S'IX-1p'
p2573
aS'263280'
p2574
aS'263400'
p2575
aa(lp2576
S'FEEL'
p2577
aS'263480'
p2578
aS'263680'
p2579
aa(lp2580
S'part:indef'
p2581
aS'263760'
p2582
aS'264000'
p2583
aasg24
S'264000'
p2584
sg26
Nsg27
(lp2585
g2565
ag2569
ag2573
ag2577
ag2581
asg29
S'Really, I felt...'
p2586
sg31
S'262520'
p2587
ssI85
(dp2588
g2
(lp2589
(lp2590
S'IN'
p2591
aS'264160'
p2592
aS'264280'
p2593
aa(lp2594
S'ONE'
p2595
aS'264360'
p2596
aS'264600'
p2597
aa(lp2598
S'SIDE'
p2599
aS'264720'
p2600
aS'264840'
p2601
aa(lp2602
S'OF'
p2603
aS'264920'
p2604
aS'264960'
p2605
aa(lp2606
S'IX-1p'
p2607
aS'265080'
p2608
aS'265160'
p2609
aa(lp2610
S'FEEL'
p2611
aS'265280'
p2612
aS'265400'
p2613
aa(lp2614
S'SAME'
p2615
aS'265480'
p2616
aS'265520'
p2617
aa(lp2618
S'CL:1walking to person'
p2619
aS'265600'
p2620
aS'265880'
p2621
aa(lp2622
S'HIT'
p2623
aS'266000'
p2624
aS'266520'
p2625
aa(lp2626
S'COP'
p2627
aS'266720'
p2628
aS'266920'
p2629
aasg24
S'266920'
p2630
sg26
Nsg27
(lp2631
g2591
ag2595
ag2599
ag2603
ag2607
ag2611
ag2615
ag2619
ag2623
ag2627
asg29
S'In one side of me, I want to hit the cop.'
p2632
sg31
S'264040'
p2633
ssI86
(dp2634
g2
(lp2635
(lp2636
S'#BUT'
p2637
aS'267040'
p2638
aS'267440'
p2639
aa(lp2640
S'OF-COURSE'
p2641
aS'267560'
p2642
aS'267840'
p2643
aa(lp2644
S'IX-1p'
p2645
aS'267920'
p2646
aS'268000'
p2647
aa(lp2648
S'CAN^NOT'
p2649
aS'268120'
p2650
aS'268200'
p2651
aa(lp2652
S'DO'
p2653
aS'268280'
p2654
aS'268480'
p2655
aa(lp2656
S'THAT'
p2657
aS'268640'
p2658
aS'268840'
p2659
aa(lp2660
S'part:indef'
p2661
aS'268960'
p2662
aS'269680'
p2663
aa(lp2664
g64
aS'269760'
p2665
aasg24
S'269760'
p2666
sg26
Nsg27
(lp2667
g2637
ag2641
ag2645
ag2649
ag2653
ag2657
ag2661
ag64
asg29
S"But, of course I can't do that."
p2668
sg31
S'266960'
p2669
ssI87
(dp2670
g2
(lp2671
(lp2672
S'#SO'
p2673
aS'269920'
p2674
aS'270000'
p2675
aa(lp2676
S'part:indef'
p2677
aS'270080'
p2678
aS'270640'
p2679
aa(lp2680
S'FINE'
p2681
aS'270960'
p2682
aS'271200'
p2683
aa(lp2684
S'IX-3p:i'
p2685
aS'271320'
p2686
aS'271560'
p2687
aa(lp2688
S'SAY'
p2689
aS'271640'
p2690
aS'271960'
p2691
aasg24
S'271960'
p2692
sg26
Nsg27
(lp2693
g2673
ag2677
ag2681
ag2685
ag2689
asg29
S'So, that is fine and he said...'
p2694
sg31
S'269840'
p2695
ssI88
(dp2696
g2
(lp2697
(lp2698
S'IX-3p:i'
p2699
aS'272120'
p2700
aS'272400'
p2701
aa(lp2702
S'COP'
p2703
aS'272640'
p2704
aS'272720'
p2705
aa(lp2706
S'TELL'
p2707
aS'272880'
p2708
aS'273040'
p2709
aa(lp2710
S'FRIEND'
p2711
aS'273200'
p2712
aS'273560'
p2713
aa(lp2714
S'SAY'
p2715
aS'273760'
p2716
aS'273920'
p2717
aa(lp2718
S'MAKE'
p2719
aS'274200'
p2720
aS'274480'
p2721
aa(lp2722
S'SURE'
p2723
aS'274600'
p2724
aS'275640'
p2725
aa(lp2726
S'IX-2p'
p2727
aS'275760'
p2728
aS'275840'
p2729
aa(lp2730
S'LOOK'
p2731
aS'275960'
p2732
aS'276240'
p2733
aa(lp2734
S'IX-3p:i'
p2735
aS'276360'
p2736
aS'276440'
p2737
aa(lp2738
S'OVER-NIGHT'
p2739
aS'276640'
p2740
aS'277520'
p2741
aasg24
S'277520'
p2742
sg26
Nsg27
(lp2743
g2699
ag2703
ag2707
ag2711
ag2715
ag2719
ag2723
ag2727
ag2731
ag2735
ag2739
asg29
S'The cop told my friend, "make sure you will watch him overnight."'
p2744
sg31
S'272000'
p2745
ssI89
(dp2746
g2
(lp2747
(lp2748
S'NEVER'
p2749
aS'277760'
p2750
aS'277840'
p2751
aa(lp2752
S'THINK'
p2753
aS'277960'
p2754
aS'278120'
p2755
aa(lp2756
S'MUST'
p2757
aS'278200'
p2758
aS'278320'
p2759
aa(lp2760
S'GO'
p2761
aS'278440'
p2762
aS'278520'
p2763
aa(lp2764
S'HOSPITAL'
p2765
aS'278640'
p2766
aS'279080'
p2767
aa(lp2768
S'THAT'
p2769
aS'279160'
p2770
aS'279240'
p2771
aa(lp2772
S'NIGHT'
p2773
aS'279400'
p2774
aS'280000'
p2775
aa(lp2776
g64
aS'280160'
p2777
aasg24
S'280160'
p2778
sg26
Nsg27
(lp2779
g2749
ag2753
ag2757
ag2761
ag2765
ag2769
ag2773
ag64
asg29
S'Never know if he need go to the hospital during night time.'
p2780
sg31
S'277560'
p2781
ssI90
(dp2782
g2
(lp2783
(lp2784
S'IX-1p'
p2785
aS'280400'
p2786
aS'280600'
p2787
aa(lp2788
S'LOOK'
p2789
aS'280760'
p2790
aS'281280'
p2791
aa(lp2792
S'part:indef'
p2793
aS'281440'
p2794
aS'281960'
p2795
aa(lp2796
S'NAH'
p2797
aS'282080'
p2798
aS'282200'
p2799
aa(lp2800
S'IX-1p'
p2801
aS'282360'
p2802
aS'282440'
p2803
aa(lp2804
S'IGNORE'
p2805
aS'282600'
p2806
aS'282880'
p2807
aasg24
S'282880'
p2808
sg26
Nsg27
(lp2809
g2785
ag2789
ag2793
ag2797
ag2801
ag2805
asg29
S'I looked.  Then I decided to ignore about it.'
p2810
sg31
S'280200'
p2811
ssI91
(dp2812
g2
(lp2813
(lp2814
S'IX-3p:i'
p2815
aS'282920'
p2816
aS'283000'
p2817
aa(lp2818
S'SAY'
p2819
aS'283080'
p2820
aS'283160'
p2821
aa(lp2822
S'MAKE'
p2823
aS'283360'
p2824
aS'283520'
p2825
aa(lp2826
S'SURE'
p2827
aS'283680'
p2828
aS'283760'
p2829
aa(lp2830
S'NOT'
p2831
aS'283920'
p2832
aS'284000'
p2833
aa(lp2834
S'fs-PEE'
p2835
aS'284160'
p2836
aS'284320'
p2837
aa(lp2838
S'IN'
p2839
aS'284400'
p2840
aS'284600'
p2841
aa(lp2842
S'PUBLIC'
p2843
aS'284800'
p2844
aS'285200'
p2845
aa(lp2846
S'AGAIN'
p2847
aS'285480'
p2848
aS'285680'
p2849
aa(lp2850
S'SAME'
p2851
aS'285840'
p2852
aS'286120'
p2853
aa(lp2854
g64
aS'286920'
p2855
aasg24
S'287880'
p2856
sg26
Nsg27
(lp2857
g2815
ag2819
ag2823
ag2827
ag2831
ag2835
ag2839
ag2843
ag2847
ag2851
ag64
asg29
S'He said, "make sure not to pee in the public again!" Then he left.'
p2858
sg31
S'282920'
p2859
ssI92
(dp2860
g2
(lp2861
(lp2862
S'IX-1p'
p2863
aS'288080'
p2864
aS'288320'
p2865
aa(lp2866
S'part:indef'
p2867
aS'288480'
p2868
aS'289280'
p2869
aa(lp2870
S'REALLY'
p2871
aS'289400'
p2872
aS'289640'
p2873
aa(lp2874
S'UPSET'
p2875
aS'289760'
p2876
aS'290320'
p2877
aasg24
S'290320'
p2878
sg26
Nsg27
(lp2879
g2863
ag2867
ag2871
ag2875
asg29
S'I was really upset.'
p2880
sg31
S'287920'
p2881
ssI93
(dp2882
g2
(lp2883
(lp2884
S'BLACK'
p2885
aS'290600'
p2886
aS'290880'
p2887
aa(lp2888
S'BLUE'
p2889
aS'290960'
p2890
aS'291240'
p2891
aa(lp2892
S'REALLY'
p2893
aS'292240'
p2894
aS'292600'
p2895
aa(lp2896
S'part:indef'
p2897
aS'292800'
p2898
aS'293240'
p2899
aasg24
S'293240'
p2900
sg26
Nsg27
(lp2901
g2885
ag2889
ag2893
ag2897
asg29
S'There was black and blue bruise on my head.'
p2902
sg31
S'290360'
p2903
ssI94
(dp2904
g2
(lp2905
(lp2906
S'HIT'
p2907
aS'293520'
p2908
aS'293680'
p2909
aa(lp2910
S'HEADACHE'
p2911
aS'293920'
p2912
aS'294120'
p2913
aa(lp2914
S'IX-1p'
p2915
aS'294200'
p2916
aS'294280'
p2917
aa(lp2918
S'HAVE'
p2919
aS'294320'
p2920
aS'294360'
p2921
aa(lp2922
S'BAD'
p2923
aS'294440'
p2924
aS'294640'
p2925
aa(lp2926
S'HEADACHE'
p2927
aS'294760'
p2928
aS'294920'
p2929
aa(lp2930
S'NEXT'
p2931
aS'295080'
p2932
aS'295120'
p2933
aa(lp2934
S'MORNING'
p2935
aS'295240'
p2936
aS'295440'
p2937
aasg24
S'295440'
p2938
sg26
Nsg27
(lp2939
g2907
ag2911
ag2915
ag2919
ag2923
ag2927
ag2931
ag2935
asg29
S'I had a bad headache next morning!'
p2940
sg31
S'293280'
p2941
ssI95
(dp2942
g2
(lp2943
(lp2944
S'BUT'
p2945
aS'295600'
p2946
aS'295720'
p2947
aa(lp2948
S'ANYWAY'
p2949
aS'295800'
p2950
aS'296160'
p2951
aa(lp2952
S'THAT'
p2953
aS'296440'
p2954
aS'296520'
p2955
aa(lp2956
S'part:indef'
p2957
aS'296680'
p2958
aS'297200'
p2959
aa(lp2960
S'FRIEND'
p2961
aS'297360'
p2962
aS'297760'
p2963
aa(lp2964
S'SAY'
p2965
aS'297880'
p2966
aS'297960'
p2967
aa(lp2968
S'part:indef'
p2969
aS'298080'
p2970
aS'298320'
p2971
aa(lp2972
S'ALRIGHT'
p2973
aS'298440'
p2974
aS'298800'
p2975
aasg24
S'298800'
p2976
sg26
Nsg27
(lp2977
g2945
ag2949
ag2953
ag2957
ag2961
ag2965
ag2969
ag2973
asg29
S'But anyway, my friend told me its allright.'
p2978
sg31
S'295480'
p2979
ssI96
(dp2980
g2
(lp2981
(lp2982
S'IX-1p'
p2983
aS'298920'
p2984
aS'299120'
p2985
aa(lp2986
S'FEEL'
p2987
aS'299160'
p2988
aS'299200'
p2989
aa(lp2990
S'FINE'
p2991
aS'299280'
p2992
aS'299520'
p2993
aa(lp2994
S'FORGET'
p2995
aS'299720'
p2996
aS'299880'
p2997
aa(lp2998
S'ABOUT'
p2999
aS'300000'
p3000
aS'300160'
p3001
aa(lp3002
S'#IT'
p3003
aS'300200'
p3004
aS'300520'
p3005
aa(lp3006
S'NAH'
p3007
aS'300600'
p3008
aS'300880'
p3009
aasg24
S'300920'
p3010
sg26
Nsg27
(lp3011
g2983
ag2987
ag2991
ag2995
ag2999
ag3003
ag3007
asg29
S'I feel fine and just forget about it.'
p3012
sg31
S'298840'
p3013
ssI97
(dp3014
g2
(lp3015
(lp3016
S'#BUT'
p3017
aS'301000'
p3018
aS'301240'
p3019
aa(lp3020
S'NOW'
p3021
aS'301320'
p3022
aS'301480'
p3023
aa(lp3024
S'FROM-NOW-ON'
p3025
aS'301840'
p3026
aS'302360'
p3027
aa(lp3028
S'REALLY'
p3029
aS'302520'
p3030
aS'302920'
p3031
aa(lp3032
S'fs-LAPD'
p3033
aS'303120'
p3034
aS'304080'
p3035
aa(lp3036
S'IX-3p:i'
p3037
aS'304160'
p3038
aS'304200'
p3039
aa(lp3040
S'MUST'
p3041
aS'304320'
p3042
aS'304400'
p3043
aa(lp3044
S'TEACH'
p3045
aS'304600'
p3046
aS'304640'
p3047
aa(lp3048
S'POSS-3p:i'
p3049
aS'304800'
p3050
aS'305120'
p3051
aa(lp3052
S'COP'
p3053
aS'305280'
p3054
aS'305840'
p3055
aasg24
S'305840'
p3056
sg26
Nsg27
(lp3057
g3017
ag3021
ag3025
ag3029
ag3033
ag3037
ag3041
ag3045
ag3049
ag3053
asg29
S'But, from now on, LAPD should teach their cops..'
p3058
sg31
S'300960'
p3059
ssI98
(dp3060
g2
(lp3061
(lp3062
S'fs-OFFICERS'
p3063
aS'306040'
p3064
aS'306880'
p3065
aa(lp3066
S'TO'
p3067
aS'307000'
p3068
aS'307120'
p3069
aa(lp3070
S'MAKE'
p3071
aS'307240'
p3072
aS'307320'
p3073
aa(lp3074
S'SURE'
p3075
aS'307480'
p3076
aS'307760'
p3077
aa(lp3078
S'APPROACH'
p3079
aS'308560'
p3080
aS'308920'
p3081
aa(lp3082
S'RIGHT'
p3083
aS'309120'
p3084
aS'309320'
p3085
aa(lp3086
S'WAY'
p3087
aS'309480'
p3088
aS'309720'
p3089
aa(lp3090
S'WITH'
p3091
aS'309840'
p3092
aS'309920'
p3093
aa(lp3094
S'DEAF'
p3095
aS'310080'
p3096
aS'310520'
p3097
aa(lp3098
S'PEOPLE'
p3099
aS'310640'
p3100
aS'310880'
p3101
aasg24
S'310880'
p3102
sg26
Nsg27
(lp3103
g3063
ag3067
ag3071
ag3075
ag3079
ag3083
ag3087
ag3091
ag3095
ag3099
asg29
S'The officers need to make sure they will approach Deaf people in right way.'
p3104
sg31
S'305880'
p3105
ssI99
(dp3106
g2
(lp3107
(lp3108
S'IF'
p3109
aS'311160'
p3110
aS'311360'
p3111
aa(lp3112
S'SOMETHING'
p3113
aS'311480'
p3114
aS'311720'
p3115
aa(lp3116
S'HAPPEN'
p3117
aS'311840'
p3118
aS'311960'
p3119
aa(lp3120
S'APPEAR'
p3121
aS'312080'
p3122
aS'312480'
p3123
aa(lp3124
S'MAKE'
p3125
aS'312680'
p3126
aS'312760'
p3127
aa(lp3128
S'SURE'
p3129
aS'312880'
p3130
aS'313160'
p3131
aa(lp3132
S'HAVE'
p3133
aS'313360'
p3134
aS'313480'
p3135
aa(lp3136
S'PAPER'
p3137
aS'313680'
p3138
aS'313840'
p3139
aa(lp3140
S'#PEN'
p3141
aS'313920'
p3142
aS'314240'
p3143
aa(lp3144
S'READY'
p3145
aS'314360'
p3146
aS'315320'
p3147
aa(lp3148
g64
aS'315400'
p3149
aasg24
S'315400'
p3150
sg26
Nsg27
(lp3151
g3109
ag3113
ag3117
ag3121
ag3125
ag3129
ag3133
ag3137
ag3141
ag3145
ag64
asg29
S'If something happen, they should make sure they will have the paper and pen ready.'
p3152
sg31
S'310920'
p3153
ssI100
(dp3154
g2
(lp3155
(lp3156
S'#OR'
p3157
aS'315560'
p3158
aS'315920'
p3159
aa(lp3160
S'REALLY'
p3161
aS'316080'
p3162
aS'316200'
p3163
aa(lp3164
S'NEED'
p3165
aS'316480'
p3166
aS'316720'
p3167
aa(lp3168
S'ARREST'
p3169
aS'316920'
p3170
aS'317320'
p3171
aa(lp3172
S'CL:Sunknown'
p3173
aS'317760'
p3174
aS'318000'
p3175
aa(lp3176
S'FRONT'
p3177
aS'318200'
p3178
aS'318400'
p3179
aa(lp3180
S'CL:Sunknown'
p3181
aS'318560'
p3182
aS'318800'
p3183
aasg24
S'318800'
p3184
sg26
Nsg27
(lp3185
g3157
ag3161
ag3165
ag3169
ag3173
ag3177
ag3181
asg29
S'Or, if really need to arrest, then they should put the hands in front to arrest.'
p3186
sg31
S'315440'
p3187
ssI101
(dp3188
g2
(lp3189
(lp3190
S'#SO'
p3191
aS'318840'
p3192
aS'318960'
p3193
aa(lp3194
S'COMMUNICATE'
p3195
aS'319160'
p3196
aS'319560'
p3197
aa(lp3198
S'CL:1writing'
p3199
aS'319760'
p3200
aS'320160'
p3201
aa(lp3202
S'#OR'
p3203
aS'320400'
p3204
aS'320560'
p3205
aa(lp3206
S'SIGN'
p3207
aS'320640'
p3208
aS'321160'
p3209
aa(lp3210
S'MAYBE'
p3211
aS'321320'
p3212
aS'321960'
p3213
aasg24
S'322000'
p3214
sg26
Nsg27
(lp3215
g3191
ag3195
ag3199
ag3203
ag3207
ag3211
asg29
S'So maybe they can communicate, writing or even sign.'
p3216
sg31
S'318840'
p3217
ssI102
(dp3218
g2
(lp3219
(lp3220
S'BUT'
p3221
aS'322080'
p3222
aS'322200'
p3223
aa(lp3224
S'UNKNOWN'
p3225
aS'322600'
p3226
aS'322960'
p3227
aa(lp3228
S'NEVER'
p3229
aS'323280'
p3230
aS'323480'
p3231
aa(lp3232
S'AGAIN'
p3233
aS'323680'
p3234
aS'324160'
p3235
aa(lp3236
g64
aS'324440'
p3237
aasg24
S'324440'
p3238
sg26
Nsg27
(lp3239
g3221
ag3225
ag3229
ag3233
ag64
asg29
S'But the hands in back, never again!'
p3240
sg31
S'322040'
p3241
ssI103
(dp3242
g2
(lp3243
(lp3244
S'THAT'
p3245
aS'324600'
p3246
aS'324720'
p3247
aa(lp3248
S'SOMETHING'
p3249
aS'324840'
p3250
aS'325080'
p3251
aa(lp3252
S'IX-1p'
p3253
aS'325160'
p3254
aS'325320'
p3255
aa(lp3256
S'HOPE'
p3257
aS'325520'
p3258
aS'325640'
p3259
aa(lp3260
S'ns-LAPD'
p3261
aS'325760'
p3262
aS'326480'
p3263
aa(lp3264
S'FUTURE'
p3265
aS'326520'
p3266
aS'326640'
p3267
aa(lp3268
S'REALLY'
p3269
aS'326760'
p3270
aS'326960'
p3271
aa(lp3272
S'LEARN'
p3273
aS'327080'
p3274
aS'327960'
p3275
aasg24
S'328200'
p3276
sg26
Nsg27
(lp3277
g3245
ag3249
ag3253
ag3257
ag3261
ag3265
ag3269
ag3273
asg29
S'That its something I hope LAPD will learn.'
p3278
sg31
S'324480'
p3279
ssI104
(dp3280
g2
(lp3281
(lp3282
S'part:indef'
p3283
aS'328360'
p3284
aS'328560'
p3285
aa(lp3286
S'IX-2p'
p3287
aS'328720'
p3288
aS'328760'
p3289
aa(lp3290
S'MAYBE'
p3291
aS'328920'
p3292
aS'329080'
p3293
aa(lp3294
S'WONDER'
p3295
aS'329320'
p3296
aS'329600'
p3297
aa(lp3298
S'WHY'
p3299
aS'329760'
p3300
aS'329960'
p3301
aa(lp3302
S'IX-1p'
p3303
aS'330080'
p3304
aS'330240'
p3305
aa(lp3306
S'NOT'
p3307
aS'330400'
p3308
aS'331120'
p3309
aa(lp3310
S'REPORT'
p3311
aS'331320'
p3312
aS'332320'
p3313
aa(lp3314
S'part:indef'
p3315
aS'332440'
p3316
aS'332720'
p3317
aasg24
S'332720'
p3318
sg26
Nsg27
(lp3319
g3283
ag3287
ag3291
ag3295
ag3299
ag3303
ag3307
ag3311
ag3315
asg29
S"You probably wondering why I didn't report."
p3320
sg31
S'328240'
p3321
ssI105
(dp3322
g2
(lp3323
(lp3324
S'BECAUSE'
p3325
aS'332920'
p3326
aS'333200'
p3327
aa(lp3328
S'IX-1p'
p3329
aS'333320'
p3330
aS'333520'
p3331
aa(lp3332
S'FEEL'
p3333
aS'333640'
p3334
aS'333960'
p3335
aa(lp3336
S'POSS-3p:i'
p3337
aS'334160'
p3338
aS'334280'
p3339
aa(lp3340
S'WORD'
p3341
aS'334600'
p3342
aS'334680'
p3343
aa(lp3344
S'AGAINST'
p3345
aS'335240'
p3346
aS'335480'
p3347
aa(lp3348
S'POSS-1p'
p3349
aS'335600'
p3350
aS'336080'
p3351
aasg24
S'336080'
p3352
sg26
Nsg27
(lp3353
g3325
ag3329
ag3333
ag3337
ag3341
ag3345
ag3349
asg29
S'Because, I feel their words will be against mine.'
p3354
sg31
S'332760'
p3355
ssI106
(dp3356
g2
(lp3357
(lp3358
S'FOR'
p3359
aS'336240'
p3360
aS'336360'
p3361
aa(lp3362
S'EXAMPLE'
p3363
aS'336520'
p3364
aS'336720'
p3365
aa(lp3366
S'fs-RODNEY'
p3367
aS'336880'
p3368
aS'337840'
p3369
aa(lp3370
S'fs-KING'
p3371
aS'337960'
p3372
aS'338640'
p3373
aa(lp3374
S'FOR'
p3375
aS'338760'
p3376
aS'338920'
p3377
aa(lp3378
S'EXAMPLE'
p3379
aS'339040'
p3380
aS'339360'
p3381
aa(lp3382
S'part:indef'
p3383
aS'339480'
p3384
aS'339640'
p3385
aasg24
S'339640'
p3386
sg26
Nsg27
(lp3387
g3359
ag3363
ag3367
ag3371
ag3375
ag3379
ag3383
asg29
S'As for an example, Rodney King.'
p3388
sg31
S'336120'
p3389
ssI107
(dp3390
g2
(lp3391
(lp3392
S'BUT'
p3393
aS'341760'
p3394
aS'341840'
p3395
aa(lp3396
S'STILL'
p3397
aS'342000'
p3398
aS'342440'
p3399
aa(lp3400
S'IX-3p:i'
p3401
aS'342520'
p3402
aS'342600'
p3403
aa(lp3404
S'TAKE'
p3405
aS'342680'
p3406
aS'342800'
p3407
aa(lp3408
S'ns-LAPD'
p3409
aS'342920'
p3410
aS'343760'
p3411
aa(lp3412
S'WORD'
p3413
aS'343920'
p3414
aS'344040'
p3415
aa(lp3416
S'AGAINST'
p3417
aS'344240'
p3418
aS'344320'
p3419
aa(lp3420
S'POSS-3p:i'
p3421
aS'344480'
p3422
aS'344520'
p3423
aa(lp3424
S'ns-RODNEY'
p3425
aS'344640'
p3426
aS'345600'
p3427
aa(lp3428
S'ns-KING'
p3429
aS'345760'
p3430
aS'346160'
p3431
aa(lp3432
S'BUT'
p3433
aS'346480'
p3434
aS'346640'
p3435
aa(lp3436
S'part:indef'
p3437
aS'346800'
p3438
aS'346840'
p3439
aasg24
S'347160'
p3440
sg26
Nsg27
(lp3441
g3393
ag3397
ag3401
ag3405
ag3409
ag3413
ag3417
ag3421
ag3425
ag3429
ag3433
ag3437
asg29
S"But, they still took LAPD's word against Rodney King's."
p3442
sg31
S'341600'
p3443
ssI108
(dp3444
g2
(lp3445
(lp3446
S'REALLY'
p3447
aS'347240'
p3448
aS'347520'
p3449
aa(lp3450
S'IX-1p'
p3451
aS'347680'
p3452
aS'347840'
p3453
aa(lp3454
S'ADMIT'
p3455
aS'348000'
p3456
aS'348400'
p3457
aa(lp3458
S'IX-1p'
p3459
aS'348480'
p3460
aS'348720'
p3461
aa(lp3462
S'part:indef'
p3463
aS'348920'
p3464
aS'349400'
p3465
aa(lp3466
S'NOT^WANT'
p3467
aS'349520'
p3468
aS'349800'
p3469
aa(lp3470
S'BRING'
p3471
aS'349920'
p3472
aS'350080'
p3473
aa(lp3474
S'#UP'
p3475
aS'350160'
p3476
aS'350440'
p3477
aa(lp3478
S'part:indef'
p3479
aS'351040'
p3480
aS'351320'
p3481
aasg24
S'351360'
p3482
sg26
Nsg27
(lp3483
g3447
ag3451
ag3455
ag3459
ag3463
ag3467
ag3471
ag3475
ag3479
asg29
S'Really, I admit, I dont want to bring it up.'
p3484
sg31
S'347200'
p3485
ssI109
(dp3486
g2
(lp3487
(lp3488
S'PUBLIC'
p3489
aS'351480'
p3490
aS'351760'
p3491
aa(lp3492
S'THAT'
p3493
aS'351880'
p3494
aS'352040'
p3495
aa(lp3496
S'IX-1p'
p3497
aS'352120'
p3498
aS'352200'
p3499
aa(lp3500
S'TRUE-BUSINESS'
p3501
aS'352280'
p3502
aS'352800'
p3503
aa(lp3504
S'BATHROOM'
p3505
aS'353000'
p3506
aS'353200'
p3507
aa(lp3508
S'IN'
p3509
aS'353320'
p3510
aS'353480'
p3511
aa(lp3512
S'PUBLIC'
p3513
aS'353640'
p3514
aS'354160'
p3515
aa(lp3516
S'IX-1p'
p3517
aS'354240'
p3518
aS'354400'
p3519
aa(lp3520
S'part:indef'
p3521
aS'354560'
p3522
aS'354680'
p3523
aa(lp3524
S'NOT^WANT'
p3525
aS'354800'
p3526
aS'354880'
p3527
aa(lp3528
S'ON'
p3529
aS'354960'
p3530
aS'355040'
p3531
aa(lp3532
S'RECORD'
p3533
aS'355360'
p3534
aS'355800'
p3535
aasg24
S'355800'
p3536
sg26
Nsg27
(lp3537
g3489
ag3493
ag3497
ag3501
ag3505
ag3509
ag3513
ag3517
ag3521
ag3525
ag3529
ag3533
asg29
S'That I dont want to be on the record for bathroom in the public.'
p3538
sg31
S'351400'
p3539
ssI110
(dp3540
g2
(lp3541
(lp3542
S'IX-1p'
p3543
aS'356000'
p3544
aS'356080'
p3545
aa(lp3546
S'LOOK'
p3547
aS'356160'
p3548
aS'356480'
p3549
aa(lp3550
S'BAD'
p3551
aS'356560'
p3552
aS'357040'
p3553
aa(lp3554
S'AND'
p3555
aS'357280'
p3556
aS'357440'
p3557
aa(lp3558
S'PLUS'
p3559
aS'357520'
p3560
aS'358040'
p3561
aa(lp3562
S'IX-1p'
p3563
aS'358160'
p3564
aS'358400'
p3565
aa(lp3566
S'part:indef'
p3567
aS'358520'
p3568
aS'358640'
p3569
aasg24
S'358720'
p3570
sg26
Nsg27
(lp3571
g3543
ag3547
ag3551
ag3555
ag3559
ag3563
ag3567
asg29
S'I will look bad and plus I...'
p3572
sg31
S'355840'
p3573
ssI111
(dp3574
g2
(lp3575
(lp3576
S'UNDER'
p3577
aS'358840'
p3578
aS'359240'
p3579
aa(lp3580
S'#AGE'
p3581
aS'359360'
p3582
aS'359800'
p3583
aa(lp3584
S'DRINK'
p3585
aS'359840'
p3586
aS'360400'
p3587
aa(lp3588
S'SAME'
p3589
aS'360560'
p3590
aS'361080'
p3591
aa(lp3592
S'part:indef'
p3593
aS'361240'
p3594
aS'361360'
p3595
aasg24
S'362320'
p3596
sg26
Nsg27
(lp3597
g3577
ag3581
ag3585
ag3589
ag3593
asg29
S'Under age drink too.'
p3598
sg31
S'358760'
p3599
ss.