(dp0
I0
(dp1
S'Annotated'
p2
(lp3
(lp4
S'REALLY'
p5
aS'640'
p6
aS'800'
p7
aa(lp8
S'UP-TO-NOW'
p9
aS'1040'
p10
aS'1600'
p11
aa(lp12
S'part:indef'
p13
aS'2040'
p14
aS'2160'
p15
aa(lp16
S'MAYBE'
p17
aS'2200'
p18
aS'2400'
p19
aa(lp20
S'WANT'
p21
aS'2480'
p22
aS'2560'
p23
aa(lp24
S'KNOW'
p25
aS'2680'
p26
aS'2920'
p27
aa(lp28
S'WHY'
p29
aS'3000'
p30
aS'3360'
p31
aasS'EndFrame'
p32
S'3360'
p33
sS'Video'
p34
NsS'Words'
p35
(lp36
g5
ag9
ag13
ag17
ag21
ag25
ag29
asS'English'
p37
S'Really, maybe you want to know why.'
p38
sS'StartFrame'
p39
S'0'
p40
ssI1
(dp41
g2
(lp42
(lp43
S'IX-1p'
p44
aS'3520'
p45
aS'3800'
p46
aa(lp47
S'BECOME'
p48
aS'4000'
p49
aS'4520'
p50
aa(lp51
S'FIND'
p52
aS'4720'
p53
aS'4800'
p54
aa(lp55
S'fs-OUT'
p56
aS'4880'
p57
aS'5120'
p58
aa(lp59
S'BECOME'
p60
aS'5200'
p61
aS'5360'
p62
aa(lp63
S'DEAF'
p64
aS'5520'
p65
aS'6160'
p66
aasg32
S'6160'
p67
sg34
Nsg35
(lp68
g44
ag48
ag52
ag56
ag60
ag64
asg37
S'Find out how I became Deaf.'
p69
sg39
S'3400'
p70
ssI2
(dp71
g2
(lp72
(lp73
S'REALLY'
p74
aS'6280'
p75
aS'6520'
p76
aa(lp77
S'POSS-1p'
p78
aS'6680'
p79
aS'6840'
p80
aa(lp81
S'MOTHER-FATHER'
p82
aS'6960'
p83
aS'7520'
p84
aa(lp85
S'IX-3p:i'
p86
aS'7600'
p87
aS'7760'
p88
aa(lp89
S'BORN'
p90
aS'7920'
p91
aS'8160'
p92
aa(lp93
S'fs-DANA'
p94
aS'8280'
p95
aS'9000'
p96
aasg32
S'9000'
p97
sg34
Nsg35
(lp98
g74
ag78
ag82
ag86
ag90
ag94
asg37
S'Really, my parents gave birth to Dana.'
p99
sg39
S'6200'
p100
ssI3
(dp101
g2
(lp102
(lp103
S'IX-1p'
p104
aS'9120'
p105
aS'9240'
p106
aa(lp107
S'HAVE'
p108
aS'9280'
p109
aS'9320'
p110
aa(lp111
S'OLDER'
p112
aS'9520'
p113
aS'9720'
p114
aa(lp115
S'SISTER'
p116
aS'9800'
p117
aS'10600'
p118
aa(lp119
S'IX-3p:i'
p120
aS'10760'
p121
aS'11120'
p122
aasg32
S'11120'
p123
sg34
Nsg35
(lp124
g104
ag108
ag112
ag116
ag120
asg37
S'I have an older sister.'
p125
sg39
S'9040'
p126
ssI4
(dp127
g2
(lp128
(lp129
S'fs-WHEN'
p130
aS'11280'
p131
aS'11560'
p132
aa(lp133
S'IX-3p:i'
p134
aS'11680'
p135
aS'11840'
p136
aa(lp137
S'THREE-YEAR-OLD'
p138
aS'12160'
p139
aS'12680'
p140
aa(lp141
S'HALF'
p142
aS'12800'
p143
aS'13680'
p144
aa(lp145
S'FOUR-YEAR-OLD'
p146
aS'13840'
p147
aS'14600'
p148
aa(lp149
S'IX-3p:i'
p150
aS'14760'
p151
aS'15280'
p152
aasg32
S'15280'
p153
sg34
Nsg35
(lp154
g130
ag134
ag138
ag142
ag146
ag150
asg37
S'When she was three and half or four years old.'
p155
sg39
S'11160'
p156
ssI5
(dp157
g2
(lp158
(lp159
S'POSS-1p'
p160
aS'15560'
p161
aS'15680'
p162
aa(lp163
S'MOTHER'
p164
aS'15760'
p165
aS'15960'
p166
aa(lp167
S'PREGNANT'
p168
aS'16240'
p169
aS'16520'
p170
aa(lp171
S'WITH'
p172
aS'16640'
p173
aS'16760'
p174
aa(lp175
S'IX-1p'
p176
aS'16920'
p177
aS'17280'
p178
aasg32
S'17280'
p179
sg34
Nsg35
(lp180
g160
ag164
ag168
ag172
ag176
asg37
S'My mother was pregnant with me.'
p181
sg39
S'15320'
p182
ssI6
(dp183
g2
(lp184
(lp185
S'fs-DANA'
p186
aS'17440'
p187
aS'18800'
p188
aa(lp189
S'WANT'
p190
aS'19080'
p191
aS'19440'
p192
aa(lp193
S'DEAF'
p194
aS'19600'
p195
aS'20120'
p196
aa(lp197
S'SISTER'
p198
aS'20240'
p199
aS'20960'
p200
aasg32
S'20960'
p201
sg34
Nsg35
(lp202
g186
ag190
ag194
ag198
asg37
S'Dana wanted to have Deaf sister.'
p203
sg39
S'17320'
p204
ssI7
(dp205
g2
(lp206
(lp207
S'SAY'
p208
aS'21160'
p209
aS'21320'
p210
aa(lp211
S'WANT'
p212
aS'21520'
p213
aS'22000'
p214
aa(lp215
S'DEAF'
p216
aS'22120'
p217
aS'22480'
p218
aa(lp219
S'SISTER'
p220
aS'22600'
p221
aS'23000'
p222
aasg32
S'23000'
p223
sg34
Nsg35
(lp224
g208
ag212
ag216
ag220
asg37
S'Said that she want to have a Deaf sister.'
p225
sg39
S'21000'
p226
ssI8
(dp227
g2
(lp228
(lp229
S'CL:4tapping to person'
p230
aS'23200'
p231
aS'23640'
p232
aa(lp233
S'POSS-1p'
p234
aS'23880'
p235
aS'23920'
p236
aa(lp237
S'MOTHER'
p238
aS'24080'
p239
aS'24200'
p240
aa(lp241
S'EVERYDAY'
p242
aS'24400'
p243
aS'24880'
p244
aa(lp245
S'UP-TO-NOW'
p246
aS'25120'
p247
aS'25600'
p248
aa(lp249
S'SAY'
p250
aS'25720'
p251
aS'25840'
p252
aa(lp253
S'IX-1p'
p254
aS'26080'
p255
aS'26160'
p256
aa(lp257
S'WANT'
p258
aS'26320'
p259
aS'26520'
p260
aa(lp261
S'DEAF'
p262
aS'26720'
p263
aS'27040'
p264
aa(lp265
S'SISTER'
p266
aS'27240'
p267
aS'27840'
p268
aasg32
S'27840'
p269
sg34
Nsg35
(lp270
g230
ag234
ag238
ag242
ag246
ag250
ag254
ag258
ag262
ag266
asg37
S'She would tell her mother everyday that she wants a deaf sister.'
p271
sg39
S'23040'
p272
ssI9
(dp273
g2
(lp274
(lp275
S'IX-1p'
p276
aS'27960'
p277
aS'28000'
p278
aa(lp279
S'hoping++'
p280
aS'28120'
p281
aS'29120'
p282
aasg32
S'29120'
p283
sg34
Nsg35
(lp284
g276
ag280
asg37
S'I crossed my fingers.'
p285
sg39
S'27880'
p286
ssI10
(dp287
g2
(lp288
(lp289
S'POSS-1p'
p290
aS'29320'
p291
aS'29400'
p292
aa(lp293
S'MOTHER'
p294
aS'29600'
p295
aS'29960'
p296
aa(lp297
S'part:indef'
p298
aS'30080'
p299
aS'30160'
p300
aa(lp301
S'TELL'
p302
aS'30240'
p303
aS'30520'
p304
aa(lp305
S'UNKNOWN'
p306
aS'30640'
p307
aS'30880'
p308
aa(lp309
S'WARN'
p310
aS'30960'
p311
aS'31440'
p312
aa(lp313
S'UNKNOWN'
p314
aS'31560'
p315
aS'31840'
p316
aa(lp317
S'SEE++'
p318
aS'32080'
p319
aS'32480'
p320
aasg32
S'32480'
p321
sg34
Nsg35
(lp322
g290
ag294
ag298
ag302
ag306
ag310
ag314
ag318
asg37
S'My mother told her to take it easy, we will see.'
p323
sg39
S'29200'
p324
ssI11
(dp325
g2
(lp326
(lp327
S'MAYBE'
p328
aS'32600'
p329
aS'32840'
p330
aa(lp331
S'HEARING'
p332
aS'32920'
p333
aS'33360'
p334
aa(lp335
S'IX-1p'
p336
aS'33400'
p337
aS'33480'
p338
aa(lp339
S'STILL'
p340
aS'33560'
p341
aS'33720'
p342
aa(lp343
S'LOVE'
p344
aS'33880'
p345
aS'34120'
p346
aa(lp347
S'SAME'
p348
aS'34200'
p349
aS'34600'
p350
aa(lp351
S'NAH'
p352
aS'34720'
p353
aS'35000'
p354
aasg32
S'35000'
p355
sg34
Nsg35
(lp356
g328
ag332
ag336
ag340
ag344
ag348
ag352
asg37
S'Or maybe hearing? I will still love the same.'
p357
sg39
S'32520'
p358
ssI12
(dp359
g2
(lp360
(lp361
S'part:indef'
p362
aS'35160'
p363
aS'35240'
p364
aa(lp365
S'BUT'
p366
aS'35280'
p367
aS'35400'
p368
aa(lp369
S'IX-1p'
p370
aS'35520'
p371
aS'35600'
p372
aa(lp373
S'HOPE'
p374
aS'35680'
p375
aS'35800'
p376
aa(lp377
S'DEAF'
p378
aS'35880'
p379
aS'36240'
p380
aa(lp381
S'SAME'
p382
aS'36320'
p383
aS'36480'
p384
aa(lp385
S'HOPE'
p386
aS'36560'
p387
aS'36880'
p388
aa(lp389
S'part:indef'
p390
aS'37000'
p391
aS'37400'
p392
aasg32
S'37520'
p393
sg34
Nsg35
(lp394
g362
ag366
ag370
ag374
ag378
ag382
ag386
ag390
asg37
S'But I hope for Deaf too.'
p395
sg39
S'35040'
p396
ssI13
(dp397
g2
(lp398
(lp399
S'IX-3p:i'
p400
aS'37600'
p401
aS'37680'
p402
aa(lp403
S'MAYBE'
p404
aS'37760'
p405
aS'37880'
p406
aa(lp407
S'BOY'
p408
aS'38000'
p409
aS'38240'
p410
aa(lp411
S'SAME'
p412
aS'38320'
p413
aS'38760'
p414
aasg32
S'38760'
p415
sg34
Nsg35
(lp416
g400
ag404
ag408
ag412
asg37
S'Maybe it is a boy too.'
p417
sg39
S'37560'
p418
ssI14
(dp419
g2
(lp420
(lp421
S'POSS-1p'
p422
aS'38880'
p423
aS'38960'
p424
aa(lp425
S'SISTER'
p426
aS'39200'
p427
aS'39360'
p428
aa(lp429
S'SAY'
p430
aS'39440'
p431
aS'39520'
p432
aa(lp433
S'NO'
p434
aS'39640'
p435
aS'39960'
p436
aa(lp437
S'FEEL'
p438
aS'40080'
p439
aS'40600'
p440
aa(lp441
S'IX-1p'
p442
aS'40680'
p443
aS'40760'
p444
aa(lp445
S'FUTURE'
p446
aS'40840'
p447
aS'40880'
p448
aa(lp449
S'GET'
p450
aS'40960'
p451
aS'41160'
p452
aa(lp453
S'DEAF'
p454
aS'41360'
p455
aS'41880'
p456
aa(lp457
S'SISTER'
p458
aS'42080'
p459
aS'42720'
p460
aa(lp461
S'punct'
p462
aS'43080'
p463
aasg32
S'43400'
p464
sg34
Nsg35
(lp465
g422
ag426
ag430
ag434
ag438
ag442
ag446
ag450
ag454
ag458
ag462
asg37
S'My sister said "No, I got the feeling that I will get Deaf sister."'
p466
sg39
S'38800'
p467
ssI15
(dp468
g2
(lp469
(lp470
S'POSS-1p'
p471
aS'43600'
p472
aS'43680'
p473
aa(lp474
S'MOTHER'
p475
aS'43800'
p476
aS'43920'
p477
aa(lp478
S'SAY'
p479
aS'44000'
p480
aS'44160'
p481
aa(lp482
S'part:indef'
p483
aS'44280'
p484
aS'44440'
p485
aa(lp486
S'SEE++'
p487
aS'44560'
p488
aS'44960'
p489
aa(lp490
S'part:indef'
p491
aS'45040'
p492
aS'45200'
p493
aasg32
S'45320'
p494
sg34
Nsg35
(lp495
g471
ag475
ag479
ag483
ag487
ag491
asg37
S'My mother said "we will see."'
p496
sg39
S'43440'
p497
ssI16
(dp498
g2
(lp499
(lp500
S'fs-DANA'
p501
aS'50720'
p502
aS'51360'
p503
aa(lp504
S'UNKNOWN'
p505
aS'51520'
p506
aS'51800'
p507
aa(lp508
S'FIND'
p509
aS'51880'
p510
aS'52000'
p511
aa(lp512
S'fs-OUT'
p513
aS'52040'
p514
aS'52240'
p515
aa(lp516
S'IX-1p'
p517
aS'52320'
p518
aS'52440'
p519
aa(lp520
S'BOY'
p521
aS'52640'
p522
aS'52960'
p523
aa(lp524
S'IX-3p:i'
p525
aS'53040'
p526
aS'53160'
p527
aa(lp528
S'ACCEPT'
p529
aS'53320'
p530
aS'53480'
p531
aasg32
S'53480'
p532
sg34
Nsg35
(lp533
g501
ag505
ag509
ag513
ag517
ag521
ag525
ag529
asg37
S'When Dana found out that I was boy, she accepted.'
p534
sg39
S'50680'
p535
ssI17
(dp536
g2
(lp537
(lp538
S'#BUT'
p539
aS'53600'
p540
aS'53800'
p541
aa(lp542
S'IMPORTANT'
p543
aS'54000'
p544
aS'54160'
p545
aa(lp546
S'IX-3p:i'
p547
aS'54200'
p548
aS'54240'
p549
aa(lp550
S'DEAF'
p551
aS'54400'
p552
aS'54920'
p553
aa(lp554
S'part:indef'
p555
aS'55040'
p556
aS'55320'
p557
aasg32
S'55320'
p558
sg34
Nsg35
(lp559
g539
ag543
ag547
ag551
ag555
asg37
S'But most importantly, he is deaf.'
p560
sg39
S'53520'
p561
ssI18
(dp562
g2
(lp563
(lp564
S'POSS-1p'
p565
aS'55480'
p566
aS'55560'
p567
aa(lp568
S'MOTHER'
p569
aS'55600'
p570
aS'55640'
p571
aa(lp572
S'SAY'
p573
aS'55720'
p574
aS'55880'
p575
aa(lp576
S'part:indef'
p577
aS'56000'
p578
aS'56320'
p579
aa(lp580
S'CAN^NOT'
p581
aS'56480'
p582
aS'57080'
p583
aa(lp584
S'NOTICE'
p585
aS'57320'
p586
aS'57560'
p587
aa(lp588
S'IF'
p589
aS'57640'
p590
aS'57840'
p591
aa(lp592
S'IX-1p'
p593
aS'57920'
p594
aS'58000'
p595
aa(lp596
S'DEAF'
p597
aS'58120'
p598
aS'58600'
p599
aa(lp600
S'IF'
p601
aS'58680'
p602
aS'58920'
p603
aa(lp604
S'part:indef'
p605
aS'59000'
p606
aS'59480'
p607
aasg32
S'59480'
p608
sg34
Nsg35
(lp609
g565
ag569
ag573
ag577
ag581
ag585
ag589
ag593
ag597
ag601
ag605
asg37
S'My mother said,"You can\'t notice if he is Deaf."'
p610
sg39
S'55360'
p611
ssI19
(dp612
g2
(lp613
(lp614
S'WAIT'
p615
aS'61280'
p616
aS'61760'
p617
aa(lp618
S'CL:5bigger'
p619
aS'62200'
p620
aS'62560'
p621
aa(lp622
S'part:indef'
p623
aS'62760'
p624
aS'62960'
p625
aa(lp626
S'FEEL'
p627
aS'63040'
p628
aS'63160'
p629
aa(lp630
S'COMFORTABLE'
p631
aS'63240'
p632
aS'63640'
p633
aa(lp634
S'AT'
p635
aS'63720'
p636
aS'63800'
p637
aa(lp638
S'HOME'
p639
aS'64000'
p640
aS'64200'
p641
aasg32
S'64200'
p642
sg34
Nsg35
(lp643
g615
ag619
ag623
ag627
ag631
ag635
ag639
asg37
S'Wait until he get bigger and feel comfortable at home.'
p644
sg39
S'61200'
p645
ssI20
(dp646
g2
(lp647
(lp648
S'#THEN'
p649
aS'64280'
p650
aS'64600'
p651
aa(lp652
S'FUTURE'
p653
aS'64640'
p654
aS'64720'
p655
aa(lp656
S'FIND'
p657
aS'64880'
p658
aS'64920'
p659
aa(lp660
S'#OUT'
p661
aS'64960'
p662
aS'65360'
p663
aa(lp664
S'IF'
p665
aS'65440'
p666
aS'65720'
p667
aa(lp668
S'IX-1p'
p669
aS'65840'
p670
aS'66120'
p671
aa(lp672
S'DEAF'
p673
aS'66440'
p674
aS'67000'
p675
aasg32
S'67000'
p676
sg34
Nsg35
(lp677
g649
ag653
ag657
ag661
ag665
ag669
ag673
asg37
S'Then will find out if I am Deaf.'
p678
sg39
S'64240'
p679
ssI21
(dp680
g2
(lp681
(lp682
S'fs-DANA'
p683
aS'67200'
p684
aS'67880'
p685
aa(lp686
S'SAY'
p687
aS'68000'
p688
aS'68080'
p689
aa(lp690
S'part:indef'
p691
aS'68400'
p692
aS'68840'
p693
aa(lp694
S'SAY'
p695
aS'69040'
p696
aS'69200'
p697
aa(lp698
S'CAN'
p699
aS'69360'
p700
aS'69520'
p701
aa(lp702
S'ASK'
p703
aS'69600'
p704
aS'69760'
p705
aa(lp706
S'DOCTOR'
p707
aS'69960'
p708
aS'70440'
p709
aasg32
S'70560'
p710
sg34
Nsg35
(lp711
g683
ag687
ag691
ag695
ag699
ag703
ag707
asg37
S'Dana said,"then can I ask doctor?"'
p712
sg39
S'67080'
p713
ssI22
(dp714
g2
(lp715
(lp716
S'POSS-1p'
p717
aS'70800'
p718
aS'70920'
p719
aa(lp720
S'MOTHER'
p721
aS'71000'
p722
aS'71080'
p723
aa(lp724
S'SAY'
p725
aS'71160'
p726
aS'71240'
p727
aa(lp728
S'NAH'
p729
aS'71440'
p730
aS'71800'
p731
aa(lp732
S'part:indef'
p733
aS'72880'
p734
aS'73160'
p735
aa(lp736
S'ENOUGH'
p737
aS'73240'
p738
aS'73600'
p739
aa(lp740
S'NAH'
p741
aS'73800'
p742
aS'74080'
p743
aasg32
S'74080'
p744
sg34
Nsg35
(lp745
g717
ag721
ag725
ag729
ag733
ag737
ag741
asg37
S'My mother said,"Enough!"'
p746
sg39
S'70640'
p747
ssI23
(dp748
g2
(lp749
(lp750
S'BRING'
p751
aS'74360'
p752
aS'74560'
p753
aa(lp754
S'IX-1p'
p755
aS'74680'
p756
aS'74800'
p757
aa(lp758
S'HOME'
p759
aS'74880'
p760
aS'75280'
p761
aa(lp762
S'THAT'
p763
aS'75440'
p764
aS'75680'
p765
aa(lp766
S'FIRST'
p767
aS'75720'
p768
aS'76040'
p769
aa(lp770
S'UMM'
p771
aS'76320'
p772
aS'76400'
p773
aa(lp774
S'FIRST'
p775
aS'76480'
p776
aS'76720'
p777
aa(lp778
S'NIGHT'
p779
aS'76920'
p780
aS'77120'
p781
aasg32
S'77120'
p782
sg34
Nsg35
(lp783
g751
ag755
ag759
ag763
ag767
ag771
ag775
ag779
asg37
S'Brought me home on that first night.'
p784
sg39
S'74160'
p785
ssI24
(dp786
g2
(lp787
(lp788
S'IX-1p'
p789
aS'77240'
p790
aS'77360'
p791
aa(lp792
S'ARRIVE'
p793
aS'77480'
p794
aS'77680'
p795
aa(lp796
S'HOME'
p797
aS'77800'
p798
aS'78320'
p799
aa(lp800
g462
aS'78480'
p801
aasg32
S'78480'
p802
sg34
Nsg35
(lp803
g789
ag793
ag797
ag462
asg37
S'I arrived home.'
p804
sg39
S'77200'
p805
ssI25
(dp806
g2
(lp807
(lp808
S'IX-1p'
p809
aS'78560'
p810
aS'78640'
p811
aa(lp812
S'SLEEP'
p813
aS'78840'
p814
aS'78960'
p815
aa(lp816
S'IN'
p817
aS'79080'
p818
aS'79160'
p819
aa(lp820
S'fs-CRIB'
p821
aS'79280'
p822
aS'80160'
p823
aa(lp824
S'CL:4size of the object'
p825
aS'80400'
p826
aS'80880'
p827
aa(lp828
g462
aS'81280'
p829
aasg32
S'81280'
p830
sg34
Nsg35
(lp831
g809
ag813
ag817
ag821
ag825
ag462
asg37
S'I was sleeping in the crib.'
p832
sg39
S'78520'
p833
ssI26
(dp834
g2
(lp835
(lp836
S'fs-DANA'
p837
aS'81560'
p838
aS'82360'
p839
aa(lp840
S'WATCH'
p841
aS'82800'
p842
aS'83120'
p843
aa(lp844
S'DEVIL'
p845
aS'83320'
p846
aS'83520'
p847
aa(lp848
S'fs-DANA'
p849
aS'83640'
p850
aS'84080'
p851
aa(lp852
S'IX-3p:i'
p853
aS'84200'
p854
aS'84360'
p855
aa(lp856
S'DEVIL'
p857
aS'84480'
p858
aS'84920'
p859
aa(lp860
S'GIRL'
p861
aS'85040'
p862
aS'85160'
p863
aa(lp864
S'PAST'
p865
aS'85320'
p866
aS'85680'
p867
aa(lp868
g462
aS'86000'
p869
aa(lp870
S'SAME'
p871
aS'86120'
p872
aS'86320'
p873
aa(lp874
S'IX-1p'
p875
aS'86440'
p876
aS'86640'
p877
aa(lp878
S'GROW-UP'
p879
aS'86800'
p880
aS'87120'
p881
aasg32
S'87120'
p882
sg34
Nsg35
(lp883
g837
ag841
ag845
ag849
ag853
ag857
ag861
ag865
ag462
ag871
ag875
ag879
asg37
S'Dana was staring.. She was devil girl, same for me when we grew up.'
p884
sg39
S'81320'
p885
ssI27
(dp886
g2
(lp887
(lp888
S'BUT'
p889
aS'87360'
p890
aS'87400'
p891
aa(lp892
S'ANYWAY'
p893
aS'87600'
p894
aS'87960'
p895
aa(lp896
S'fs-DANA'
p897
aS'88280'
p898
aS'88920'
p899
aa(lp900
g462
aS'89440'
p901
aa(lp902
S'DECIDE'
p903
aS'89680'
p904
aS'90000'
p905
aa(lp906
S'GET'
p907
aS'90120'
p908
aS'90320'
p909
aa(lp910
S'fs-POTS'
p911
aS'90560'
p912
aS'91800'
p913
aa(lp914
S'AND'
p915
aS'91960'
p916
aS'92400'
p917
aa(lp918
S'fs-PANS'
p919
aS'92600'
p920
aS'93160'
p921
aa(lp922
S'CL:5getting the objects'
p923
aS'93440'
p924
aS'94320'
p925
aasg32
S'94320'
p926
sg34
Nsg35
(lp927
g889
ag893
ag897
ag462
ag903
ag907
ag911
ag915
ag919
ag923
asg37
S'But anyway, Dana decided to get pots and pans.'
p928
sg39
S'87200'
p929
ssI28
(dp930
g2
(lp931
(lp932
S'SNEAK'
p933
aS'94440'
p934
aS'94560'
p935
aa(lp936
S'WHEN'
p937
aS'94680'
p938
aS'94840'
p939
aa(lp940
S'POSS-1p'
p941
aS'94960'
p942
aS'95040'
p943
aa(lp944
S'MOTHER-FATHER'
p945
aS'95120'
p946
aS'95600'
p947
aa(lp948
S'SLEEP'
p949
aS'95720'
p950
aS'96360'
p951
aa(lp952
S'IN'
p953
aS'97600'
p954
aS'97640'
p955
aa(lp956
S'HOUSE'
p957
aS'97800'
p958
aS'98240'
p959
aasg32
S'98240'
p960
sg34
Nsg35
(lp961
g933
ag937
ag941
ag945
ag949
ag953
ag957
asg37
S'She was sneaking to downstair in the house while my parents were sleeping.'
p962
sg39
S'94360'
p963
ssI29
(dp964
g2
(lp965
(lp966
S'CL:5banging the objects+'
p967
aS'107320'
p968
aS'108440'
p969
aa(lp970
S'IX-1p'
p971
aS'108560'
p972
aS'108640'
p973
aa(lp974
S'WAKE-UP'
p975
aS'108880'
p976
aS'109760'
p977
aa(lp978
S'CRY++'
p979
aS'110080'
p980
aS'112920'
p981
aa(lp982
g462
aS'112960'
p983
aasg32
S'112960'
p984
sg34
Nsg35
(lp985
g967
ag971
ag975
ag979
ag462
asg37
S'She made a lot of noises as banging and banging. I woke up and cried.'
p986
sg39
S'105840'
p987
ssI30
(dp988
g2
(lp989
(lp990
S'fs-DANA'
p991
aS'114520'
p992
aS'114960'
p993
aa(lp994
S'LOOK'
p995
aS'115160'
p996
aS'115400'
p997
aa(lp998
S'OBVIOUS'
p999
aS'115600'
p1000
aS'115920'
p1001
aa(lp1002
S'HEARING'
p1003
aS'116160'
p1004
aS'116880'
p1005
aa(lp1006
S'NAH'
p1007
aS'117080'
p1008
aS'117320'
p1009
aasg32
S'118040'
p1010
sg34
Nsg35
(lp1011
g991
ag995
ag999
ag1003
ag1007
asg37
S'Dana was looking at me and said," he obviously can hear."'
p1012
sg39
S'113000'
p1013
ssI31
(dp1014
g2
(lp1015
(lp1016
S'DEPRESS'
p1017
aS'118400'
p1018
aS'119920'
p1019
aa(lp1020
S'NAH'
p1021
aS'120160'
p1022
aS'120320'
p1023
aa(lp1024
S'CL:1person walking across'
p1025
aS'120560'
p1026
aS'120920'
p1027
aa(lp1028
S'TELL'
p1029
aS'121080'
p1030
aS'121240'
p1031
aa(lp1032
S'POSS-1p'
p1033
aS'121400'
p1034
aS'121480'
p1035
aa(lp1036
S'MOTHER-FATHER'
p1037
aS'121640'
p1038
aS'122040'
p1039
aasg32
S'122040'
p1040
sg34
Nsg35
(lp1041
g1017
ag1021
ag1025
ag1029
ag1033
ag1037
asg37
S'She was depressed and walked over to tell my parents.'
p1042
sg39
S'118080'
p1043
ssI32
(dp1044
g2
(lp1045
(lp1046
S'SAY'
p1047
aS'122200'
p1048
aS'122400'
p1049
aa(lp1050
S'KNOW'
p1051
aS'122640'
p1052
aS'123040'
p1053
aa(lp1054
S'IX-3p:i'
p1055
aS'123120'
p1056
aS'123920'
p1057
aa(lp1058
S'REALLY'
p1059
aS'124160'
p1060
aS'124400'
p1061
aa(lp1062
S'POSS-3p:i'
p1063
aS'124560'
p1064
aS'124720'
p1065
aa(lp1066
S'HEARING'
p1067
aS'124920'
p1068
aS'125280'
p1069
aa(lp1070
S'NOT'
p1071
aS'125360'
p1072
aS'125480'
p1073
aa(lp1074
S'DEAF'
p1075
aS'125680'
p1076
aS'126200'
p1077
aasg32
S'126280'
p1078
sg34
Nsg35
(lp1079
g1047
ag1051
ag1055
ag1059
ag1063
ag1067
ag1071
ag1075
asg37
S'She said,"Know what? Hes really hearing, not Deaf."'
p1080
sg39
S'122080'
p1081
ssI33
(dp1082
g2
(lp1083
(lp1084
S'POSS-1p'
p1085
aS'126360'
p1086
aS'126440'
p1087
aa(lp1088
S'MOTHER-FATHER'
p1089
aS'126520'
p1090
aS'126920'
p1091
aa(lp1092
S'part:indef'
p1093
aS'127040'
p1094
aS'127520'
p1095
aa(lp1096
S'HOW'
p1097
aS'127680'
p1098
aS'127800'
p1099
aa(lp1100
S'KNOW'
p1101
aS'127960'
p1102
aS'128240'
p1103
aasg32
S'128240'
p1104
sg34
Nsg35
(lp1105
g1085
ag1089
ag1093
ag1097
ag1101
asg37
S'My parents asked "how did you know?"'
p1106
sg39
S'126320'
p1107
ssI34
(dp1108
g2
(lp1109
(lp1110
S'IX-3p:i'
p1111
aS'128400'
p1112
aS'128600'
p1113
aa(lp1114
S'fs-DANA'
p1115
aS'128680'
p1116
aS'129200'
p1117
aa(lp1118
S'SAY'
p1119
aS'129320'
p1120
aS'129480'
p1121
aa(lp1122
S'REALLY'
p1123
aS'129680'
p1124
aS'130040'
p1125
aa(lp1126
S'IX-1p'
p1127
aS'130200'
p1128
aS'130320'
p1129
aa(lp1130
S'CL:1person walking down'
p1131
aS'130480'
p1132
aS'130800'
p1133
aa(lp1134
S'GET'
p1135
aS'130960'
p1136
aS'131280'
p1137
aa(lp1138
S'fs-POTS'
p1139
aS'131440'
p1140
aS'132160'
p1141
aa(lp1142
S'AND'
p1143
aS'132280'
p1144
aS'132440'
p1145
aa(lp1146
S'fs-PANS'
p1147
aS'132600'
p1148
aS'133000'
p1149
aa(lp1150
S'CL:Sgetting the objects'
p1151
aS'133160'
p1152
aS'133440'
p1153
aasg32
S'133440'
p1154
sg34
Nsg35
(lp1155
g1111
ag1115
ag1119
ag1123
ag1127
ag1131
ag1135
ag1139
ag1143
ag1147
ag1151
asg37
S'Dana said," I went down to get pots and pans."'
p1156
sg39
S'128280'
p1157
ssI35
(dp1158
g2
(lp1159
(lp1160
S'CL:Sbanging the objects+'
p1161
aS'133720'
p1162
aS'134680'
p1163
aa(lp1164
S'WHEN'
p1165
aS'134920'
p1166
aS'135120'
p1167
aa(lp1168
S'IX-1p'
p1169
aS'135200'
p1170
aS'135280'
p1171
aa(lp1172
S'SLEEP'
p1173
aS'135480'
p1174
aS'135840'
p1175
aasg32
S'135840'
p1176
sg34
Nsg35
(lp1177
g1161
ag1165
ag1169
ag1173
asg37
S'Banging them when I was sleeping.'
p1178
sg39
S'133480'
p1179
ssI36
(dp1180
g2
(lp1181
(lp1182
S'IX-1p'
p1183
aS'135920'
p1184
aS'136000'
p1185
aa(lp1186
S'WAKE-UP'
p1187
aS'136200'
p1188
aS'136560'
p1189
aa(lp1190
S'CRY+'
p1191
aS'136720'
p1192
aS'137440'
p1193
aa(lp1194
g462
aS'138040'
p1195
aasg32
S'138360'
p1196
sg34
Nsg35
(lp1197
g1183
ag1187
ag1191
ag462
asg37
S'I woke up and cried.'
p1198
sg39
S'135880'
p1199
ssI37
(dp1200
g2
(lp1201
(lp1202
S'MOTHER-FATHER'
p1203
aS'138600'
p1204
aS'138920'
p1205
aa(lp1206
S'TRUE-BUSINESS'
p1207
aS'139160'
p1208
aS'139840'
p1209
aa(lp1210
S'part:indef'
p1211
aS'140000'
p1212
aS'140120'
p1213
aa(lp1214
S'NAH'
p1215
aS'140320'
p1216
aS'140600'
p1217
aasg32
S'141320'
p1218
sg34
Nsg35
(lp1219
g1203
ag1207
ag1211
ag1215
asg37
S'My parents said, really? Oh well.'
p1220
sg39
S'138400'
p1221
ssI38
(dp1222
g2
(lp1223
(lp1224
S'NEXT'
p1225
aS'141640'
p1226
aS'141720'
p1227
aa(lp1228
S'fs-DAY'
p1229
aS'141840'
p1230
aS'142160'
p1231
aa(lp1232
S'NAH'
p1233
aS'142240'
p1234
aS'142600'
p1235
aa(lp1236
S'WAKE-UP'
p1237
aS'142760'
p1238
aS'142920'
p1239
aasg32
S'142920'
p1240
sg34
Nsg35
(lp1241
g1225
ag1229
ag1233
ag1237
asg37
S'Next day, I woke up.'
p1242
sg39
S'141360'
p1243
ssI39
(dp1244
g2
(lp1245
(lp1246
S'fs-DANA'
p1247
aS'143080'
p1248
aS'143400'
p1249
aa(lp1250
S'STILL'
p1251
aS'143600'
p1252
aS'143680'
p1253
aa(lp1254
S'UPSET'
p1255
aS'143800'
p1256
aS'144160'
p1257
aa(lp1258
S'THAT'
p1259
aS'144240'
p1260
aS'144320'
p1261
aa(lp1262
S'IX-1p'
p1263
aS'144400'
p1264
aS'144560'
p1265
aa(lp1266
S'NOT'
p1267
aS'144680'
p1268
aS'144720'
p1269
aa(lp1270
S'DEAF'
p1271
aS'145040'
p1272
aS'145160'
p1273
aa(lp1274
S'NOT'
p1275
aS'145640'
p1276
aS'146120'
p1277
aa(lp1278
S'DEAF'
p1279
aS'146280'
p1280
aS'146960'
p1281
aa(lp1282
S'IX-3p:i'
p1283
aS'147200'
p1284
aS'147320'
p1285
aa(lp1286
S'part:indef'
p1287
aS'147520'
p1288
aS'147760'
p1289
aasg32
S'148080'
p1290
sg34
Nsg35
(lp1291
g1247
ag1251
ag1255
ag1259
ag1263
ag1267
ag1271
ag1275
ag1279
ag1283
ag1287
asg37
S'Dana was still upset that I am not Deaf.'
p1292
sg39
S'142960'
p1293
ssI40
(dp1294
g2
(lp1295
(lp1296
S'part:indef'
p1297
aS'148440'
p1298
aS'148480'
p1299
aa(lp1300
S'IX-3p:i'
p1301
aS'148600'
p1302
aS'148680'
p1303
aa(lp1304
S'DECIDE'
p1305
aS'148880'
p1306
aS'149080'
p1307
aa(lp1308
S'#TO'
p1309
aS'149160'
p1310
aS'149360'
p1311
aa(lp1312
S'DO'
p1313
aS'149480'
p1314
aS'150000'
p1315
aa(lp1316
S'SOMETHING'
p1317
aS'150120'
p1318
aS'150240'
p1319
aa(lp1320
S'ELSE'
p1321
aS'150400'
p1322
aS'150800'
p1323
aasg32
S'151480'
p1324
sg34
Nsg35
(lp1325
g1297
ag1301
ag1305
ag1309
ag1313
ag1317
ag1321
asg37
S'She decided to do something else.'
p1326
sg39
S'148120'
p1327
ssI41
(dp1328
g2
(lp1329
(lp1330
S'REALLY'
p1331
aS'151760'
p1332
aS'151840'
p1333
aa(lp1334
S'IX-1p'
p1335
aS'151920'
p1336
aS'152000'
p1337
aa(lp1338
S'SIT'
p1339
aS'152280'
p1340
aS'152840'
p1341
aa(lp1342
g462
aS'153360'
p1343
aa(lp1344
S'part:indef'
p1345
aS'153600'
p1346
aS'154320'
p1347
aasg32
S'154320'
p1348
sg34
Nsg35
(lp1349
g1331
ag1335
ag1339
ag462
ag1345
asg37
S'Really, I was sitting...'
p1350
sg39
S'151520'
p1351
ssI42
(dp1352
g2
(lp1353
(lp1354
S'KNOW'
p1355
aS'157320'
p1356
aS'157400'
p1357
aa(lp1358
S'SIT'
p1359
aS'157680'
p1360
aS'157800'
p1361
aa(lp1362
S'WHEN'
p1363
aS'157840'
p1364
aS'157960'
p1365
aa(lp1366
S'EAT'
p1367
aS'158080'
p1368
aS'158360'
p1369
aa(lp1370
S'HAVE'
p1371
aS'158480'
p1372
aS'158640'
p1373
aa(lp1374
S'fs-TRAY'
p1375
aS'158800'
p1376
aS'159240'
p1377
aa(lp1378
S'CL:1shape of the object'
p1379
aS'159440'
p1380
aS'159880'
p1381
aa(lp1382
S'WITH'
p1383
aS'160000'
p1384
aS'160120'
p1385
aa(lp1386
S'fs-BIB'
p1387
aS'160280'
p1388
aS'160600'
p1389
aa(lp1390
S'CL:1shape of the object'
p1391
aS'160840'
p1392
aS'161440'
p1393
aasg32
S'161440'
p1394
sg34
Nsg35
(lp1395
g1355
ag1359
ag1363
ag1367
ag1371
ag1375
ag1379
ag1383
ag1387
ag1391
asg37
S'You know when we have to sit down and eat, there is tray in front of me with bib on.'
p1396
sg39
S'157200'
p1397
ssI43
(dp1398
g2
(lp1399
(lp1400
S'HAVE'
p1401
aS'161600'
p1402
aS'161680'
p1403
aa(lp1404
S'PICTURE'
p1405
aS'161840'
p1406
aS'162160'
p1407
aa(lp1408
S'CUTE'
p1409
aS'162240'
p1410
aS'162520'
p1411
aasg32
S'162520'
p1412
sg34
Nsg35
(lp1413
g1401
ag1405
ag1409
asg37
S'I have a picture, it was cute.'
p1414
sg39
S'161520'
p1415
ssI44
(dp1416
g2
(lp1417
(lp1418
S'BUT'
p1419
aS'162680'
p1420
aS'162760'
p1421
aa(lp1422
S'ANYWAY'
p1423
aS'162920'
p1424
aS'162960'
p1425
aa(lp1426
S'SIT'
p1427
aS'163280'
p1428
aS'163600'
p1429
aa(lp1430
g462
aS'163640'
p1431
aasg32
S'163640'
p1432
sg34
Nsg35
(lp1433
g1419
ag1423
ag1427
ag462
asg37
S'But anyway I was sitting...'
p1434
sg39
S'162560'
p1435
ssI45
(dp1436
g2
(lp1437
(lp1438
S'fs-DANA'
p1439
aS'163800'
p1440
aS'164440'
p1441
aa(lp1442
S'SCREAM+'
p1443
aS'165560'
p1444
aS'167040'
p1445
aasg32
S'167040'
p1446
sg34
Nsg35
(lp1447
g1439
ag1443
asg37
S'Dana walked around behind me and was screaming.'
p1448
sg39
S'163680'
p1449
ssI46
(dp1450
g2
(lp1451
(lp1452
S'IX-1p'
p1453
aS'167200'
p1454
aS'167560'
p1455
aa(lp1456
S'NOT'
p1457
aS'167640'
p1458
aS'167680'
p1459
aa(lp1460
S'#EVEN'
p1461
aS'167840'
p1462
aS'167960'
p1463
aa(lp1464
S'LOOK-BACK'
p1465
aS'168280'
p1466
aS'169160'
p1467
aasg32
S'169160'
p1468
sg34
Nsg35
(lp1469
g1453
ag1457
ag1461
ag1465
asg37
S'I was not even look back.'
p1470
sg39
S'167080'
p1471
ssI47
(dp1472
g2
(lp1473
(lp1474
S'AND'
p1475
aS'169360'
p1476
aS'169560'
p1477
aa(lp1478
S'POSS-1p'
p1479
aS'169720'
p1480
aS'169840'
p1481
aa(lp1482
S'MOTHER'
p1483
aS'169960'
p1484
aS'170160'
p1485
aa(lp1486
S'SAW'
p1487
aS'170320'
p1488
aS'170440'
p1489
aa(lp1490
S'WHOLE'
p1491
aS'170560'
p1492
aS'170760'
p1493
aa(lp1494
S'THING'
p1495
aS'170920'
p1496
aS'171320'
p1497
aasg32
S'171320'
p1498
sg34
Nsg35
(lp1499
g1475
ag1479
ag1483
ag1487
ag1491
ag1495
asg37
S'And my mother saw the whole thing.'
p1500
sg39
S'169240'
p1501
ssI48
(dp1502
g2
(lp1503
(lp1504
S'POSS-1p'
p1505
aS'171440'
p1506
aS'171520'
p1507
aa(lp1508
S'MOTHER'
p1509
aS'171680'
p1510
aS'171720'
p1511
aa(lp1512
S'LOOK'
p1513
aS'171960'
p1514
aS'172240'
p1515
aa(lp1516
g462
aS'173600'
p1517
aasg32
S'173600'
p1518
sg34
Nsg35
(lp1519
g1505
ag1509
ag1513
ag462
asg37
S'My  mother was staring.'
p1520
sg39
S'171360'
p1521
ssI49
(dp1522
g2
(lp1523
(lp1524
S'CL:1person walking across'
p1525
aS'173800'
p1526
aS'174360'
p1527
aa(lp1528
S'fs-DANA'
p1529
aS'174480'
p1530
aS'174880'
p1531
aa(lp1532
S'SAY'
p1533
aS'175040'
p1534
aS'175120'
p1535
aa(lp1536
S'MAYBE'
p1537
aS'175240'
p1538
aS'175600'
p1539
aa(lp1540
S'DEAF'
p1541
aS'175760'
p1542
aS'176120'
p1543
aasg32
S'176120'
p1544
sg34
Nsg35
(lp1545
g1525
ag1529
ag1533
ag1537
ag1541
asg37
S'She walked to Dana and said, "maybe he is Deaf."'
p1546
sg39
S'173640'
p1547
ssI50
(dp1548
g2
(lp1549
(lp1550
S'SEE'
p1551
aS'176200'
p1552
aS'176640'
p1553
aa(lp1554
S'LOOK'
p1555
aS'176960'
p1556
aS'177320'
p1557
aa(lp1558
g462
aS'178080'
p1559
aa(lp1560
S'#AT'
p1561
aS'178200'
p1562
aS'178360'
p1563
aa(lp1564
S'IX-1p'
p1565
aS'178480'
p1566
aS'178680'
p1567
aa(lp1568
S'LOOK'
p1569
aS'178960'
p1570
aS'179280'
p1571
aa(lp1572
g462
aS'180160'
p1573
aasg32
S'180160'
p1574
sg34
Nsg35
(lp1575
g1551
ag1555
ag462
ag1561
ag1565
ag1569
ag462
asg37
S'She was looking at me.'
p1576
sg39
S'176160'
p1577
ssI51
(dp1578
g2
(lp1579
(lp1580
S'CL:5sound in ear'
p1581
aS'180800'
p1582
aS'181320'
p1583
aa(lp1584
S'IX-1p'
p1585
aS'181520'
p1586
aS'181720'
p1587
aa(lp1588
S'part:indef'
p1589
aS'181840'
p1590
aS'182120'
p1591
aa(lp1592
S'NOT'
p1593
aS'182200'
p1594
aS'182320'
p1595
aa(lp1596
S'PAY-ATTENTION'
p1597
aS'182480'
p1598
aS'183000'
p1599
aasg32
S'183000'
p1600
sg34
Nsg35
(lp1601
g1581
ag1585
ag1589
ag1593
ag1597
asg37
S'She was talking to my ears and I was not pay attention to her.'
p1602
sg39
S'180200'
p1603
ssI52
(dp1604
g2
(lp1605
(lp1606
S'IX-3p:i'
p1607
aS'183160'
p1608
aS'183200'
p1609
aa(lp1610
S'SCREAM'
p1611
aS'183360'
p1612
aS'183760'
p1613
aa(lp1614
S'POSS-1p'
p1615
aS'183880'
p1616
aS'183920'
p1617
aa(lp1618
S'NAME'
p1619
aS'184040'
p1620
aS'184640'
p1621
aa(lp1622
S'IN'
p1623
aS'184760'
p1624
aS'184960'
p1625
aa(lp1626
S'POSS-1p'
p1627
aS'185000'
p1628
aS'185040'
p1629
aa(lp1630
S'EAR'
p1631
aS'185160'
p1632
aS'185400'
p1633
aa(lp1634
S'SCREAM'
p1635
aS'185560'
p1636
aS'186200'
p1637
aa(lp1638
g462
aS'186360'
p1639
aasg32
S'186400'
p1640
sg34
Nsg35
(lp1641
g1607
ag1611
ag1615
ag1619
ag1623
ag1627
ag1631
ag1635
ag462
asg37
S'She was screaming for my name in my ear.'
p1642
sg39
S'183040'
p1643
ssI53
(dp1644
g2
(lp1645
(lp1646
S'IX-1p'
p1647
aS'186600'
p1648
aS'186840'
p1649
aa(lp1650
S'part:indef'
p1651
aS'187040'
p1652
aS'187480'
p1653
aa(lp1654
S'IX-1p'
p1655
aS'187600'
p1656
aS'187720'
p1657
aa(lp1658
S'NOT'
p1659
aS'188040'
p1660
aS'188160'
p1661
aa(lp1662
S'#EVEN'
p1663
aS'188240'
p1664
aS'188320'
p1665
aa(lp1666
S'HEAR'
p1667
aS'188480'
p1668
aS'188680'
p1669
aa(lp1670
S'#IT'
p1671
aS'188840'
p1672
aS'189080'
p1673
aa(lp1674
S'part:indef'
p1675
aS'189400'
p1676
aS'189760'
p1677
aasg32
S'189760'
p1678
sg34
Nsg35
(lp1679
g1647
ag1651
ag1655
ag1659
ag1663
ag1667
ag1671
ag1675
asg37
S'I did not even hear it.'
p1680
sg39
S'186440'
p1681
ssI54
(dp1682
g2
(lp1683
(lp1684
S'TRUE-BUSINESS'
p1685
aS'191640'
p1686
aS'192160'
p1687
aa(lp1688
S'IX-1p'
p1689
aS'192280'
p1690
aS'192400'
p1691
aa(lp1692
S'DEAF'
p1693
aS'192600'
p1694
aS'192960'
p1695
aasg32
S'193000'
p1696
sg34
Nsg35
(lp1697
g1685
ag1689
ag1693
asg37
S'I am definitely Deaf.'
p1698
sg39
S'191480'
p1699
ssI55
(dp1700
g2
(lp1701
(lp1702
S'HAVE'
p1703
aS'193200'
p1704
aS'193240'
p1705
aa(lp1706
S'DEAF'
p1707
aS'193520'
p1708
aS'193760'
p1709
aa(lp1710
S'BROTHER'
p1711
aS'193920'
p1712
aS'194240'
p1713
aa(lp1714
g462
aS'194360'
p1715
aasg32
S'194360'
p1716
sg34
Nsg35
(lp1717
g1703
ag1707
ag1711
ag462
asg37
S'You have a Deaf brother.'
p1718
sg39
S'193040'
p1719
ssI56
(dp1720
g2
(lp1721
(lp1722
S'fs-DANA'
p1723
aS'194560'
p1724
aS'194960'
p1725
aa(lp1726
S'JUMP++'
p1727
aS'195200'
p1728
aS'196040'
p1729
aa(lp1730
S'EXCITED+'
p1731
aS'196360'
p1732
aS'197520'
p1733
aa(lp1734
g462
aS'197720'
p1735
aasg32
S'197720'
p1736
sg34
Nsg35
(lp1737
g1723
ag1727
ag1731
ag462
asg37
S'Dana was jumping around and got excited.'
p1738
sg39
S'194440'
p1739
ssI57
(dp1740
g2
(lp1741
(lp1742
S'TO'
p1743
aS'197960'
p1744
aS'198000'
p1745
aa(lp1746
S'NOW'
p1747
aS'198200'
p1748
aS'198440'
p1749
aa(lp1750
S'DAY'
p1751
aS'198680'
p1752
aS'199200'
p1753
aa(lp1754
S'IX-3p:i'
p1755
aS'199360'
p1756
aS'199480'
p1757
aa(lp1758
S'fs-DANA'
p1759
aS'199600'
p1760
aS'200080'
p1761
aa(lp1762
S'STILL'
p1763
aS'200280'
p1764
aS'200440'
p1765
aa(lp1766
S'TELL'
p1767
aS'200640'
p1768
aS'200680'
p1769
aa(lp1770
S'EVERYONE'
p1771
aS'200920'
p1772
aS'201640'
p1773
aasg32
S'201640'
p1774
sg34
Nsg35
(lp1775
g1743
ag1747
ag1751
ag1755
ag1759
ag1763
ag1767
ag1771
asg37
S'Even today, Dana would still tell everyone.'
p1776
sg39
S'197800'
p1777
ssI58
(dp1778
g2
(lp1779
(lp1780
S'NOW'
p1781
aS'201760'
p1782
aS'201920'
p1783
aa(lp1784
S'IX-3p:i'
p1785
aS'202080'
p1786
aS'202120'
p1787
aa(lp1788
S'IN'
p1789
aS'202280'
p1790
aS'202400'
p1791
aa(lp1792
S'EUROPE'
p1793
aS'202640'
p1794
aS'203080'
p1795
aasg32
S'203080'
p1796
sg34
Nsg35
(lp1797
g1781
ag1785
ag1789
ag1793
asg37
S'She is in Europe now.'
p1798
sg39
S'201680'
p1799
ssI59
(dp1800
g2
(lp1801
(lp1802
S'IX-1p'
p1803
aS'203200'
p1804
aS'203280'
p1805
aa(lp1806
S'SURE'
p1807
aS'203360'
p1808
aS'203440'
p1809
aa(lp1810
S'IX-3p:i'
p1811
aS'203520'
p1812
aS'203560'
p1813
aa(lp1814
S'STILL'
p1815
aS'203640'
p1816
aS'203680'
p1817
aa(lp1818
S'TELL'
p1819
aS'203880'
p1820
aS'203920'
p1821
aa(lp1822
S'MANY'
p1823
aS'204080'
p1824
aS'204360'
p1825
aa(lp1826
S'STRANGER'
p1827
aS'204560'
p1828
aS'204880'
p1829
aa(lp1830
S'ABOUT'
p1831
aS'205040'
p1832
aS'205200'
p1833
aa(lp1834
S'IX-1p'
p1835
aS'205320'
p1836
aS'205600'
p1837
aasg32
S'205600'
p1838
sg34
Nsg35
(lp1839
g1803
ag1807
ag1811
ag1815
ag1819
ag1823
ag1827
ag1831
ag1835
asg37
S'I am sure she still tell many strangers about me.'
p1840
sg39
S'203120'
p1841
ssI60
(dp1842
g2
(lp1843
(lp1844
S'HOW'
p1845
aS'205920'
p1846
aS'206120'
p1847
aa(lp1848
S'FIND'
p1849
aS'206320'
p1850
aS'206360'
p1851
aa(lp1852
S'#OUT'
p1853
aS'206440'
p1854
aS'206680'
p1855
aa(lp1856
S'THAT'
p1857
aS'206800'
p1858
aS'206840'
p1859
aa(lp1860
S'IX-1p'
p1861
aS'207040'
p1862
aS'207120'
p1863
aa(lp1864
S'BECOME'
p1865
aS'207280'
p1866
aS'207600'
p1867
aa(lp1868
S'DEAF'
p1869
aS'207760'
p1870
aS'208240'
p1871
aa(lp1872
S'FIND'
p1873
aS'208400'
p1874
aS'208520'
p1875
aa(lp1876
S'#OUT'
p1877
aS'208600'
p1878
aS'208880'
p1879
aa(lp1880
S'part:indef'
p1881
aS'209040'
p1882
aS'209200'
p1883
aasg32
S'209800'
p1884
sg34
Nsg35
(lp1885
g1845
ag1849
ag1853
ag1857
ag1861
ag1865
ag1869
ag1873
ag1877
ag1881
asg37
S'How she found out that I became Deaf.'
p1886
sg39
S'205640'
p1887
ss.